

Microchip MPLAB XC8 Assembler V3.10 build 20250813170317 
                                                                                               Wed Nov 19 07:13:27 2025

Microchip MPLAB XC8 C Compiler v3.10 (Free license) build 20250813170317 Og1 
     1                           	processor	16F887
     2                           	pagewidth 120
     3                           	opt	flic
     4                           	psect	idataBANK3,global,class=CODE,space=0,delta=2,noexec
     5                           	psect	strings,global,class=STRING,space=0,delta=2,noexec
     6                           	psect	stringtext,global,reloc=256,class=STRCODE,space=0,delta=2,noexec
     7                           	psect	cinit,global,class=CODE,space=0,merge=1,delta=2
     8                           	psect	bssBANK0,global,class=BANK0,space=1,delta=1,noexec
     9                           	psect	bssBANK3,global,class=BANK3,space=1,delta=1,noexec
    10                           	psect	dataBANK3,global,class=BANK3,space=1,delta=1,noexec
    11                           	psect	clrtext,global,class=CODE,space=0,delta=2
    12                           	psect	cstackBANK3,global,class=BANK3,space=1,delta=1,noexec
    13                           	psect	cstackBANK1,global,class=BANK1,space=1,delta=1,noexec
    14                           	psect	cstackCOMMON,global,class=COMMON,space=1,delta=1,noexec
    15                           	psect	cstackBANK0,global,class=BANK0,space=1,delta=1,noexec
    16                           	psect	maintext,global,class=CODE,space=0,split=1,delta=2
    17                           	psect	text1,local,class=CODE,space=0,merge=1,delta=2,group=3
    18                           	psect	text2,local,class=CODE,space=0,merge=1,delta=2,group=1
    19                           	psect	text3,local,class=CODE,space=0,merge=1,delta=2,group=1
    20                           	psect	text4,local,class=CODE,space=0,merge=1,delta=2,group=1
    21                           	psect	text5,local,class=CODE,space=0,merge=1,delta=2,group=2
    22                           	psect	text6,local,class=CODE,space=0,merge=1,delta=2,group=2
    23                           	psect	text7,local,class=CODE,space=0,merge=1,delta=2,group=1
    24                           	psect	text8,local,class=CODE,space=0,merge=1,delta=2,group=2
    25                           	psect	text9,local,class=CODE,space=0,merge=1,delta=2,group=1
    26                           	psect	text10,local,class=CODE,space=0,merge=1,delta=2,group=1
    27                           	psect	text11,local,class=CODE,space=0,merge=1,delta=2,group=3
    28                           	psect	text12,local,class=CODE,space=0,merge=1,delta=2,group=3
    29                           	psect	text13,local,class=CODE,space=0,merge=1,delta=2,group=3
    30                           	psect	text14,local,class=CODE,space=0,merge=1,delta=2,group=3
    31                           	psect	text15,local,class=CODE,space=0,merge=1,delta=2,group=2
    32                           	psect	text16,local,class=CODE,space=0,merge=1,delta=2,group=2
    33                           	psect	text17,local,class=CODE,space=0,merge=1,delta=2,group=2
    34                           	psect	text18,local,class=CODE,space=0,merge=1,delta=2,group=2
    35                           	psect	text19,local,class=CODE,space=0,merge=1,delta=2
    36                           	psect	text20,local,class=CODE,space=0,merge=1,delta=2
    37                           	psect	text21,local,class=CODE,space=0,merge=1,delta=2
    38                           	psect	text22,local,class=CODE,space=0,merge=1,delta=2,group=3
    39                           	psect	text23,local,class=CODE,space=0,merge=1,delta=2
    40                           	psect	text24,local,class=CODE,space=0,merge=1,delta=2
    41                           	psect	text25,local,class=CODE,space=0,merge=1,delta=2
    42                           	psect	text26,local,class=CODE,space=0,merge=1,delta=2
    43                           	psect	text27,local,class=CODE,space=0,merge=1,delta=2
    44                           	psect	text28,local,class=CODE,space=0,merge=1,delta=2
    45                           	psect	text29,local,class=CODE,space=0,merge=1,delta=2
    46                           	psect	text30,local,class=CODE,space=0,merge=1,delta=2
    47                           	psect	text31,local,class=CODE,space=0,merge=1,delta=2
    48                           	psect	text32,local,class=CODE,space=0,merge=1,delta=2
    49                           	psect	text33,local,class=CODE,space=0,merge=1,delta=2
    50                           	psect	text34,local,class=CODE,space=0,merge=1,delta=2
    51                           	psect	text35,local,class=CODE,space=0,merge=1,delta=2
    52                           	psect	text36,local,class=CODE,space=0,merge=1,delta=2
    53                           	psect	text37,local,class=CODE,space=0,merge=1,delta=2
    54                           	psect	text38,local,class=CODE,space=0,merge=1,delta=2
    55                           	psect	text39,local,class=CODE,space=0,merge=1,delta=2
    56                           	psect	text40,local,class=CODE,space=0,merge=1,delta=2
    57                           	psect	text41,local,class=CODE,space=0,merge=1,delta=2,group=2
    58                           	psect	text42,local,class=CODE,space=0,merge=1,delta=2
    59                           	psect	text43,local,class=CODE,space=0,merge=1,delta=2,group=2
    60                           	psect	text44,local,class=CODE,space=0,merge=1,delta=2,group=2
    61                           	psect	text45,local,class=CODE,space=0,merge=1,delta=2,group=2
    62                           	psect	text46,local,class=CODE,space=0,merge=1,delta=2,group=2
    63                           	psect	text47,local,class=CODE,space=0,merge=1,delta=2
    64                           	psect	config,global,abs,ovrld,class=CONFIG,space=4,delta=2,noexec
    65                           	dabs	1,0x7E,2
    66     0000                     
    67                           ; Generated 12/10/2023 GMT
    68                           ; 
    69                           ; Copyright © 2023, Microchip Technology Inc. and its subsidiaries ("Microchip")
    70                           ; All rights reserved.
    71                           ; 
    72                           ; This software is developed by Microchip Technology Inc. and its subsidiaries ("Microch
      +                          ip").
    73                           ; 
    74                           ; Redistribution and use in source and binary forms, with or without modification, are
    75                           ; permitted provided that the following conditions are met:
    76                           ; 
    77                           ;     1. Redistributions of source code must retain the above copyright notice, this lis
      +                          t of
    78                           ;        conditions and the following disclaimer.
    79                           ; 
    80                           ;     2. Redistributions in binary form must reproduce the above copyright notice, this 
      +                          list
    81                           ;        of conditions and the following disclaimer in the documentation and/or other
    82                           ;        materials provided with the distribution. Publication is not required when
    83                           ;        this file is used in an embedded application.
    84                           ; 
    85                           ;     3. Microchip's name may not be used to endorse or promote products derived from th
      +                          is
    86                           ;        software without specific prior written permission.
    87                           ; 
    88                           ; THIS SOFTWARE IS PROVIDED BY MICROCHIP "AS IS" AND ANY EXPRESS OR IMPLIED WARRANTIES,
    89                           ; INCLUDING, BUT NOT LIMITED TO, THE IMPLIED WARRANTIES OF MERCHANTABILITY AND FITNESS F
      +                          OR
    90                           ; PURPOSE ARE DISCLAIMED.  IN NO EVENT SHALL MICROCHIP BE LIABLE FOR ANY DIRECT, INDIREC
      +                          T,
    91                           ; INCIDENTAL, SPECIAL, EXEMPLARY, OR CONSEQUENTIAL DAMAGES (INCLUDING BUT NOT LIMITED TO
    92                           ; PROCUREMENT OF SUBSTITUTE GOODS OR SERVICES; LOSS OF USE, DATA OR PROFITS; OR BUSINESS
    93                           ; INTERRUPTION) HOWSOEVER CAUSED AND ON ANY THEORY OF LIABILITY, WHETHER IN CONTRACT, ST
      +                          RICT
    94                           ; LIABILITY, OR TORT (INCLUDING NEGLIGENCE OR OTHERWISE) ARISING IN ANY WAY OUT OF THE U
      +                          SE OF
    95                           ; THIS SOFTWARE, EVEN IF ADVISED OF THE POSSIBILITY OF SUCH DAMAGE.
    96                           ; 
    97                           ; 
    98                           ; Code-generator required, PIC16F887 Definitions
    99                           ; 
   100                           ; SFR Addresses
   101     0004                     fsr             equ	4
   102     0004                     fsr0            equ	4
   103     0000                     indf            equ	0
   104     0000                     indf0           equ	0
   105     0002                     pc              equ	2
   106     0002                     pcl             equ	2
   107     000A                     pclath          equ	10
   108     0003                     status          equ	3
   109     0000                     INDF            equ	0	;# 
   110     0001                     TMR0            equ	1	;# 
   111     0002                     PCL             equ	2	;# 
   112     0003                     STATUS          equ	3	;# 
   113     0004                     FSR             equ	4	;# 
   114     0005                     PORTA           equ	5	;# 
   115     0006                     PORTB           equ	6	;# 
   116     0007                     PORTC           equ	7	;# 
   117     0008                     PORTD           equ	8	;# 
   118     0009                     PORTE           equ	9	;# 
   119     000A                     PCLATH          equ	10	;# 
   120     000B                     INTCON          equ	11	;# 
   121     000C                     PIR1            equ	12	;# 
   122     000D                     PIR2            equ	13	;# 
   123     000E                     TMR1            equ	14	;# 
   124     000E                     TMR1L           equ	14	;# 
   125     000F                     TMR1H           equ	15	;# 
   126     0010                     T1CON           equ	16	;# 
   127     0011                     TMR2            equ	17	;# 
   128     0012                     T2CON           equ	18	;# 
   129     0013                     SSPBUF          equ	19	;# 
   130     0014                     SSPCON          equ	20	;# 
   131     0015                     CCPR1           equ	21	;# 
   132     0015                     CCPR1L          equ	21	;# 
   133     0016                     CCPR1H          equ	22	;# 
   134     0017                     CCP1CON         equ	23	;# 
   135     0018                     RCSTA           equ	24	;# 
   136     0019                     TXREG           equ	25	;# 
   137     001A                     RCREG           equ	26	;# 
   138     001B                     CCPR2           equ	27	;# 
   139     001B                     CCPR2L          equ	27	;# 
   140     001C                     CCPR2H          equ	28	;# 
   141     001D                     CCP2CON         equ	29	;# 
   142     001E                     ADRESH          equ	30	;# 
   143     001F                     ADCON0          equ	31	;# 
   144     0081                     OPTION_REG      equ	129	;# 
   145     0085                     TRISA           equ	133	;# 
   146     0086                     TRISB           equ	134	;# 
   147     0087                     TRISC           equ	135	;# 
   148     0088                     TRISD           equ	136	;# 
   149     0089                     TRISE           equ	137	;# 
   150     008C                     PIE1            equ	140	;# 
   151     008D                     PIE2            equ	141	;# 
   152     008E                     PCON            equ	142	;# 
   153     008F                     OSCCON          equ	143	;# 
   154     0090                     OSCTUNE         equ	144	;# 
   155     0091                     SSPCON2         equ	145	;# 
   156     0092                     PR2             equ	146	;# 
   157     0093                     SSPADD          equ	147	;# 
   158     0093                     SSPMSK          equ	147	;# 
   159     0093                     MSK             equ	147	;# 
   160     0094                     SSPSTAT         equ	148	;# 
   161     0095                     WPUB            equ	149	;# 
   162     0096                     IOCB            equ	150	;# 
   163     0097                     VRCON           equ	151	;# 
   164     0098                     TXSTA           equ	152	;# 
   165     0099                     SPBRG           equ	153	;# 
   166     009A                     SPBRGH          equ	154	;# 
   167     009B                     PWM1CON         equ	155	;# 
   168     009C                     ECCPAS          equ	156	;# 
   169     009D                     PSTRCON         equ	157	;# 
   170     009E                     ADRESL          equ	158	;# 
   171     009F                     ADCON1          equ	159	;# 
   172     0105                     WDTCON          equ	261	;# 
   173     0107                     CM1CON0         equ	263	;# 
   174     0108                     CM2CON0         equ	264	;# 
   175     0109                     CM2CON1         equ	265	;# 
   176     010C                     EEDATA          equ	268	;# 
   177     010C                     EEDAT           equ	268	;# 
   178     010D                     EEADR           equ	269	;# 
   179     010E                     EEDATH          equ	270	;# 
   180     010F                     EEADRH          equ	271	;# 
   181     0185                     SRCON           equ	389	;# 
   182     0187                     BAUDCTL         equ	391	;# 
   183     0188                     ANSEL           equ	392	;# 
   184     0189                     ANSELH          equ	393	;# 
   185     018C                     EECON1          equ	396	;# 
   186     018D                     EECON2          equ	397	;# 
   187     0000                     INDF            equ	0	;# 
   188     0001                     TMR0            equ	1	;# 
   189     0002                     PCL             equ	2	;# 
   190     0003                     STATUS          equ	3	;# 
   191     0004                     FSR             equ	4	;# 
   192     0005                     PORTA           equ	5	;# 
   193     0006                     PORTB           equ	6	;# 
   194     0007                     PORTC           equ	7	;# 
   195     0008                     PORTD           equ	8	;# 
   196     0009                     PORTE           equ	9	;# 
   197     000A                     PCLATH          equ	10	;# 
   198     000B                     INTCON          equ	11	;# 
   199     000C                     PIR1            equ	12	;# 
   200     000D                     PIR2            equ	13	;# 
   201     000E                     TMR1            equ	14	;# 
   202     000E                     TMR1L           equ	14	;# 
   203     000F                     TMR1H           equ	15	;# 
   204     0010                     T1CON           equ	16	;# 
   205     0011                     TMR2            equ	17	;# 
   206     0012                     T2CON           equ	18	;# 
   207     0013                     SSPBUF          equ	19	;# 
   208     0014                     SSPCON          equ	20	;# 
   209     0015                     CCPR1           equ	21	;# 
   210     0015                     CCPR1L          equ	21	;# 
   211     0016                     CCPR1H          equ	22	;# 
   212     0017                     CCP1CON         equ	23	;# 
   213     0018                     RCSTA           equ	24	;# 
   214     0019                     TXREG           equ	25	;# 
   215     001A                     RCREG           equ	26	;# 
   216     001B                     CCPR2           equ	27	;# 
   217     001B                     CCPR2L          equ	27	;# 
   218     001C                     CCPR2H          equ	28	;# 
   219     001D                     CCP2CON         equ	29	;# 
   220     001E                     ADRESH          equ	30	;# 
   221     001F                     ADCON0          equ	31	;# 
   222     0081                     OPTION_REG      equ	129	;# 
   223     0085                     TRISA           equ	133	;# 
   224     0086                     TRISB           equ	134	;# 
   225     0087                     TRISC           equ	135	;# 
   226     0088                     TRISD           equ	136	;# 
   227     0089                     TRISE           equ	137	;# 
   228     008C                     PIE1            equ	140	;# 
   229     008D                     PIE2            equ	141	;# 
   230     008E                     PCON            equ	142	;# 
   231     008F                     OSCCON          equ	143	;# 
   232     0090                     OSCTUNE         equ	144	;# 
   233     0091                     SSPCON2         equ	145	;# 
   234     0092                     PR2             equ	146	;# 
   235     0093                     SSPADD          equ	147	;# 
   236     0093                     SSPMSK          equ	147	;# 
   237     0093                     MSK             equ	147	;# 
   238     0094                     SSPSTAT         equ	148	;# 
   239     0095                     WPUB            equ	149	;# 
   240     0096                     IOCB            equ	150	;# 
   241     0097                     VRCON           equ	151	;# 
   242     0098                     TXSTA           equ	152	;# 
   243     0099                     SPBRG           equ	153	;# 
   244     009A                     SPBRGH          equ	154	;# 
   245     009B                     PWM1CON         equ	155	;# 
   246     009C                     ECCPAS          equ	156	;# 
   247     009D                     PSTRCON         equ	157	;# 
   248     009E                     ADRESL          equ	158	;# 
   249     009F                     ADCON1          equ	159	;# 
   250     0105                     WDTCON          equ	261	;# 
   251     0107                     CM1CON0         equ	263	;# 
   252     0108                     CM2CON0         equ	264	;# 
   253     0109                     CM2CON1         equ	265	;# 
   254     010C                     EEDATA          equ	268	;# 
   255     010C                     EEDAT           equ	268	;# 
   256     010D                     EEADR           equ	269	;# 
   257     010E                     EEDATH          equ	270	;# 
   258     010F                     EEADRH          equ	271	;# 
   259     0185                     SRCON           equ	389	;# 
   260     0187                     BAUDCTL         equ	391	;# 
   261     0188                     ANSEL           equ	392	;# 
   262     0189                     ANSELH          equ	393	;# 
   263     018C                     EECON1          equ	396	;# 
   264     018D                     EECON2          equ	397	;# 
   265     0000                     INDF            equ	0	;# 
   266     0001                     TMR0            equ	1	;# 
   267     0002                     PCL             equ	2	;# 
   268     0003                     STATUS          equ	3	;# 
   269     0004                     FSR             equ	4	;# 
   270     0005                     PORTA           equ	5	;# 
   271     0006                     PORTB           equ	6	;# 
   272     0007                     PORTC           equ	7	;# 
   273     0008                     PORTD           equ	8	;# 
   274     0009                     PORTE           equ	9	;# 
   275     000A                     PCLATH          equ	10	;# 
   276     000B                     INTCON          equ	11	;# 
   277     000C                     PIR1            equ	12	;# 
   278     000D                     PIR2            equ	13	;# 
   279     000E                     TMR1            equ	14	;# 
   280     000E                     TMR1L           equ	14	;# 
   281     000F                     TMR1H           equ	15	;# 
   282     0010                     T1CON           equ	16	;# 
   283     0011                     TMR2            equ	17	;# 
   284     0012                     T2CON           equ	18	;# 
   285     0013                     SSPBUF          equ	19	;# 
   286     0014                     SSPCON          equ	20	;# 
   287     0015                     CCPR1           equ	21	;# 
   288     0015                     CCPR1L          equ	21	;# 
   289     0016                     CCPR1H          equ	22	;# 
   290     0017                     CCP1CON         equ	23	;# 
   291     0018                     RCSTA           equ	24	;# 
   292     0019                     TXREG           equ	25	;# 
   293     001A                     RCREG           equ	26	;# 
   294     001B                     CCPR2           equ	27	;# 
   295     001B                     CCPR2L          equ	27	;# 
   296     001C                     CCPR2H          equ	28	;# 
   297     001D                     CCP2CON         equ	29	;# 
   298     001E                     ADRESH          equ	30	;# 
   299     001F                     ADCON0          equ	31	;# 
   300     0081                     OPTION_REG      equ	129	;# 
   301     0085                     TRISA           equ	133	;# 
   302     0086                     TRISB           equ	134	;# 
   303     0087                     TRISC           equ	135	;# 
   304     0088                     TRISD           equ	136	;# 
   305     0089                     TRISE           equ	137	;# 
   306     008C                     PIE1            equ	140	;# 
   307     008D                     PIE2            equ	141	;# 
   308     008E                     PCON            equ	142	;# 
   309     008F                     OSCCON          equ	143	;# 
   310     0090                     OSCTUNE         equ	144	;# 
   311     0091                     SSPCON2         equ	145	;# 
   312     0092                     PR2             equ	146	;# 
   313     0093                     SSPADD          equ	147	;# 
   314     0093                     SSPMSK          equ	147	;# 
   315     0093                     MSK             equ	147	;# 
   316     0094                     SSPSTAT         equ	148	;# 
   317     0095                     WPUB            equ	149	;# 
   318     0096                     IOCB            equ	150	;# 
   319     0097                     VRCON           equ	151	;# 
   320     0098                     TXSTA           equ	152	;# 
   321     0099                     SPBRG           equ	153	;# 
   322     009A                     SPBRGH          equ	154	;# 
   323     009B                     PWM1CON         equ	155	;# 
   324     009C                     ECCPAS          equ	156	;# 
   325     009D                     PSTRCON         equ	157	;# 
   326     009E                     ADRESL          equ	158	;# 
   327     009F                     ADCON1          equ	159	;# 
   328     0105                     WDTCON          equ	261	;# 
   329     0107                     CM1CON0         equ	263	;# 
   330     0108                     CM2CON0         equ	264	;# 
   331     0109                     CM2CON1         equ	265	;# 
   332     010C                     EEDATA          equ	268	;# 
   333     010C                     EEDAT           equ	268	;# 
   334     010D                     EEADR           equ	269	;# 
   335     010E                     EEDATH          equ	270	;# 
   336     010F                     EEADRH          equ	271	;# 
   337     0185                     SRCON           equ	389	;# 
   338     0187                     BAUDCTL         equ	391	;# 
   339     0188                     ANSEL           equ	392	;# 
   340     0189                     ANSELH          equ	393	;# 
   341     018C                     EECON1          equ	396	;# 
   342     018D                     EECON2          equ	397	;# 
   343     0000                     INDF            equ	0	;# 
   344     0001                     TMR0            equ	1	;# 
   345     0002                     PCL             equ	2	;# 
   346     0003                     STATUS          equ	3	;# 
   347     0004                     FSR             equ	4	;# 
   348     0005                     PORTA           equ	5	;# 
   349     0006                     PORTB           equ	6	;# 
   350     0007                     PORTC           equ	7	;# 
   351     0008                     PORTD           equ	8	;# 
   352     0009                     PORTE           equ	9	;# 
   353     000A                     PCLATH          equ	10	;# 
   354     000B                     INTCON          equ	11	;# 
   355     000C                     PIR1            equ	12	;# 
   356     000D                     PIR2            equ	13	;# 
   357     000E                     TMR1            equ	14	;# 
   358     000E                     TMR1L           equ	14	;# 
   359     000F                     TMR1H           equ	15	;# 
   360     0010                     T1CON           equ	16	;# 
   361     0011                     TMR2            equ	17	;# 
   362     0012                     T2CON           equ	18	;# 
   363     0013                     SSPBUF          equ	19	;# 
   364     0014                     SSPCON          equ	20	;# 
   365     0015                     CCPR1           equ	21	;# 
   366     0015                     CCPR1L          equ	21	;# 
   367     0016                     CCPR1H          equ	22	;# 
   368     0017                     CCP1CON         equ	23	;# 
   369     0018                     RCSTA           equ	24	;# 
   370     0019                     TXREG           equ	25	;# 
   371     001A                     RCREG           equ	26	;# 
   372     001B                     CCPR2           equ	27	;# 
   373     001B                     CCPR2L          equ	27	;# 
   374     001C                     CCPR2H          equ	28	;# 
   375     001D                     CCP2CON         equ	29	;# 
   376     001E                     ADRESH          equ	30	;# 
   377     001F                     ADCON0          equ	31	;# 
   378     0081                     OPTION_REG      equ	129	;# 
   379     0085                     TRISA           equ	133	;# 
   380     0086                     TRISB           equ	134	;# 
   381     0087                     TRISC           equ	135	;# 
   382     0088                     TRISD           equ	136	;# 
   383     0089                     TRISE           equ	137	;# 
   384     008C                     PIE1            equ	140	;# 
   385     008D                     PIE2            equ	141	;# 
   386     008E                     PCON            equ	142	;# 
   387     008F                     OSCCON          equ	143	;# 
   388     0090                     OSCTUNE         equ	144	;# 
   389     0091                     SSPCON2         equ	145	;# 
   390     0092                     PR2             equ	146	;# 
   391     0093                     SSPADD          equ	147	;# 
   392     0093                     SSPMSK          equ	147	;# 
   393     0093                     MSK             equ	147	;# 
   394     0094                     SSPSTAT         equ	148	;# 
   395     0095                     WPUB            equ	149	;# 
   396     0096                     IOCB            equ	150	;# 
   397     0097                     VRCON           equ	151	;# 
   398     0098                     TXSTA           equ	152	;# 
   399     0099                     SPBRG           equ	153	;# 
   400     009A                     SPBRGH          equ	154	;# 
   401     009B                     PWM1CON         equ	155	;# 
   402     009C                     ECCPAS          equ	156	;# 
   403     009D                     PSTRCON         equ	157	;# 
   404     009E                     ADRESL          equ	158	;# 
   405     009F                     ADCON1          equ	159	;# 
   406     0105                     WDTCON          equ	261	;# 
   407     0107                     CM1CON0         equ	263	;# 
   408     0108                     CM2CON0         equ	264	;# 
   409     0109                     CM2CON1         equ	265	;# 
   410     010C                     EEDATA          equ	268	;# 
   411     010C                     EEDAT           equ	268	;# 
   412     010D                     EEADR           equ	269	;# 
   413     010E                     EEDATH          equ	270	;# 
   414     010F                     EEADRH          equ	271	;# 
   415     0185                     SRCON           equ	389	;# 
   416     0187                     BAUDCTL         equ	391	;# 
   417     0188                     ANSEL           equ	392	;# 
   418     0189                     ANSELH          equ	393	;# 
   419     018C                     EECON1          equ	396	;# 
   420     018D                     EECON2          equ	397	;# 
   421     0000                     INDF            equ	0	;# 
   422     0001                     TMR0            equ	1	;# 
   423     0002                     PCL             equ	2	;# 
   424     0003                     STATUS          equ	3	;# 
   425     0004                     FSR             equ	4	;# 
   426     0005                     PORTA           equ	5	;# 
   427     0006                     PORTB           equ	6	;# 
   428     0007                     PORTC           equ	7	;# 
   429     0008                     PORTD           equ	8	;# 
   430     0009                     PORTE           equ	9	;# 
   431     000A                     PCLATH          equ	10	;# 
   432     000B                     INTCON          equ	11	;# 
   433     000C                     PIR1            equ	12	;# 
   434     000D                     PIR2            equ	13	;# 
   435     000E                     TMR1            equ	14	;# 
   436     000E                     TMR1L           equ	14	;# 
   437     000F                     TMR1H           equ	15	;# 
   438     0010                     T1CON           equ	16	;# 
   439     0011                     TMR2            equ	17	;# 
   440     0012                     T2CON           equ	18	;# 
   441     0013                     SSPBUF          equ	19	;# 
   442     0014                     SSPCON          equ	20	;# 
   443     0015                     CCPR1           equ	21	;# 
   444     0015                     CCPR1L          equ	21	;# 
   445     0016                     CCPR1H          equ	22	;# 
   446     0017                     CCP1CON         equ	23	;# 
   447     0018                     RCSTA           equ	24	;# 
   448     0019                     TXREG           equ	25	;# 
   449     001A                     RCREG           equ	26	;# 
   450     001B                     CCPR2           equ	27	;# 
   451     001B                     CCPR2L          equ	27	;# 
   452     001C                     CCPR2H          equ	28	;# 
   453     001D                     CCP2CON         equ	29	;# 
   454     001E                     ADRESH          equ	30	;# 
   455     001F                     ADCON0          equ	31	;# 
   456     0081                     OPTION_REG      equ	129	;# 
   457     0085                     TRISA           equ	133	;# 
   458     0086                     TRISB           equ	134	;# 
   459     0087                     TRISC           equ	135	;# 
   460     0088                     TRISD           equ	136	;# 
   461     0089                     TRISE           equ	137	;# 
   462     008C                     PIE1            equ	140	;# 
   463     008D                     PIE2            equ	141	;# 
   464     008E                     PCON            equ	142	;# 
   465     008F                     OSCCON          equ	143	;# 
   466     0090                     OSCTUNE         equ	144	;# 
   467     0091                     SSPCON2         equ	145	;# 
   468     0092                     PR2             equ	146	;# 
   469     0093                     SSPADD          equ	147	;# 
   470     0093                     SSPMSK          equ	147	;# 
   471     0093                     MSK             equ	147	;# 
   472     0094                     SSPSTAT         equ	148	;# 
   473     0095                     WPUB            equ	149	;# 
   474     0096                     IOCB            equ	150	;# 
   475     0097                     VRCON           equ	151	;# 
   476     0098                     TXSTA           equ	152	;# 
   477     0099                     SPBRG           equ	153	;# 
   478     009A                     SPBRGH          equ	154	;# 
   479     009B                     PWM1CON         equ	155	;# 
   480     009C                     ECCPAS          equ	156	;# 
   481     009D                     PSTRCON         equ	157	;# 
   482     009E                     ADRESL          equ	158	;# 
   483     009F                     ADCON1          equ	159	;# 
   484     0105                     WDTCON          equ	261	;# 
   485     0107                     CM1CON0         equ	263	;# 
   486     0108                     CM2CON0         equ	264	;# 
   487     0109                     CM2CON1         equ	265	;# 
   488     010C                     EEDATA          equ	268	;# 
   489     010C                     EEDAT           equ	268	;# 
   490     010D                     EEADR           equ	269	;# 
   491     010E                     EEDATH          equ	270	;# 
   492     010F                     EEADRH          equ	271	;# 
   493     0185                     SRCON           equ	389	;# 
   494     0187                     BAUDCTL         equ	391	;# 
   495     0188                     ANSEL           equ	392	;# 
   496     0189                     ANSELH          equ	393	;# 
   497     018C                     EECON1          equ	396	;# 
   498     018D                     EECON2          equ	397	;# 
   499     0000                     INDF            equ	0	;# 
   500     0001                     TMR0            equ	1	;# 
   501     0002                     PCL             equ	2	;# 
   502     0003                     STATUS          equ	3	;# 
   503     0004                     FSR             equ	4	;# 
   504     0005                     PORTA           equ	5	;# 
   505     0006                     PORTB           equ	6	;# 
   506     0007                     PORTC           equ	7	;# 
   507     0008                     PORTD           equ	8	;# 
   508     0009                     PORTE           equ	9	;# 
   509     000A                     PCLATH          equ	10	;# 
   510     000B                     INTCON          equ	11	;# 
   511     000C                     PIR1            equ	12	;# 
   512     000D                     PIR2            equ	13	;# 
   513     000E                     TMR1            equ	14	;# 
   514     000E                     TMR1L           equ	14	;# 
   515     000F                     TMR1H           equ	15	;# 
   516     0010                     T1CON           equ	16	;# 
   517     0011                     TMR2            equ	17	;# 
   518     0012                     T2CON           equ	18	;# 
   519     0013                     SSPBUF          equ	19	;# 
   520     0014                     SSPCON          equ	20	;# 
   521     0015                     CCPR1           equ	21	;# 
   522     0015                     CCPR1L          equ	21	;# 
   523     0016                     CCPR1H          equ	22	;# 
   524     0017                     CCP1CON         equ	23	;# 
   525     0018                     RCSTA           equ	24	;# 
   526     0019                     TXREG           equ	25	;# 
   527     001A                     RCREG           equ	26	;# 
   528     001B                     CCPR2           equ	27	;# 
   529     001B                     CCPR2L          equ	27	;# 
   530     001C                     CCPR2H          equ	28	;# 
   531     001D                     CCP2CON         equ	29	;# 
   532     001E                     ADRESH          equ	30	;# 
   533     001F                     ADCON0          equ	31	;# 
   534     0081                     OPTION_REG      equ	129	;# 
   535     0085                     TRISA           equ	133	;# 
   536     0086                     TRISB           equ	134	;# 
   537     0087                     TRISC           equ	135	;# 
   538     0088                     TRISD           equ	136	;# 
   539     0089                     TRISE           equ	137	;# 
   540     008C                     PIE1            equ	140	;# 
   541     008D                     PIE2            equ	141	;# 
   542     008E                     PCON            equ	142	;# 
   543     008F                     OSCCON          equ	143	;# 
   544     0090                     OSCTUNE         equ	144	;# 
   545     0091                     SSPCON2         equ	145	;# 
   546     0092                     PR2             equ	146	;# 
   547     0093                     SSPADD          equ	147	;# 
   548     0093                     SSPMSK          equ	147	;# 
   549     0093                     MSK             equ	147	;# 
   550     0094                     SSPSTAT         equ	148	;# 
   551     0095                     WPUB            equ	149	;# 
   552     0096                     IOCB            equ	150	;# 
   553     0097                     VRCON           equ	151	;# 
   554     0098                     TXSTA           equ	152	;# 
   555     0099                     SPBRG           equ	153	;# 
   556     009A                     SPBRGH          equ	154	;# 
   557     009B                     PWM1CON         equ	155	;# 
   558     009C                     ECCPAS          equ	156	;# 
   559     009D                     PSTRCON         equ	157	;# 
   560     009E                     ADRESL          equ	158	;# 
   561     009F                     ADCON1          equ	159	;# 
   562     0105                     WDTCON          equ	261	;# 
   563     0107                     CM1CON0         equ	263	;# 
   564     0108                     CM2CON0         equ	264	;# 
   565     0109                     CM2CON1         equ	265	;# 
   566     010C                     EEDATA          equ	268	;# 
   567     010C                     EEDAT           equ	268	;# 
   568     010D                     EEADR           equ	269	;# 
   569     010E                     EEDATH          equ	270	;# 
   570     010F                     EEADRH          equ	271	;# 
   571     0185                     SRCON           equ	389	;# 
   572     0187                     BAUDCTL         equ	391	;# 
   573     0188                     ANSEL           equ	392	;# 
   574     0189                     ANSELH          equ	393	;# 
   575     018C                     EECON1          equ	396	;# 
   576     018D                     EECON2          equ	397	;# 
   577     0000                     INDF            equ	0	;# 
   578     0001                     TMR0            equ	1	;# 
   579     0002                     PCL             equ	2	;# 
   580     0003                     STATUS          equ	3	;# 
   581     0004                     FSR             equ	4	;# 
   582     0005                     PORTA           equ	5	;# 
   583     0006                     PORTB           equ	6	;# 
   584     0007                     PORTC           equ	7	;# 
   585     0008                     PORTD           equ	8	;# 
   586     0009                     PORTE           equ	9	;# 
   587     000A                     PCLATH          equ	10	;# 
   588     000B                     INTCON          equ	11	;# 
   589     000C                     PIR1            equ	12	;# 
   590     000D                     PIR2            equ	13	;# 
   591     000E                     TMR1            equ	14	;# 
   592     000E                     TMR1L           equ	14	;# 
   593     000F                     TMR1H           equ	15	;# 
   594     0010                     T1CON           equ	16	;# 
   595     0011                     TMR2            equ	17	;# 
   596     0012                     T2CON           equ	18	;# 
   597     0013                     SSPBUF          equ	19	;# 
   598     0014                     SSPCON          equ	20	;# 
   599     0015                     CCPR1           equ	21	;# 
   600     0015                     CCPR1L          equ	21	;# 
   601     0016                     CCPR1H          equ	22	;# 
   602     0017                     CCP1CON         equ	23	;# 
   603     0018                     RCSTA           equ	24	;# 
   604     0019                     TXREG           equ	25	;# 
   605     001A                     RCREG           equ	26	;# 
   606     001B                     CCPR2           equ	27	;# 
   607     001B                     CCPR2L          equ	27	;# 
   608     001C                     CCPR2H          equ	28	;# 
   609     001D                     CCP2CON         equ	29	;# 
   610     001E                     ADRESH          equ	30	;# 
   611     001F                     ADCON0          equ	31	;# 
   612     0081                     OPTION_REG      equ	129	;# 
   613     0085                     TRISA           equ	133	;# 
   614     0086                     TRISB           equ	134	;# 
   615     0087                     TRISC           equ	135	;# 
   616     0088                     TRISD           equ	136	;# 
   617     0089                     TRISE           equ	137	;# 
   618     008C                     PIE1            equ	140	;# 
   619     008D                     PIE2            equ	141	;# 
   620     008E                     PCON            equ	142	;# 
   621     008F                     OSCCON          equ	143	;# 
   622     0090                     OSCTUNE         equ	144	;# 
   623     0091                     SSPCON2         equ	145	;# 
   624     0092                     PR2             equ	146	;# 
   625     0093                     SSPADD          equ	147	;# 
   626     0093                     SSPMSK          equ	147	;# 
   627     0093                     MSK             equ	147	;# 
   628     0094                     SSPSTAT         equ	148	;# 
   629     0095                     WPUB            equ	149	;# 
   630     0096                     IOCB            equ	150	;# 
   631     0097                     VRCON           equ	151	;# 
   632     0098                     TXSTA           equ	152	;# 
   633     0099                     SPBRG           equ	153	;# 
   634     009A                     SPBRGH          equ	154	;# 
   635     009B                     PWM1CON         equ	155	;# 
   636     009C                     ECCPAS          equ	156	;# 
   637     009D                     PSTRCON         equ	157	;# 
   638     009E                     ADRESL          equ	158	;# 
   639     009F                     ADCON1          equ	159	;# 
   640     0105                     WDTCON          equ	261	;# 
   641     0107                     CM1CON0         equ	263	;# 
   642     0108                     CM2CON0         equ	264	;# 
   643     0109                     CM2CON1         equ	265	;# 
   644     010C                     EEDATA          equ	268	;# 
   645     010C                     EEDAT           equ	268	;# 
   646     010D                     EEADR           equ	269	;# 
   647     010E                     EEDATH          equ	270	;# 
   648     010F                     EEADRH          equ	271	;# 
   649     0185                     SRCON           equ	389	;# 
   650     0187                     BAUDCTL         equ	391	;# 
   651     0188                     ANSEL           equ	392	;# 
   652     0189                     ANSELH          equ	393	;# 
   653     018C                     EECON1          equ	396	;# 
   654     018D                     EECON2          equ	397	;# 
   655                           
   656                           	psect	idataBANK3
   657     0802                     __pidataBANK3:
   658                           
   659                           ;initializer for _current_sector
   660     0802  3464               	retlw	100
   661     0803  3400               	retlw	0
   662     0804  3400               	retlw	0
   663     0805  3400               	retlw	0
   664     0006                     _PORTBbits      set	6
   665     0008                     _PORTDbits      set	8
   666     0013                     _SSPBUF         set	19
   667     0014                     _SSPCON         set	20
   668     0005                     _PORTAbits      set	5
   669     0008                     _PORTD          set	8
   670     0007                     _PORTC          set	7
   671     0006                     _PORTB          set	6
   672     0005                     _PORTA          set	5
   673     003D                     _RC5            set	61
   674     003E                     _RC6            set	62
   675     0047                     _RD7            set	71
   676     0046                     _RD6            set	70
   677     0045                     _RD5            set	69
   678     0044                     _RD4            set	68
   679     0086                     _TRISBbits      set	134
   680     0093                     _SSPADD         set	147
   681     0094                     _SSPSTAT        set	148
   682     0091                     _SSPCON2        set	145
   683     0088                     _TRISDbits      set	136
   684     0087                     _TRISCbits      set	135
   685     0088                     _TRISD          set	136
   686     0087                     _TRISC          set	135
   687     0086                     _TRISB          set	134
   688     0085                     _TRISA          set	133
   689     048C                     _ACKEN          set	1164
   690     048D                     _ACKDT          set	1165
   691     048B                     _RCEN           set	1163
   692     048A                     _PEN            set	1162
   693     0488                     _SEN            set	1160
   694     043C                     _TRISC4         set	1084
   695     043B                     _TRISC3         set	1083
   696     0189                     _ANSELH         set	393
   697     0188                     _ANSEL          set	392
   698                           
   699                           	psect	strings
   700     195F                     __pstrings:
   701     195F                     stringtab:
   702     195F                     __stringtab:
   703                           
   704                           ;	String table - string pointers are 2 bytes each
   705     195F  1BFF               	btfsc	btemp+1,7
   706     1960  2969               	ljmp	stringcode
   707     1961  1383               	bcf	3,7
   708     1962  187F               	btfsc	btemp+1,0
   709     1963  1783               	bsf	3,7
   710     1964  0800               	movf	0,w
   711     1965  0A84               	incf	4,f
   712     1966  1903               	skipnz
   713     1967  0AFF               	incf	btemp+1,f
   714     1968  0008               	return
   715     1969                     stringcode:
   716     1969  087F               	movf	btemp+1,w
   717     196A  397F               	andlw	127
   718     196B  008A               	movwf	10
   719     196C  0804               	movf	4,w
   720     196D  0A84               	incf	4,f
   721     196E  1903               	skipnz
   722     196F  0AFF               	incf	btemp+1,f
   723     1970  0082               	movwf	2
   724     1971                     __stringbase:
   725     1971                     __end_of__stringtab:
   726                           
   727                           	psect	stringtext
   728     1800                     __pstringtext:
   729     1800                     STR_9:
   730     1800  3425               	retlw	37	;'%'
   731     1801  3475               	retlw	117	;'u'
   732     1802  342C               	retlw	44	;','
   733     1803  3425               	retlw	37	;'%'
   734     1804  3430               	retlw	48	;'0'
   735     1805  3432               	retlw	50	;'2'
   736     1806  3475               	retlw	117	;'u'
   737     1807  342F               	retlw	47	;'/'
   738     1808  3425               	retlw	37	;'%'
   739     1809  3430               	retlw	48	;'0'
   740     180A  3432               	retlw	50	;'2'
   741     180B  3475               	retlw	117	;'u'
   742     180C  342F               	retlw	47	;'/'
   743     180D  3432               	retlw	50	;'2'
   744     180E  3430               	retlw	48	;'0'
   745     180F  3425               	retlw	37	;'%'
   746     1810  3430               	retlw	48	;'0'
   747     1811  3432               	retlw	50	;'2'
   748     1812  3475               	retlw	117	;'u'
   749     1813  342C               	retlw	44	;','
   750     1814  3425               	retlw	37	;'%'
   751     1815  3430               	retlw	48	;'0'
   752     1816  3432               	retlw	50	;'2'
   753     1817  3475               	retlw	117	;'u'
   754     1818  343A               	retlw	58	;':'
   755     1819  3425               	retlw	37	;'%'
   756     181A  3430               	retlw	48	;'0'
   757     181B  3432               	retlw	50	;'2'
   758     181C  3475               	retlw	117	;'u'
   759     181D  343A               	retlw	58	;':'
   760     181E  3425               	retlw	37	;'%'
   761     181F  3430               	retlw	48	;'0'
   762     1820  3432               	retlw	50	;'2'
   763     1821  3475               	retlw	117	;'u'
   764     1822  342C               	retlw	44	;','
   765     1823  3425               	retlw	37	;'%'
   766     1824  3464               	retlw	100	;'d'
   767     1825  342C               	retlw	44	;','
   768     1826  3425               	retlw	37	;'%'
   769     1827  3464               	retlw	100	;'d'
   770     1828  340D               	retlw	13
   771     1829  340A               	retlw	10
   772     182A  3400               	retlw	0
   773     182B                     STR_5:
   774     182B  3449               	retlw	73	;'I'
   775     182C  3444               	retlw	68	;'D'
   776     182D  342C               	retlw	44	;','
   777     182E  3446               	retlw	70	;'F'
   778     182F  3465               	retlw	101	;'e'
   779     1830  3463               	retlw	99	;'c'
   780     1831  3468               	retlw	104	;'h'
   781     1832  3461               	retlw	97	;'a'
   782     1833  342C               	retlw	44	;','
   783     1834  3448               	retlw	72	;'H'
   784     1835  346F               	retlw	111	;'o'
   785     1836  3472               	retlw	114	;'r'
   786     1837  3461               	retlw	97	;'a'
   787     1838  342C               	retlw	44	;','
   788     1839  3454               	retlw	84	;'T'
   789     183A  3465               	retlw	101	;'e'
   790     183B  346D               	retlw	109	;'m'
   791     183C  3470               	retlw	112	;'p'
   792     183D  3443               	retlw	67	;'C'
   793     183E  342C               	retlw	44	;','
   794     183F  3448               	retlw	72	;'H'
   795     1840  3475               	retlw	117	;'u'
   796     1841  346D               	retlw	109	;'m'
   797     1842  340D               	retlw	13
   798     1843  340A               	retlw	10
   799     1844  3400               	retlw	0
   800     1845                     STR_20:
   801     1845  3425               	retlw	37	;'%'
   802     1846  3430               	retlw	48	;'0'
   803     1847  3432               	retlw	50	;'2'
   804     1848  3475               	retlw	117	;'u'
   805     1849  343A               	retlw	58	;':'
   806     184A  3425               	retlw	37	;'%'
   807     184B  3430               	retlw	48	;'0'
   808     184C  3432               	retlw	50	;'2'
   809     184D  3475               	retlw	117	;'u'
   810     184E  3420               	retlw	32	;' '
   811     184F  3454               	retlw	84	;'T'
   812     1850  343A               	retlw	58	;':'
   813     1851  3425               	retlw	37	;'%'
   814     1852  3464               	retlw	100	;'d'
   815     1853  3420               	retlw	32	;' '
   816     1854  3448               	retlw	72	;'H'
   817     1855  343A               	retlw	58	;':'
   818     1856  3425               	retlw	37	;'%'
   819     1857  3464               	retlw	100	;'d'
   820     1858  3420               	retlw	32	;' '
   821     1859  3420               	retlw	32	;' '
   822     185A  3400               	retlw	0
   823     185B                     STR_10:
   824     185B  3420               	retlw	32	;' '
   825     185C  3420               	retlw	32	;' '
   826     185D  3420               	retlw	32	;' '
   827     185E  3425               	retlw	37	;'%'
   828     185F  3430               	retlw	48	;'0'
   829     1860  3432               	retlw	50	;'2'
   830     1861  3475               	retlw	117	;'u'
   831     1862  343A               	retlw	58	;':'
   832     1863  3425               	retlw	37	;'%'
   833     1864  3430               	retlw	48	;'0'
   834     1865  3432               	retlw	50	;'2'
   835     1866  3475               	retlw	117	;'u'
   836     1867  343A               	retlw	58	;':'
   837     1868  3425               	retlw	37	;'%'
   838     1869  3430               	retlw	48	;'0'
   839     186A  3432               	retlw	50	;'2'
   840     186B  3475               	retlw	117	;'u'
   841     186C  3420               	retlw	32	;' '
   842     186D  3420               	retlw	32	;' '
   843     186E  3420               	retlw	32	;' '
   844     186F  3400               	retlw	0
   845     1870                     STR_11:
   846     1870  3420               	retlw	32	;' '
   847     1871  3420               	retlw	32	;' '
   848     1872  3425               	retlw	37	;'%'
   849     1873  3430               	retlw	48	;'0'
   850     1874  3432               	retlw	50	;'2'
   851     1875  3475               	retlw	117	;'u'
   852     1876  342F               	retlw	47	;'/'
   853     1877  3425               	retlw	37	;'%'
   854     1878  3430               	retlw	48	;'0'
   855     1879  3432               	retlw	50	;'2'
   856     187A  3475               	retlw	117	;'u'
   857     187B  342F               	retlw	47	;'/'
   858     187C  3432               	retlw	50	;'2'
   859     187D  3430               	retlw	48	;'0'
   860     187E  3425               	retlw	37	;'%'
   861     187F  3430               	retlw	48	;'0'
   862     1880  3432               	retlw	50	;'2'
   863     1881  3475               	retlw	117	;'u'
   864     1882  3420               	retlw	32	;' '
   865     1883  3420               	retlw	32	;' '
   866     1884  3400               	retlw	0
   867     1885                     STR_15:
   868     1885  3446               	retlw	70	;'F'
   869     1886  3469               	retlw	105	;'i'
   870     1887  346E               	retlw	110	;'n'
   871     1888  3461               	retlw	97	;'a'
   872     1889  346C               	retlw	108	;'l'
   873     188A  3469               	retlw	105	;'i'
   874     188B  347A               	retlw	122	;'z'
   875     188C  3461               	retlw	97	;'a'
   876     188D  3464               	retlw	100	;'d'
   877     188E  346F               	retlw	111	;'o'
   878     188F  3420               	retlw	32	;' '
   879     1890  3420               	retlw	32	;' '
   880     1891  3420               	retlw	32	;' '
   881     1892  3420               	retlw	32	;' '
   882     1893  3420               	retlw	32	;' '
   883     1894  3420               	retlw	32	;' '
   884     1895  3400               	retlw	0
   885     1896                     STR_14:
   886     1896  3453               	retlw	83	;'S'
   887     1897  3444               	retlw	68	;'D'
   888     1898  3420               	retlw	32	;' '
   889     1899  3452               	retlw	82	;'R'
   890     189A  3445               	retlw	69	;'E'
   891     189B  3454               	retlw	84	;'T'
   892     189C  3449               	retlw	73	;'I'
   893     189D  3452               	retlw	82	;'R'
   894     189E  3441               	retlw	65	;'A'
   895     189F  3444               	retlw	68	;'D'
   896     18A0  3441               	retlw	65	;'A'
   897     18A1  3420               	retlw	32	;' '
   898     18A2  3420               	retlw	32	;' '
   899     18A3  3420               	retlw	32	;' '
   900     18A4  3420               	retlw	32	;' '
   901     18A5  3420               	retlw	32	;' '
   902     18A6  3400               	retlw	0
   903     18A7                     STR_13:
   904     18A7  3454               	retlw	84	;'T'
   905     18A8  343A               	retlw	58	;':'
   906     18A9  3425               	retlw	37	;'%'
   907     18AA  3464               	retlw	100	;'d'
   908     18AB  3443               	retlw	67	;'C'
   909     18AC  3420               	retlw	32	;' '
   910     18AD  3420               	retlw	32	;' '
   911     18AE  3448               	retlw	72	;'H'
   912     18AF  343A               	retlw	58	;':'
   913     18B0  3425               	retlw	37	;'%'
   914     18B1  3464               	retlw	100	;'d'
   915     18B2  3425               	retlw	37	;'%'
   916     18B3  3425               	retlw	37	;'%'
   917     18B4  3420               	retlw	32	;' '
   918     18B5  3420               	retlw	32	;' '
   919     18B6  3420               	retlw	32	;' '
   920     18B7  3400               	retlw	0
   921     18B8                     STR_1:
   922     18B8  3453               	retlw	83	;'S'
   923     18B9  3469               	retlw	105	;'i'
   924     18BA  3473               	retlw	115	;'s'
   925     18BB  3474               	retlw	116	;'t'
   926     18BC  3465               	retlw	101	;'e'
   927     18BD  346D               	retlw	109	;'m'
   928     18BE  3461               	retlw	97	;'a'
   929     18BF  3420               	retlw	32	;' '
   930     18C0  3450               	retlw	80	;'P'
   931     18C1  3472               	retlw	114	;'r'
   932     18C2  346F               	retlw	111	;'o'
   933     18C3  346E               	retlw	110	;'n'
   934     18C4  346F               	retlw	111	;'o'
   935     18C5  3473               	retlw	115	;'s'
   936     18C6  3474               	retlw	116	;'t'
   937     18C7  342E               	retlw	46	;'.'
   938     18C8  3400               	retlw	0
   939     18C9                     STR_19:
   940     18C9  3446               	retlw	70	;'F'
   941     18CA  3449               	retlw	73	;'I'
   942     18CB  344E               	retlw	78	;'N'
   943     18CC  3420               	retlw	32	;' '
   944     18CD  3420               	retlw	32	;' '
   945     18CE  3420               	retlw	32	;' '
   946     18CF  3420               	retlw	32	;' '
   947     18D0  3420               	retlw	32	;' '
   948     18D1  3420               	retlw	32	;' '
   949     18D2  3420               	retlw	32	;' '
   950     18D3  3420               	retlw	32	;' '
   951     18D4  3420               	retlw	32	;' '
   952     18D5  3420               	retlw	32	;' '
   953     18D6  3420               	retlw	32	;' '
   954     18D7  3420               	retlw	32	;' '
   955     18D8  3400               	retlw	0
   956     18D9                     STR_17:
   957     18D9  3450               	retlw	80	;'P'
   958     18DA  3472               	retlw	114	;'r'
   959     18DB  346F               	retlw	111	;'o'
   960     18DC  3478               	retlw	120	;'x'
   961     18DD  343A               	retlw	58	;':'
   962     18DE  3425               	retlw	37	;'%'
   963     18DF  3475               	retlw	117	;'u'
   964     18E0  346D               	retlw	109	;'m'
   965     18E1  3469               	retlw	105	;'i'
   966     18E2  346E               	retlw	110	;'n'
   967     18E3  3420               	retlw	32	;' '
   968     18E4  3420               	retlw	32	;' '
   969     18E5  3420               	retlw	32	;' '
   970     18E6  3420               	retlw	32	;' '
   971     18E7  3420               	retlw	32	;' '
   972     18E8  3400               	retlw	0
   973     18E9                     STR_16:
   974     18E9  3420               	retlw	32	;' '
   975     18EA  3420               	retlw	32	;' '
   976     18EB  3420               	retlw	32	;' '
   977     18EC  3447               	retlw	71	;'G'
   978     18ED  3455               	retlw	85	;'U'
   979     18EE  3441               	retlw	65	;'A'
   980     18EF  3452               	retlw	82	;'R'
   981     18F0  3444               	retlw	68	;'D'
   982     18F1  3441               	retlw	65	;'A'
   983     18F2  3444               	retlw	68	;'D'
   984     18F3  344F               	retlw	79	;'O'
   985     18F4  3421               	retlw	33	;'!'
   986     18F5  3420               	retlw	32	;' '
   987     18F6  3420               	retlw	32	;' '
   988     18F7  3420               	retlw	32	;' '
   989     18F8  3400               	retlw	0
   990     18F9                     STR_12:
   991     18F9  3454               	retlw	84	;'T'
   992     18FA  343A               	retlw	58	;':'
   993     18FB  342D               	retlw	45	;'-'
   994     18FC  342D               	retlw	45	;'-'
   995     18FD  3443               	retlw	67	;'C'
   996     18FE  3420               	retlw	32	;' '
   997     18FF  3420               	retlw	32	;' '
   998     1900  3448               	retlw	72	;'H'
   999     1901  343A               	retlw	58	;':'
  1000     1902  342D               	retlw	45	;'-'
  1001     1903  342D               	retlw	45	;'-'
  1002     1904  3425               	retlw	37	;'%'
  1003     1905  3420               	retlw	32	;' '
  1004     1906  3420               	retlw	32	;' '
  1005     1907  3420               	retlw	32	;' '
  1006     1908  3400               	retlw	0
  1007     1909                     STR_3:
  1008     1909  3449               	retlw	73	;'I'
  1009     190A  346E               	retlw	110	;'n'
  1010     190B  3469               	retlw	105	;'i'
  1011     190C  3463               	retlw	99	;'c'
  1012     190D  3469               	retlw	105	;'i'
  1013     190E  3461               	retlw	97	;'a'
  1014     190F  346E               	retlw	110	;'n'
  1015     1910  3464               	retlw	100	;'d'
  1016     1911  346F               	retlw	111	;'o'
  1017     1912  3420               	retlw	32	;' '
  1018     1913  3453               	retlw	83	;'S'
  1019     1914  3444               	retlw	68	;'D'
  1020     1915  342E               	retlw	46	;'.'
  1021     1916  342E               	retlw	46	;'.'
  1022     1917  342E               	retlw	46	;'.'
  1023     1918  3400               	retlw	0
  1024     1919                     STR_18:
  1025     1919  3452               	retlw	82	;'R'
  1026     191A  3465               	retlw	101	;'e'
  1027     191B  3467               	retlw	103	;'g'
  1028     191C  343A               	retlw	58	;':'
  1029     191D  3425               	retlw	37	;'%'
  1030     191E  3475               	retlw	117	;'u'
  1031     191F  342F               	retlw	47	;'/'
  1032     1920  3437               	retlw	55	;'7'
  1033     1921  3432               	retlw	50	;'2'
  1034     1922  3420               	retlw	32	;' '
  1035     1923  3420               	retlw	32	;' '
  1036     1924  3420               	retlw	32	;' '
  1037     1925  3420               	retlw	32	;' '
  1038     1926  3420               	retlw	32	;' '
  1039     1927  3400               	retlw	0
  1040     1928                     STR_2:
  1041     1928  344D               	retlw	77	;'M'
  1042     1929  3465               	retlw	101	;'e'
  1043     192A  3474               	retlw	116	;'t'
  1044     192B  3465               	retlw	101	;'e'
  1045     192C  346F               	retlw	111	;'o'
  1046     192D  3472               	retlw	114	;'r'
  1047     192E  346F               	retlw	111	;'o'
  1048     192F  346C               	retlw	108	;'l'
  1049     1930  346F               	retlw	111	;'o'
  1050     1931  3467               	retlw	103	;'g'
  1051     1932  3469               	retlw	105	;'i'
  1052     1933  3463               	retlw	99	;'c'
  1053     1934  346F               	retlw	111	;'o'
  1054     1935  3400               	retlw	0
  1055     1936                     STR_7:
  1056     1936  3436               	retlw	54	;'6'
  1057     1937  3468               	retlw	104	;'h'
  1058     1938  3420               	retlw	32	;' '
  1059     1939  3443               	retlw	67	;'C'
  1060     193A  344F               	retlw	79	;'O'
  1061     193B  344D               	retlw	77	;'M'
  1062     193C  3450               	retlw	80	;'P'
  1063     193D  344C               	retlw	76	;'L'
  1064     193E  3445               	retlw	69	;'E'
  1065     193F  3454               	retlw	84	;'T'
  1066     1940  3441               	retlw	65	;'A'
  1067     1941  3453               	retlw	83	;'S'
  1068     1942  3400               	retlw	0
  1069     1943                     STR_8:
  1070     1943  3446               	retlw	70	;'F'
  1071     1944  3469               	retlw	105	;'i'
  1072     1945  346E               	retlw	110	;'n'
  1073     1946  3461               	retlw	97	;'a'
  1074     1947  346C               	retlw	108	;'l'
  1075     1948  3469               	retlw	105	;'i'
  1076     1949  347A               	retlw	122	;'z'
  1077     194A  3461               	retlw	97	;'a'
  1078     194B  3464               	retlw	100	;'d'
  1079     194C  346F               	retlw	111	;'o'
  1080     194D  3400               	retlw	0
  1081     194E                     STR_6:
  1082     194E  3445               	retlw	69	;'E'
  1083     194F  3452               	retlw	82	;'R'
  1084     1950  3452               	retlw	82	;'R'
  1085     1951  344F               	retlw	79	;'O'
  1086     1952  3452               	retlw	82	;'R'
  1087     1953  343A               	retlw	58	;':'
  1088     1954  3420               	retlw	32	;' '
  1089     1955  3453               	retlw	83	;'S'
  1090     1956  3444               	retlw	68	;'D'
  1091     1957  3400               	retlw	0
  1092     1958                     STR_4:
  1093     1958  3453               	retlw	83	;'S'
  1094     1959  3444               	retlw	68	;'D'
  1095     195A  3420               	retlw	32	;' '
  1096     195B  344F               	retlw	79	;'O'
  1097     195C  344B               	retlw	75	;'K'
  1098     195D  3421               	retlw	33	;'!'
  1099     195E  3400               	retlw	0
  1100                           
  1101                           	psect	cinit
  1102     07D0                     start_initialization:	
  1103                           ; #config settings
  1104                           
  1105     07D0                     __initialization:
  1106                           
  1107                           ; Initialize objects allocated to BANK3
  1108     07D0  1683               	bsf	3,5	;RP0=1, select bank3
  1109     07D1  1703               	bsf	3,6	;RP1=1, select bank3
  1110     07D2  120A  158A  2002  120A  118A  	fcall	__pidataBANK3	;fetch initializer
  1111     07D7  00DF               	movwf	__pdataBANK3& (0+127)
  1112     07D8  120A  158A  2003  120A  118A  	fcall	__pidataBANK3+1	;fetch initializer
  1113     07DD  00E0               	movwf	(__pdataBANK3+1)& (0+127)
  1114     07DE  120A  158A  2004  120A  118A  	fcall	__pidataBANK3+2	;fetch initializer
  1115     07E3  00E1               	movwf	(__pdataBANK3+2)& (0+127)
  1116     07E4  120A  158A  2005  120A  118A  	fcall	__pidataBANK3+3	;fetch initializer
  1117     07E9  00E2               	movwf	(__pdataBANK3+3)& (0+127)
  1118                           
  1119                           ; Clear objects allocated to BANK3
  1120     07EA  1783               	bsf	3,7	;select IRP bank2
  1121     07EB  30BF               	movlw	low __pbssBANK3
  1122     07EC  0084               	movwf	4
  1123     07ED  30DF               	movlw	low (__pbssBANK3+32)
  1124     07EE  160A  158A  231D  120A  118A  	fcall	clear_ram0
  1125                           
  1126                           ; Clear objects allocated to BANK0
  1127     07F3  1283               	bcf	3,5	;RP0=0, select bank0
  1128     07F4  1303               	bcf	3,6	;RP1=0, select bank0
  1129     07F5  01E9               	clrf	__pbssBANK0& (0+127)
  1130     07F6  01EA               	clrf	(__pbssBANK0+1)& (0+127)
  1131     07F7  01EB               	clrf	(__pbssBANK0+2)& (0+127)
  1132     07F8  01EC               	clrf	(__pbssBANK0+3)& (0+127)
  1133     07F9  01ED               	clrf	(__pbssBANK0+4)& (0+127)
  1134     07FA  01EE               	clrf	(__pbssBANK0+5)& (0+127)
  1135     07FB  01EF               	clrf	(__pbssBANK0+6)& (0+127)
  1136     07FC                     end_of_initialization:	
  1137                           ;End of C runtime variable initialization code
  1138                           
  1139     07FC                     __end_of__initialization:
  1140     07FC  0183               	clrf	3
  1141     07FD  120A  118A  2989   	ljmp	_main	;jump to C main() function
  1142                           
  1143                           	psect	bssBANK0
  1144     0069                     __pbssBANK0:
  1145     0069                     _width:
  1146     0069                     	ds	2
  1147     006B                     _prec:
  1148     006B                     	ds	2
  1149     006D                     _current_offset:
  1150     006D                     	ds	2
  1151     006F                     _flags:
  1152     006F                     	ds	1
  1153                           
  1154                           	psect	bssBANK3
  1155     01BF                     __pbssBANK3:
  1156     01BF                     _dbuf:
  1157     01BF                     	ds	32
  1158                           
  1159                           	psect	dataBANK3
  1160     01DF                     __pdataBANK3:
  1161     01DF                     _current_sector:
  1162     01DF                     	ds	4
  1163                           
  1164                           	psect	clrtext
  1165     1B1D                     clear_ram0:	
  1166                           ;	Called with FSR containing the base address, and
  1167                           ;	W with the last address+1
  1168                           
  1169     1B1D  0064               	clrwdt	;clear the watchdog before getting into this loop
  1170     1B1E                     clrloop0:
  1171     1B1E  0180               	clrf	0	;clear RAM location pointed to by FSR
  1172     1B1F  0A84               	incf	4,f	;increment pointer
  1173     1B20  0604               	xorwf	4,w	;XOR with final address
  1174     1B21  1903               	btfsc	3,2	;have we reached the end yet?
  1175     1B22  3400               	retlw	0	;all done for this memory range, return
  1176     1B23  0604               	xorwf	4,w	;XOR again to restore value
  1177     1B24  2B1E               	goto	clrloop0	;do the next byte
  1178                           
  1179                           	psect	cstackBANK3
  1180     0190                     __pcstackBANK3:
  1181     0190                     main@buf:
  1182                           
  1183                           ; 17 bytes @ 0x0
  1184     0190                     	ds	17
  1185     01A1                     main@sd_removed:
  1186                           
  1187                           ; 1 bytes @ 0x11
  1188     01A1                     	ds	1
  1189     01A2                     main@reg:
  1190                           
  1191                           ; 2 bytes @ 0x12
  1192     01A2                     	ds	2
  1193     01A4                     main@diff:
  1194                           
  1195                           ; 2 bytes @ 0x14
  1196     01A4                     	ds	2
  1197     01A6                     main@d2:
  1198                           
  1199                           ; 2 bytes @ 0x16
  1200     01A6                     	ds	2
  1201     01A8                     main@min_inicio:
  1202                           
  1203                           ; 1 bytes @ 0x18
  1204     01A8                     	ds	1
  1205     01A9                     main@iniciado:
  1206                           
  1207                           ; 1 bytes @ 0x19
  1208     01A9                     	ds	1
  1209     01AA                     main@tf:
  1210                           
  1211                           ; 4 bytes @ 0x1A
  1212     01AA                     	ds	4
  1213     01AE                     main@first:
  1214                           
  1215                           ; 1 bytes @ 0x1E
  1216     01AE                     	ds	1
  1217     01AF                     main@saved:
  1218                           
  1219                           ; 1 bytes @ 0x1F
  1220     01AF                     	ds	1
  1221     01B0                     main@ultimo_min:
  1222                           
  1223                           ; 1 bytes @ 0x20
  1224     01B0                     	ds	1
  1225     01B1                     main@min_rest:
  1226                           
  1227                           ; 1 bytes @ 0x21
  1228     01B1                     	ds	1
  1229     01B2                     main@T:
  1230                           
  1231                           ; 2 bytes @ 0x22
  1232     01B2                     	ds	2
  1233     01B4                     main@H:
  1234                           
  1235                           ; 2 bytes @ 0x24
  1236     01B4                     	ds	2
  1237     01B6                     main@h_inicio:
  1238                           
  1239                           ; 1 bytes @ 0x26
  1240     01B6                     	ds	1
  1241     01B7                     main@s:
  1242                           
  1243                           ; 1 bytes @ 0x27
  1244     01B7                     	ds	1
  1245     01B8                     main@d:
  1246                           
  1247                           ; 1 bytes @ 0x28
  1248     01B8                     	ds	1
  1249     01B9                     main@mo:
  1250                           
  1251                           ; 1 bytes @ 0x29
  1252     01B9                     	ds	1
  1253     01BA                     main@y:
  1254                           
  1255                           ; 1 bytes @ 0x2A
  1256     01BA                     	ds	1
  1257     01BB                     main@screen:
  1258                           
  1259                           ; 1 bytes @ 0x2B
  1260     01BB                     	ds	1
  1261     01BC                     main@sd_ok:
  1262                           
  1263                           ; 1 bytes @ 0x2C
  1264     01BC                     	ds	1
  1265     01BD                     main@h:
  1266                           
  1267                           ; 1 bytes @ 0x2D
  1268     01BD                     	ds	1
  1269     01BE                     main@m:
  1270                           
  1271                           ; 1 bytes @ 0x2E
  1272     01BE                     	ds	1
  1273                           
  1274                           	psect	cstackBANK1
  1275     00A0                     __pcstackBANK1:
  1276     00A0                     ??_sprintf:
  1277                           
  1278                           ; 1 bytes @ 0x0
  1279     00A0                     	ds	3
  1280     00A3                     sprintf@ap:
  1281                           
  1282                           ; 1 bytes @ 0x3
  1283     00A3                     	ds	1
  1284     00A4                     sprintf@f:
  1285                           
  1286                           ; 11 bytes @ 0x4
  1287     00A4                     	ds	11
  1288     00AF                     ??_main:
  1289                           
  1290                           ; 1 bytes @ 0xF
  1291     00AF                     	ds	12
  1292     00BB                     main@line:
  1293                           
  1294                           ; 45 bytes @ 0x1B
  1295     00BB                     	ds	45
  1296     00E8                     main@min_total:
  1297                           
  1298                           ; 2 bytes @ 0x48
  1299     00E8                     	ds	2
  1300     00EA                     main@dhtCnt:
  1301                           
  1302                           ; 1 bytes @ 0x4A
  1303     00EA                     	ds	1
  1304     00EB                     main@timer:
  1305                           
  1306                           ; 1 bytes @ 0x4B
  1307     00EB                     	ds	1
  1308     00EC                     main@hf:
  1309                           
  1310                           ; 4 bytes @ 0x4C
  1311     00EC                     	ds	4
  1312                           
  1313                           	psect	cstackCOMMON
  1314     0070                     __pcstackCOMMON:
  1315     0070                     ?_LCD_init:
  1316     0070                     ?_I2C_init:	
  1317                           ; 1 bytes @ 0x0
  1318                           
  1319     0070                     ?_DS1307_startOscillator:	
  1320                           ; 1 bytes @ 0x0
  1321                           
  1322     0070                     ?_DHT22_init:	
  1323                           ; 1 bytes @ 0x0
  1324                           
  1325     0070                     ?_LCD_cmd:	
  1326                           ; 1 bytes @ 0x0
  1327                           
  1328     0070                     ?_LCD_goto:	
  1329                           ; 1 bytes @ 0x0
  1330                           
  1331     0070                     ?_SD_Init:	
  1332                           ; 1 bytes @ 0x0
  1333                           
  1334     0070                     ?_putch:	
  1335                           ; 1 bytes @ 0x0
  1336                           
  1337     0070                     ?_main:	
  1338                           ; 1 bytes @ 0x0
  1339                           
  1340     0070                     ?_LCD_nibble:	
  1341                           ; 1 bytes @ 0x0
  1342                           
  1343     0070                     ?_LCD_data:	
  1344                           ; 1 bytes @ 0x0
  1345                           
  1346     0070                     ?_I2C_wait:	
  1347                           ; 1 bytes @ 0x0
  1348                           
  1349     0070                     ?_I2C_start:	
  1350                           ; 1 bytes @ 0x0
  1351                           
  1352     0070                     ?_I2C_stop:	
  1353                           ; 1 bytes @ 0x0
  1354                           
  1355     0070                     ?_I2C_write:	
  1356                           ; 1 bytes @ 0x0
  1357                           
  1358     0070                     ?_I2C_read:	
  1359                           ; 1 bytes @ 0x0
  1360                           
  1361     0070                     ?_BCD_to_dec:	
  1362                           ; 1 bytes @ 0x0
  1363                           
  1364     0070                     ?_SD_SPI_Init:	
  1365                           ; 1 bytes @ 0x0
  1366                           
  1367     0070                     ?_SD_SPI_Transfer:	
  1368                           ; 1 bytes @ 0x0
  1369                           
  1370     0070                     ?___bmul:	
  1371                           ; 1 bytes @ 0x0
  1372                           
  1373     0070                     ?_strlen:	
  1374                           ; 1 bytes @ 0x0
  1375                           
  1376     0070                     ?__Umul8_16:	
  1377                           ; 2 bytes @ 0x0
  1378                           
  1379     0070                     ?_fputc:	
  1380                           ; 2 bytes @ 0x0
  1381                           
  1382     0070                     ?___wmul:	
  1383                           ; 2 bytes @ 0x0
  1384                           
  1385     0070                     ?___awdiv:	
  1386                           ; 2 bytes @ 0x0
  1387                           
  1388     0070                     ?___awmod:	
  1389                           ; 2 bytes @ 0x0
  1390                           
  1391     0070                     ?___lwdiv:	
  1392                           ; 2 bytes @ 0x0
  1393                           
  1394     0070                     ?___lwmod:	
  1395                           ; 2 bytes @ 0x0
  1396                           
  1397     0070                     ?___fladd:	
  1398                           ; 2 bytes @ 0x0
  1399                           
  1400     0070                     ?___xxtofl:	
  1401                           ; 4 bytes @ 0x0
  1402                           
  1403     0070                     I2C_write@d:	
  1404                           ; 4 bytes @ 0x0
  1405                           
  1406     0070                     I2C_read@ack:	
  1407                           ; 1 bytes @ 0x0
  1408                           
  1409     0070                     ___bmul@multiplicand:	
  1410                           ; 1 bytes @ 0x0
  1411                           
  1412     0070                     __Umul8_16@multiplicand:	
  1413                           ; 1 bytes @ 0x0
  1414                           
  1415     0070                     putch@c:	
  1416                           ; 1 bytes @ 0x0
  1417                           
  1418     0070                     ___wmul@multiplier:	
  1419                           ; 1 bytes @ 0x0
  1420                           
  1421     0070                     ___awdiv@divisor:	
  1422                           ; 2 bytes @ 0x0
  1423                           
  1424     0070                     ___awmod@divisor:	
  1425                           ; 2 bytes @ 0x0
  1426                           
  1427     0070                     ___lwdiv@divisor:	
  1428                           ; 2 bytes @ 0x0
  1429                           
  1430     0070                     ___lwmod@divisor:	
  1431                           ; 2 bytes @ 0x0
  1432                           
  1433     0070                     fputc@c:	
  1434                           ; 2 bytes @ 0x0
  1435                           
  1436     0070                     strlen@s:	
  1437                           ; 2 bytes @ 0x0
  1438                           
  1439     0070                     ___fladd@b:	
  1440                           ; 2 bytes @ 0x0
  1441                           
  1442     0070                     ___xxtofl@val:	
  1443                           ; 4 bytes @ 0x0
  1444                           
  1445     0070                     ??_I2C_init:	
  1446                           ; 4 bytes @ 0x0
  1447                           
  1448     0070                     ??_DHT22_init:	
  1449                           ; 1 bytes @ 0x0
  1450                           
  1451     0070                     ??_putch:	
  1452                           ; 1 bytes @ 0x0
  1453                           
  1454     0070                     ??_LCD_nibble:	
  1455                           ; 1 bytes @ 0x0
  1456                           
  1457     0070                     ??_I2C_wait:	
  1458                           ; 1 bytes @ 0x0
  1459                           
  1460     0070                     ??_I2C_start:	
  1461                           ; 1 bytes @ 0x0
  1462                           
  1463     0070                     ??_I2C_stop:	
  1464                           ; 1 bytes @ 0x0
  1465                           
  1466     0070                     ??_I2C_write:	
  1467                           ; 1 bytes @ 0x0
  1468                           
  1469     0070                     ??_I2C_read:	
  1470                           ; 1 bytes @ 0x0
  1471                           
  1472     0070                     ??_SD_SPI_Init:	
  1473                           ; 1 bytes @ 0x0
  1474                           
  1475     0070                     ??_SD_SPI_Transfer:	
  1476                           ; 1 bytes @ 0x0
  1477                           
  1478                           
  1479                           ; 1 bytes @ 0x0
  1480     0070                     	ds	1
  1481     0071                     LCD_nibble@nib:
  1482     0071                     I2C_read@data:	
  1483                           ; 1 bytes @ 0x1
  1484                           
  1485     0071                     ___bmul@product:	
  1486                           ; 1 bytes @ 0x1
  1487                           
  1488     0071                     ??___bmul:	
  1489                           ; 1 bytes @ 0x1
  1490                           
  1491                           
  1492                           ; 1 bytes @ 0x1
  1493     0071                     	ds	1
  1494     0072                     DS1307_startOscillator@sec:
  1495     0072                     SD_SPI_Transfer@data:	
  1496                           ; 1 bytes @ 0x2
  1497                           
  1498     0072                     ___bmul@multiplier:	
  1499                           ; 1 bytes @ 0x2
  1500                           
  1501     0072                     ___wmul@multiplicand:	
  1502                           ; 1 bytes @ 0x2
  1503                           
  1504     0072                     ___awdiv@dividend:	
  1505                           ; 2 bytes @ 0x2
  1506                           
  1507     0072                     ___awmod@dividend:	
  1508                           ; 2 bytes @ 0x2
  1509                           
  1510     0072                     ___lwdiv@dividend:	
  1511                           ; 2 bytes @ 0x2
  1512                           
  1513     0072                     ___lwmod@dividend:	
  1514                           ; 2 bytes @ 0x2
  1515                           
  1516     0072                     fputc@fp:	
  1517                           ; 2 bytes @ 0x2
  1518                           
  1519     0072                     strlen@a:	
  1520                           ; 2 bytes @ 0x2
  1521                           
  1522     0072                     ??_DS1307_startOscillator:	
  1523                           ; 2 bytes @ 0x2
  1524                           
  1525     0072                     ??_LCD_cmd:	
  1526                           ; 1 bytes @ 0x2
  1527                           
  1528     0072                     ??_strlen:	
  1529                           ; 1 bytes @ 0x2
  1530                           
  1531     0072                     ??__Umul8_16:	
  1532                           ; 1 bytes @ 0x2
  1533                           
  1534     0072                     ??_LCD_data:	
  1535                           ; 1 bytes @ 0x2
  1536                           
  1537                           
  1538                           ; 1 bytes @ 0x2
  1539     0072                     	ds	1
  1540     0073                     SD_SPI_Transfer@result:
  1541     0073                     ??_BCD_to_dec:	
  1542                           ; 1 bytes @ 0x3
  1543                           
  1544                           
  1545                           ; 1 bytes @ 0x3
  1546     0073                     	ds	1
  1547     0074                     LCD_cmd@cmd:
  1548     0074                     LCD_data@data:	
  1549                           ; 1 bytes @ 0x4
  1550                           
  1551     0074                     SD_SPI_Transfer@i:	
  1552                           ; 1 bytes @ 0x4
  1553                           
  1554     0074                     ___awdiv@counter:	
  1555                           ; 1 bytes @ 0x4
  1556                           
  1557     0074                     ___awmod@counter:	
  1558                           ; 1 bytes @ 0x4
  1559                           
  1560     0074                     ___lwdiv@counter:	
  1561                           ; 1 bytes @ 0x4
  1562                           
  1563     0074                     ___lwmod@counter:	
  1564                           ; 1 bytes @ 0x4
  1565                           
  1566     0074                     ___wmul@product:	
  1567                           ; 1 bytes @ 0x4
  1568                           
  1569     0074                     __Umul8_16@product:	
  1570                           ; 2 bytes @ 0x4
  1571                           
  1572     0074                     ___fladd@a:	
  1573                           ; 2 bytes @ 0x4
  1574                           
  1575     0074                     ??_fputc:	
  1576                           ; 4 bytes @ 0x4
  1577                           
  1578     0074                     ??___wmul:	
  1579                           ; 1 bytes @ 0x4
  1580                           
  1581     0074                     ??___awdiv:	
  1582                           ; 1 bytes @ 0x4
  1583                           
  1584     0074                     ??___awmod:	
  1585                           ; 1 bytes @ 0x4
  1586                           
  1587     0074                     ??___lwdiv:	
  1588                           ; 1 bytes @ 0x4
  1589                           
  1590     0074                     ??___lwmod:	
  1591                           ; 1 bytes @ 0x4
  1592                           
  1593     0074                     ??___xxtofl:	
  1594                           ; 1 bytes @ 0x4
  1595                           
  1596                           
  1597                           ; 1 bytes @ 0x4
  1598     0074                     	ds	1
  1599     0075                     ?_LCD_print:
  1600     0075                     ?_SD_Cmd:	
  1601                           ; 1 bytes @ 0x5
  1602                           
  1603     0075                     LCD_goto@pos:	
  1604                           ; 1 bytes @ 0x5
  1605                           
  1606     0075                     BCD_to_dec@bcd:	
  1607                           ; 1 bytes @ 0x5
  1608                           
  1609     0075                     ___awdiv@sign:	
  1610                           ; 1 bytes @ 0x5
  1611                           
  1612     0075                     ___awmod@sign:	
  1613                           ; 1 bytes @ 0x5
  1614                           
  1615     0075                     LCD_print@s:	
  1616                           ; 1 bytes @ 0x5
  1617                           
  1618     0075                     ___lwdiv@quotient:	
  1619                           ; 2 bytes @ 0x5
  1620                           
  1621     0075                     SD_Cmd@arg:	
  1622                           ; 2 bytes @ 0x5
  1623                           
  1624     0075                     ??_LCD_init:	
  1625                           ; 4 bytes @ 0x5
  1626                           
  1627     0075                     ??_LCD_goto:	
  1628                           ; 1 bytes @ 0x5
  1629                           
  1630                           
  1631                           ; 1 bytes @ 0x5
  1632     0075                     	ds	1
  1633     0076                     ?_DS1307_getTime:
  1634     0076                     ?_DS1307_getDate:	
  1635                           ; 1 bytes @ 0x6
  1636                           
  1637     0076                     ?_abs:	
  1638                           ; 1 bytes @ 0x6
  1639                           
  1640     0076                     ?_read_prec_or_width:	
  1641                           ; 2 bytes @ 0x6
  1642                           
  1643     0076                     DS1307_getTime@h:	
  1644                           ; 2 bytes @ 0x6
  1645                           
  1646     0076                     DS1307_getDate@d:	
  1647                           ; 1 bytes @ 0x6
  1648                           
  1649     0076                     read_prec_or_width@fmt:	
  1650                           ; 1 bytes @ 0x6
  1651                           
  1652     0076                     ___awdiv@quotient:	
  1653                           ; 1 bytes @ 0x6
  1654                           
  1655     0076                     __Umul8_16@word_mpld:	
  1656                           ; 2 bytes @ 0x6
  1657                           
  1658     0076                     abs@a:	
  1659                           ; 2 bytes @ 0x6
  1660                           
  1661                           
  1662                           ; 2 bytes @ 0x6
  1663     0076                     	ds	1
  1664     0077                     DS1307_getTime@m:
  1665     0077                     DS1307_getDate@mo:	
  1666                           ; 1 bytes @ 0x7
  1667                           
  1668     0077                     read_prec_or_width@ap:	
  1669                           ; 1 bytes @ 0x7
  1670                           
  1671     0077                     ??_LCD_print:	
  1672                           ; 1 bytes @ 0x7
  1673                           
  1674                           
  1675                           ; 1 bytes @ 0x7
  1676     0077                     	ds	1
  1677     0078                     DS1307_getTime@s:
  1678     0078                     DS1307_getDate@y:	
  1679                           ; 1 bytes @ 0x8
  1680                           
  1681     0078                     ___fladd@signs:	
  1682                           ; 1 bytes @ 0x8
  1683                           
  1684     0078                     __Umul8_16@multiplier:	
  1685                           ; 1 bytes @ 0x8
  1686                           
  1687     0078                     ___xxtofl@sign:	
  1688                           ; 1 bytes @ 0x8
  1689                           
  1690     0078                     ??_abs:	
  1691                           ; 1 bytes @ 0x8
  1692                           
  1693     0078                     ??_read_prec_or_width:	
  1694                           ; 1 bytes @ 0x8
  1695                           
  1696                           
  1697                           ; 1 bytes @ 0x8
  1698     0078                     	ds	1
  1699     0079                     ___fladd@aexp:
  1700     0079                     ___xxtofl@exp:	
  1701                           ; 1 bytes @ 0x9
  1702                           
  1703     0079                     ??_DS1307_getTime:	
  1704                           ; 1 bytes @ 0x9
  1705                           
  1706     0079                     ??_DS1307_getDate:	
  1707                           ; 1 bytes @ 0x9
  1708                           
  1709     0079                     ??_SD_Cmd:	
  1710                           ; 1 bytes @ 0x9
  1711                           
  1712                           
  1713                           ; 1 bytes @ 0x9
  1714     0079                     	ds	1
  1715     007A                     ___fladd@bexp:
  1716     007A                     read_prec_or_width@c:	
  1717                           ; 1 bytes @ 0xA
  1718                           
  1719     007A                     ___xxtofl@arg:	
  1720                           ; 1 bytes @ 0xA
  1721                           
  1722                           
  1723                           ; 4 bytes @ 0xA
  1724     007A                     	ds	1
  1725     007B                     ___fladd@grs:
  1726     007B                     read_prec_or_width@n:	
  1727                           ; 1 bytes @ 0xB
  1728                           
  1729                           
  1730                           ; 2 bytes @ 0xB
  1731     007B                     	ds	1
  1732     007C                     ___fltol@sign1:
  1733                           
  1734                           ; 1 bytes @ 0xC
  1735     007C                     	ds	1
  1736     007D                     ___fltol@exp1:
  1737     007D                     ??_pad:	
  1738                           ; 1 bytes @ 0xD
  1739                           
  1740                           
  1741                           ; 1 bytes @ 0xD
  1742     007D                     	ds	1
  1743     007E                     ??_vfprintf:
  1744     007E                     ??_dtoa:	
  1745                           ; 1 bytes @ 0xE
  1746                           
  1747     007E                     ??_utoa:	
  1748                           ; 1 bytes @ 0xE
  1749                           
  1750                           
  1751                           	psect	cstackBANK0
  1752     0020                     __pcstackBANK0:	
  1753                           ; 1 bytes @ 0xE
  1754                           
  1755     0020                     ?_fputs:
  1756     0020                     ?___fldiv:	
  1757                           ; 2 bytes @ 0x0
  1758                           
  1759     0020                     SD_Cmd@crc:	
  1760                           ; 4 bytes @ 0x0
  1761                           
  1762     0020                     fputs@s:	
  1763                           ; 1 bytes @ 0x0
  1764                           
  1765     0020                     ___fldiv@a:	
  1766                           ; 1 bytes @ 0x0
  1767                           
  1768     0020                     ??___fladd:	
  1769                           ; 4 bytes @ 0x0
  1770                           
  1771                           
  1772                           ; 1 bytes @ 0x0
  1773     0020                     	ds	1
  1774     0021                     SD_Cmd@r:
  1775     0021                     fputs@fp:	
  1776                           ; 1 bytes @ 0x1
  1777                           
  1778                           
  1779                           ; 2 bytes @ 0x1
  1780     0021                     	ds	1
  1781     0022                     SD_Cmd@i:
  1782                           
  1783                           ; 1 bytes @ 0x2
  1784     0022                     	ds	1
  1785     0023                     SD_Cmd@cmd:
  1786     0023                     ??_fputs:	
  1787                           ; 1 bytes @ 0x3
  1788                           
  1789                           
  1790                           ; 1 bytes @ 0x3
  1791     0023                     	ds	1
  1792     0024                     ?_SD_AppendText:
  1793     0024                     SD_AppendText@text:	
  1794                           ; 1 bytes @ 0x4
  1795                           
  1796     0024                     ___fldiv@b:	
  1797                           ; 2 bytes @ 0x4
  1798                           
  1799     0024                     ??_SD_Init:	
  1800                           ; 4 bytes @ 0x4
  1801                           
  1802                           
  1803                           ; 1 bytes @ 0x4
  1804     0024                     	ds	1
  1805     0025                     fputs@c:
  1806                           
  1807                           ; 1 bytes @ 0x5
  1808     0025                     	ds	1
  1809     0026                     SD_Init@r:
  1810     0026                     fputs@i:	
  1811                           ; 1 bytes @ 0x6
  1812                           
  1813     0026                     ??_SD_AppendText:	
  1814                           ; 2 bytes @ 0x6
  1815                           
  1816                           
  1817                           ; 1 bytes @ 0x6
  1818     0026                     	ds	1
  1819     0027                     SD_Init@i:
  1820                           
  1821                           ; 1 bytes @ 0x7
  1822     0027                     	ds	1
  1823     0028                     ?_pad:
  1824     0028                     ?___fltol:	
  1825                           ; 1 bytes @ 0x8
  1826                           
  1827     0028                     SD_Init@retry:	
  1828                           ; 4 bytes @ 0x8
  1829                           
  1830     0028                     pad@fp:	
  1831                           ; 2 bytes @ 0x8
  1832                           
  1833     0028                     ___fltol@f1:	
  1834                           ; 2 bytes @ 0x8
  1835                           
  1836     0028                     ??___fldiv:	
  1837                           ; 4 bytes @ 0x8
  1838                           
  1839                           
  1840                           ; 1 bytes @ 0x8
  1841     0028                     	ds	1
  1842     0029                     SD_AppendText@j:
  1843                           
  1844                           ; 2 bytes @ 0x9
  1845     0029                     	ds	1
  1846     002A                     pad@buf:
  1847                           
  1848                           ; 1 bytes @ 0xA
  1849     002A                     	ds	1
  1850     002B                     SD_AppendText@len:
  1851     002B                     pad@p:	
  1852                           ; 2 bytes @ 0xB
  1853                           
  1854                           
  1855                           ; 2 bytes @ 0xB
  1856     002B                     	ds	1
  1857     002C                     ??___fltol:
  1858                           
  1859                           ; 1 bytes @ 0xC
  1860     002C                     	ds	1
  1861     002D                     SD_AppendText@resp:
  1862     002D                     pad@i:	
  1863                           ; 1 bytes @ 0xD
  1864                           
  1865     002D                     ___fldiv@rem:	
  1866                           ; 2 bytes @ 0xD
  1867                           
  1868                           
  1869                           ; 4 bytes @ 0xD
  1870     002D                     	ds	1
  1871     002E                     SD_AppendText@i:
  1872                           
  1873                           ; 2 bytes @ 0xE
  1874     002E                     	ds	1
  1875     002F                     ?_dtoa:
  1876     002F                     ?_utoa:	
  1877                           ; 1 bytes @ 0xF
  1878                           
  1879     002F                     dtoa@fp:	
  1880                           ; 1 bytes @ 0xF
  1881                           
  1882     002F                     utoa@fp:	
  1883                           ; 2 bytes @ 0xF
  1884                           
  1885                           
  1886                           ; 2 bytes @ 0xF
  1887     002F                     	ds	2
  1888     0031                     ___fldiv@sign:
  1889     0031                     dtoa@d:	
  1890                           ; 1 bytes @ 0x11
  1891                           
  1892     0031                     utoa@d:	
  1893                           ; 2 bytes @ 0x11
  1894                           
  1895                           
  1896                           ; 2 bytes @ 0x11
  1897     0031                     	ds	1
  1898     0032                     ___fldiv@new_exp:
  1899                           
  1900                           ; 2 bytes @ 0x12
  1901     0032                     	ds	1
  1902     0033                     utoa@p:
  1903     0033                     _dtoa$977:	
  1904                           ; 1 bytes @ 0x13
  1905                           
  1906                           
  1907                           ; 2 bytes @ 0x13
  1908     0033                     	ds	1
  1909     0034                     utoa@w:
  1910     0034                     ___fldiv@grs:	
  1911                           ; 2 bytes @ 0x14
  1912                           
  1913                           
  1914                           ; 4 bytes @ 0x14
  1915     0034                     	ds	1
  1916     0035                     dtoa@p:
  1917                           
  1918                           ; 1 bytes @ 0x15
  1919     0035                     	ds	1
  1920     0036                     dtoa@w:
  1921     0036                     utoa@i:	
  1922                           ; 2 bytes @ 0x16
  1923                           
  1924                           
  1925                           ; 2 bytes @ 0x16
  1926     0036                     	ds	2
  1927     0038                     ___fldiv@bexp:
  1928     0038                     dtoa@s:	
  1929                           ; 1 bytes @ 0x18
  1930                           
  1931                           
  1932                           ; 1 bytes @ 0x18
  1933     0038                     	ds	1
  1934     0039                     ___fldiv@aexp:
  1935     0039                     dtoa@i:	
  1936                           ; 1 bytes @ 0x19
  1937                           
  1938                           
  1939                           ; 2 bytes @ 0x19
  1940     0039                     	ds	1
  1941     003A                     ?___flmul:
  1942     003A                     ___flmul@b:	
  1943                           ; 4 bytes @ 0x1A
  1944                           
  1945                           
  1946                           ; 4 bytes @ 0x1A
  1947     003A                     	ds	1
  1948     003B                     ?_vfpfcnvrt:
  1949     003B                     vfpfcnvrt@fp:	
  1950                           ; 1 bytes @ 0x1B
  1951                           
  1952                           
  1953                           ; 2 bytes @ 0x1B
  1954     003B                     	ds	2
  1955     003D                     vfpfcnvrt@fmt:
  1956                           
  1957                           ; 1 bytes @ 0x1D
  1958     003D                     	ds	1
  1959     003E                     vfpfcnvrt@ap:
  1960     003E                     ___flmul@a:	
  1961                           ; 1 bytes @ 0x1E
  1962                           
  1963                           
  1964                           ; 4 bytes @ 0x1E
  1965     003E                     	ds	1
  1966     003F                     ??_vfpfcnvrt:
  1967                           
  1968                           ; 1 bytes @ 0x1F
  1969     003F                     	ds	3
  1970     0042                     ??___flmul:
  1971                           
  1972                           ; 1 bytes @ 0x22
  1973     0042                     	ds	1
  1974     0043                     vfpfcnvrt@done:
  1975                           
  1976                           ; 1 bytes @ 0x23
  1977     0043                     	ds	1
  1978     0044                     vfpfcnvrt@convarg:
  1979                           
  1980                           ; 4 bytes @ 0x24
  1981     0044                     	ds	3
  1982     0047                     ___flmul@sign:
  1983                           
  1984                           ; 1 bytes @ 0x27
  1985     0047                     	ds	1
  1986     0048                     ___flmul@aexp:
  1987     0048                     vfpfcnvrt@cp:	
  1988                           ; 1 bytes @ 0x28
  1989                           
  1990                           
  1991                           ; 2 bytes @ 0x28
  1992     0048                     	ds	1
  1993     0049                     ___flmul@grs:
  1994                           
  1995                           ; 4 bytes @ 0x29
  1996     0049                     	ds	1
  1997     004A                     ?_vfprintf:
  1998     004A                     vfprintf@fp:	
  1999                           ; 2 bytes @ 0x2A
  2000                           
  2001                           
  2002                           ; 2 bytes @ 0x2A
  2003     004A                     	ds	2
  2004     004C                     vfprintf@fmt:
  2005                           
  2006                           ; 2 bytes @ 0x2C
  2007     004C                     	ds	1
  2008     004D                     ___flmul@bexp:
  2009                           
  2010                           ; 1 bytes @ 0x2D
  2011     004D                     	ds	1
  2012     004E                     vfprintf@ap:
  2013     004E                     ___flmul@prod:	
  2014                           ; 1 bytes @ 0x2E
  2015                           
  2016                           
  2017                           ; 4 bytes @ 0x2E
  2018     004E                     	ds	1
  2019     004F                     vfprintf@cfmt:
  2020                           
  2021                           ; 2 bytes @ 0x2F
  2022     004F                     	ds	2
  2023     0051                     ?_sprintf:
  2024     0051                     sprintf@s:	
  2025                           ; 2 bytes @ 0x31
  2026                           
  2027                           
  2028                           ; 2 bytes @ 0x31
  2029     0051                     	ds	1
  2030     0052                     ___flmul@temp:
  2031                           
  2032                           ; 2 bytes @ 0x32
  2033     0052                     	ds	1
  2034     0053                     sprintf@fmt:
  2035                           
  2036                           ; 2 bytes @ 0x33
  2037     0053                     	ds	1
  2038     0054                     ?_DHT22_read:
  2039     0054                     DHT22_read@dht_temperatura:	
  2040                           ; 1 bytes @ 0x34
  2041                           
  2042                           
  2043                           ; 1 bytes @ 0x34
  2044     0054                     	ds	1
  2045     0055                     DHT22_read@dht_humedad:
  2046                           
  2047                           ; 1 bytes @ 0x35
  2048     0055                     	ds	1
  2049     0056                     ??_DHT22_read:
  2050                           
  2051                           ; 1 bytes @ 0x36
  2052     0056                     	ds	4
  2053     005A                     DHT22_read@rawhumidity:
  2054                           
  2055                           ; 2 bytes @ 0x3A
  2056     005A                     	ds	2
  2057     005C                     DHT22_read@checksum:
  2058                           
  2059                           ; 1 bytes @ 0x3C
  2060     005C                     	ds	1
  2061     005D                     DHT22_read@result:
  2062                           
  2063                           ; 1 bytes @ 0x3D
  2064     005D                     	ds	1
  2065     005E                     DHT22_read@bits:
  2066                           
  2067                           ; 5 bytes @ 0x3E
  2068     005E                     	ds	5
  2069     0063                     DHT22_read@rawtemperature:
  2070                           
  2071                           ; 2 bytes @ 0x43
  2072     0063                     	ds	2
  2073     0065                     DHT22_read@i:
  2074                           
  2075                           ; 1 bytes @ 0x45
  2076     0065                     	ds	1
  2077     0066                     DHT22_read@j:
  2078                           
  2079                           ; 1 bytes @ 0x46
  2080     0066                     	ds	1
  2081     0067                     DHT22_read@timeout:
  2082                           
  2083                           ; 1 bytes @ 0x47
  2084     0067                     	ds	1
  2085     0068                     main@lastBtn:
  2086                           
  2087                           ; 1 bytes @ 0x48
  2088     0068                     	ds	1
  2089                           
  2090                           	psect	maintext
  2091     0189                     __pmaintext:	
  2092 ;;
  2093 ;;Main: autosize = 0, tempsize = 12, incstack = 0, save=0
  2094 ;;
  2095 ;; *************** function _main *****************
  2096 ;; Defined at:
  2097 ;;		line 26 in file "main.c"
  2098 ;; Parameters:    Size  Location     Type
  2099 ;;		None
  2100 ;; Auto vars:     Size  Location     Type
  2101 ;;  diff            2   20[BANK3 ] short 
  2102 ;;  d2              2   22[BANK3 ] short 
  2103 ;;  min_total       2   72[BANK1 ] unsigned short 
  2104 ;;  tf              4   26[BANK3 ] float 
  2105 ;;  hf              4   76[BANK1 ] float 
  2106 ;;  line           45   27[BANK1 ] unsigned char [45]
  2107 ;;  buf            17    0[BANK3 ] unsigned char [17]
  2108 ;;  H               2   36[BANK3 ] int 
  2109 ;;  T               2   34[BANK3 ] int 
  2110 ;;  reg             2   18[BANK3 ] unsigned short 
  2111 ;;  m               1   46[BANK3 ] unsigned char 
  2112 ;;  h               1   45[BANK3 ] unsigned char 
  2113 ;;  sd_ok           1   44[BANK3 ] unsigned char 
  2114 ;;  screen          1   43[BANK3 ] unsigned char 
  2115 ;;  y               1   42[BANK3 ] unsigned char 
  2116 ;;  mo              1   41[BANK3 ] unsigned char 
  2117 ;;  d               1   40[BANK3 ] unsigned char 
  2118 ;;  s               1   39[BANK3 ] unsigned char 
  2119 ;;  h_inicio        1   38[BANK3 ] unsigned char 
  2120 ;;  min_rest        1   33[BANK3 ] unsigned char 
  2121 ;;  ultimo_min      1   32[BANK3 ] unsigned char 
  2122 ;;  saved           1   31[BANK3 ] unsigned char 
  2123 ;;  first           1   30[BANK3 ] unsigned char 
  2124 ;;  iniciado        1   25[BANK3 ] unsigned char 
  2125 ;;  min_inicio      1   24[BANK3 ] unsigned char 
  2126 ;;  sd_removed      1   17[BANK3 ] unsigned char 
  2127 ;;  timer           1   75[BANK1 ] unsigned char 
  2128 ;;  dhtCnt          1   74[BANK1 ] unsigned char 
  2129 ;;  lastBtn         1   72[BANK0 ] unsigned char 
  2130 ;; Return value:  Size  Location     Type
  2131 ;;                  1    wreg      void 
  2132 ;; Registers used:
  2133 ;;		wreg, fsr0l, fsr0h, status,2, status,0, pclath, btemp1, cstack
  2134 ;; Tracked objects:
  2135 ;;		On entry : B00/0
  2136 ;;		On exit  : 0/0
  2137 ;;		Unchanged: 0/0
  2138 ;; Data sizes:     COMMON   BANK0   BANK1   BANK3   BANK2
  2139 ;;      Params:         0       0       0       0       0
  2140 ;;      Locals:         0       1      53      47       0
  2141 ;;      Temps:          0       0      12       0       0
  2142 ;;      Totals:         0       1      65      47       0
  2143 ;;Total ram usage:      113 bytes
  2144 ;; Hardware stack levels required when called: 7
  2145 ;; This function calls:
  2146 ;;		_DHT22_init
  2147 ;;		_DHT22_read
  2148 ;;		_DS1307_getDate
  2149 ;;		_DS1307_getTime
  2150 ;;		_DS1307_startOscillator
  2151 ;;		_I2C_init
  2152 ;;		_LCD_cmd
  2153 ;;		_LCD_goto
  2154 ;;		_LCD_init
  2155 ;;		_LCD_print
  2156 ;;		_SD_AppendText
  2157 ;;		_SD_Init
  2158 ;;		___fladd
  2159 ;;		___fltol
  2160 ;;		___wmul
  2161 ;;		_sprintf
  2162 ;; This function is called by:
  2163 ;;		Startup code after reset
  2164 ;; This function uses a non-reentrant model
  2165 ;;
  2166                           
  2167     0189                     _main:	
  2168                           ;psect for function _main
  2169                           
  2170     0189                     l5950:	
  2171                           ;incstack = 0
  2172                           ; Regs used in _main: [wreg-fsr0h+status,2+status,0+pclath+btemp1+cstack]
  2173                           
  2174                           
  2175                           ;main.c: 27:     uint8_t dhtCnt = 0;
  2176     0189  1683               	bsf	3,5	;RP0=1, select bank3
  2177     018A  1703               	bsf	3,6	;RP1=1, select bank3
  2178     018B  0188               	clrf	8	;volatile
  2179                           
  2180                           ;main.c: 28:     uint8_t sd_ok = 0;
  2181     018C  0189               	clrf	9	;volatile
  2182     018D                     l5952:
  2183                           
  2184                           ;main.c: 29:     uint8_t first = 1;
  2185     018D  3004               	movlw	4
  2186     018E  1683               	bsf	3,5	;RP0=1, select bank1
  2187     018F  1303               	bcf	3,6	;RP1=0, select bank1
  2188     0190  0085               	movwf	5	;volatile
  2189     0191                     l5954:
  2190                           
  2191                           ;main.c: 30:     uint8_t saved = 0;
  2192     0191  3004               	movlw	4
  2193     0192  0086               	movwf	6	;volatile
  2194     0193                     l5956:
  2195                           
  2196                           ;main.c: 31:     uint8_t timer = 0;
  2197     0193  3018               	movlw	24
  2198     0194  0087               	movwf	7	;volatile
  2199     0195                     l5958:
  2200                           
  2201                           ;main.c: 32:     uint8_t sd_removed = 0;
  2202     0195  3001               	movlw	1
  2203     0196  0088               	movwf	8	;volatile
  2204                           
  2205                           ;main.c: 33:     uint16_t reg = 1;
  2206     0197  1283               	bcf	3,5	;RP0=0, select bank0
  2207     0198  1303               	bcf	3,6	;RP1=0, select bank0
  2208     0199  0185               	clrf	5	;volatile
  2209                           
  2210                           ;main.c: 34:     uint8_t ultimo_min = 255;
  2211     019A  0186               	clrf	6	;volatile
  2212                           
  2213                           ;main.c: 35:     uint8_t min_inicio = 0;
  2214     019B  0187               	clrf	7	;volatile
  2215                           
  2216                           ;main.c: 36:     uint8_t h_inicio = 0;
  2217     019C  0188               	clrf	8	;volatile
  2218     019D                     l5960:
  2219                           
  2220                           ;main.c: 38:     uint8_t min_rest = 0;
  2221     019D  160A  118A  202B  120A  118A  	fcall	_LCD_init
  2222     01A2                     l5962:
  2223                           
  2224                           ;main.c: 39: 
  2225     01A2  160A  158A  235B  120A  118A  	fcall	_I2C_init
  2226     01A7                     l5964:
  2227                           
  2228                           ;main.c: 40:     LCD_cmd(0x01);
  2229     01A7  160A  158A  25C0  120A  118A  	fcall	_DS1307_startOscillator
  2230     01AC                     l5966:
  2231                           
  2232                           ;main.c: 41:     _delay((unsigned long)((2)*(20000000/4000.0)));
  2233     01AC  160A  158A  238E  120A  118A  	fcall	_DHT22_init
  2234     01B1                     l5968:
  2235                           
  2236                           ;main.c: 46:     _delay((unsigned long)((2500)*(20000000/4000.0)));
  2237     01B1  1683               	bsf	3,5	;RP0=1, select bank3
  2238     01B2  1703               	bsf	3,6	;RP1=1, select bank3
  2239     01B3  01BD               	clrf	main@h^(0+384)
  2240     01B4                     l5970:
  2241     01B4  01BE               	clrf	main@m^(0+384)
  2242     01B5                     l5972:
  2243     01B5  01B7               	clrf	main@s^(0+384)
  2244     01B6                     l5974:
  2245                           
  2246                           ;main.c: 47: 
  2247     01B6  3012               	movlw	18
  2248     01B7  00B8               	movwf	main@d^(0+384)
  2249     01B8                     l5976:
  2250     01B8  300B               	movlw	11
  2251     01B9  00B9               	movwf	main@mo^(0+384)
  2252     01BA                     l5978:
  2253     01BA  3019               	movlw	25
  2254     01BB  00BA               	movwf	main@y^(0+384)
  2255     01BC                     l5980:
  2256                           
  2257                           ;main.c: 48:     LCD_cmd(0x01);
  2258     01BC  01B2               	clrf	main@T^(0+384)
  2259     01BD  01B3               	clrf	(main@T+1)^(0+384)
  2260     01BE                     l5982:
  2261     01BE  01B4               	clrf	main@H^(0+384)
  2262     01BF  01B5               	clrf	(main@H+1)^(0+384)
  2263     01C0                     l5984:
  2264                           
  2265                           ;main.c: 49:     _delay((unsigned long)((2)*(20000000/4000.0)));;main.c: 50:     LCD_got
      +                          o(0x00);;main.c: 51:     LCD_print("Iniciando SD...");
  2266     01C0  01BB               	clrf	main@screen^(0+384)
  2267     01C1                     l5986:
  2268                           
  2269                           ;main.c: 52:     _delay((unsigned long)((1000)*(20000000/4000.0)));
  2270     01C1  3001               	movlw	1
  2271     01C2  1283               	bcf	3,5	;RP0=0, select bank0
  2272     01C3  1303               	bcf	3,6	;RP1=0, select bank0
  2273     01C4  00E8               	movwf	main@lastBtn
  2274     01C5                     l5988:
  2275                           
  2276                           ;main.c: 53: 
  2277     01C5  1683               	bsf	3,5	;RP0=1, select bank1
  2278     01C6  1303               	bcf	3,6	;RP1=0, select bank1
  2279     01C7  01EA               	clrf	main@dhtCnt^(0+128)
  2280     01C8                     l5990:
  2281                           
  2282                           ;main.c: 54:     if(SD_Init()) {
  2283     01C8  1683               	bsf	3,5	;RP0=1, select bank3
  2284     01C9  1703               	bsf	3,6	;RP1=1, select bank3
  2285     01CA  01BC               	clrf	main@sd_ok^(0+384)
  2286     01CB                     l5992:
  2287                           
  2288                           ;main.c: 55:         sd_ok = 1;
  2289     01CB  3001               	movlw	1
  2290     01CC  00AE               	movwf	main@first^(0+384)
  2291     01CD                     l5994:
  2292                           
  2293                           ;main.c: 56:         LCD_cmd(0x01);
  2294     01CD  01AF               	clrf	main@saved^(0+384)
  2295     01CE                     l5996:
  2296                           
  2297                           ;main.c: 57:         _delay((unsigned long)((2)*(20000000/4000.0)));
  2298     01CE  1683               	bsf	3,5	;RP0=1, select bank1
  2299     01CF  1303               	bcf	3,6	;RP1=0, select bank1
  2300     01D0  01EB               	clrf	main@timer^(0+128)
  2301     01D1                     l5998:
  2302                           
  2303                           ;main.c: 58:         LCD_goto(0x00);
  2304     01D1  1683               	bsf	3,5	;RP0=1, select bank3
  2305     01D2  1703               	bsf	3,6	;RP1=1, select bank3
  2306     01D3  01A1               	clrf	main@sd_removed^(0+384)
  2307                           
  2308                           ;main.c: 59:         LCD_print("SD OK!");
  2309     01D4  3001               	movlw	1
  2310     01D5  00A2               	movwf	main@reg^(0+384)
  2311     01D6  3000               	movlw	0
  2312     01D7  00A3               	movwf	(main@reg^(0+384)+1)
  2313     01D8                     l6000:
  2314                           
  2315                           ;main.c: 60:         _delay((unsigned long)((1500)*(20000000/4000.0)));
  2316     01D8  30FF               	movlw	255
  2317     01D9  00B0               	movwf	main@ultimo_min^(0+384)
  2318     01DA                     l6002:
  2319                           
  2320                           ;main.c: 61:         SD_AppendText("ID,Fecha,Hora,TempC,Hum\r\n");
  2321     01DA  01A8               	clrf	main@min_inicio^(0+384)
  2322     01DB                     l6004:
  2323                           
  2324                           ;main.c: 62:     } else {
  2325     01DB  01B6               	clrf	main@h_inicio^(0+384)
  2326     01DC                     l6006:
  2327                           
  2328                           ;main.c: 63:         LCD_cmd(0x01);
  2329     01DC  01A9               	clrf	main@iniciado^(0+384)
  2330     01DD                     l6008:
  2331                           
  2332                           ;main.c: 64:         _delay((unsigned long)((2)*(20000000/4000.0)));
  2333     01DD  01B1               	clrf	main@min_rest^(0+384)
  2334     01DE                     l6010:
  2335                           
  2336                           ;main.c: 66:         LCD_print("ERROR: SD");
  2337     01DE  3001               	movlw	1
  2338     01DF  160A  158A  23A2  120A  118A  	fcall	_LCD_cmd
  2339     01E4                     l6012:
  2340                           
  2341                           ;main.c: 67:         _delay((unsigned long)((2000)*(20000000/4000.0)));
  2342     01E4  300D               	movlw	13
  2343     01E5  1683               	bsf	3,5	;RP0=1, select bank1
  2344     01E6  1303               	bcf	3,6	;RP1=0, select bank1
  2345     01E7  00B0               	movwf	(??_main^(0+128)+1)
  2346     01E8  30FB               	movlw	251
  2347     01E9  00AF               	movwf	??_main^(0+128)
  2348     01EA                     u9247:
  2349     01EA  0BAF               	decfsz	??_main^(0+128),f
  2350     01EB  29EA               	goto	u9247
  2351     01EC  0BB0               	decfsz	(??_main^(0+128)+1),f
  2352     01ED  29EA               	goto	u9247
  2353                           
  2354                           ;main.c: 68:     }
  2355     01EE  3000               	movlw	0
  2356     01EF  120A  118A  2004  120A  118A  	fcall	_LCD_goto
  2357     01F4                     l6014:
  2358                           
  2359                           ;main.c: 69: 
  2360     01F4  30B8               	movlw	low (STR_1| (0+32768))
  2361     01F5  00F5               	movwf	LCD_print@s
  2362     01F6  3098               	movlw	high (STR_1| (0+32768))
  2363     01F7  00F6               	movwf	LCD_print@s+1
  2364     01F8  160A  158A  2455  120A  118A  	fcall	_LCD_print
  2365     01FD                     l6016:
  2366                           
  2367                           ;main.c: 70:     LCD_cmd(0x01);
  2368     01FD  3040               	movlw	64
  2369     01FE  120A  118A  2004  120A  118A  	fcall	_LCD_goto
  2370                           
  2371                           ;main.c: 71:     _delay((unsigned long)((2)*(20000000/4000.0)));
  2372     0203  3028               	movlw	low (STR_2| (0+32768))
  2373     0204  00F5               	movwf	LCD_print@s
  2374     0205  3099               	movlw	high (STR_2| (0+32768))
  2375     0206  00F6               	movwf	LCD_print@s+1
  2376     0207  160A  158A  2455  120A  118A  	fcall	_LCD_print
  2377     020C                     l6018:
  2378                           
  2379                           ;main.c: 72: 
  2380     020C  3040               	movlw	64
  2381     020D  1683               	bsf	3,5	;RP0=1, select bank1
  2382     020E  1303               	bcf	3,6	;RP1=0, select bank1
  2383     020F  00B1               	movwf	(??_main^(0+128)+2)
  2384     0210  306A               	movlw	106
  2385     0211  00B0               	movwf	(??_main^(0+128)+1)
  2386     0212  3097               	movlw	151
  2387     0213  00AF               	movwf	??_main^(0+128)
  2388     0214                     u9257:
  2389     0214  0BAF               	decfsz	??_main^(0+128),f
  2390     0215  2A14               	goto	u9257
  2391     0216  0BB0               	decfsz	(??_main^(0+128)+1),f
  2392     0217  2A14               	goto	u9257
  2393     0218  0BB1               	decfsz	(??_main^(0+128)+2),f
  2394     0219  2A14               	goto	u9257
  2395     021A                     l6020:
  2396                           
  2397                           ;main.c: 74:         DS1307_getTime(&h, &m, &s);
  2398     021A  3001               	movlw	1
  2399     021B  160A  158A  23A2  120A  118A  	fcall	_LCD_cmd
  2400     0220                     l6022:
  2401                           
  2402                           ;main.c: 75:         DS1307_getDate(&d, &mo, &y);
  2403     0220  300D               	movlw	13
  2404     0221  1683               	bsf	3,5	;RP0=1, select bank1
  2405     0222  1303               	bcf	3,6	;RP1=0, select bank1
  2406     0223  00B0               	movwf	(??_main^(0+128)+1)
  2407     0224  30FB               	movlw	251
  2408     0225  00AF               	movwf	??_main^(0+128)
  2409     0226                     u9267:
  2410     0226  0BAF               	decfsz	??_main^(0+128),f
  2411     0227  2A26               	goto	u9267
  2412     0228  0BB0               	decfsz	(??_main^(0+128)+1),f
  2413     0229  2A26               	goto	u9267
  2414     022A                     l6024:
  2415                           
  2416                           ;main.c: 76: 
  2417     022A  3000               	movlw	0
  2418     022B  120A  118A  2004  120A  118A  	fcall	_LCD_goto
  2419                           
  2420                           ;main.c: 77:         if(lastBtn == 1 && PORTAbits.RA2 == 0) {
  2421     0230  3009               	movlw	low (STR_3| (0+32768))
  2422     0231  00F5               	movwf	LCD_print@s
  2423     0232  3099               	movlw	high (STR_3| (0+32768))
  2424     0233  00F6               	movwf	LCD_print@s+1
  2425     0234  160A  158A  2455  120A  118A  	fcall	_LCD_print
  2426     0239                     l6026:
  2427                           
  2428                           ;main.c: 78:             _delay((unsigned long)((50)*(20000000/4000.0)));
  2429     0239  301A               	movlw	26
  2430     023A  1683               	bsf	3,5	;RP0=1, select bank1
  2431     023B  1303               	bcf	3,6	;RP1=0, select bank1
  2432     023C  00B1               	movwf	(??_main^(0+128)+2)
  2433     023D  305E               	movlw	94
  2434     023E  00B0               	movwf	(??_main^(0+128)+1)
  2435     023F  306D               	movlw	109
  2436     0240  00AF               	movwf	??_main^(0+128)
  2437     0241                     u9277:
  2438     0241  0BAF               	decfsz	??_main^(0+128),f
  2439     0242  2A41               	goto	u9277
  2440     0243  0BB0               	decfsz	(??_main^(0+128)+1),f
  2441     0244  2A41               	goto	u9277
  2442     0245  0BB1               	decfsz	(??_main^(0+128)+2),f
  2443     0246  2A41               	goto	u9277
  2444     0247  2A48               	nop2
  2445     0248                     l6028:
  2446                           
  2447                           ;main.c: 80:                 screen++;
  2448     0248  160A  118A  2409  120A  118A  	fcall	_SD_Init
  2449     024D  3A00               	xorlw	0
  2450     024E  1903               	skipnz
  2451     024F  2A51               	goto	u8961
  2452     0250  2A52               	goto	u8960
  2453     0251                     u8961:
  2454     0251  2A90               	goto	l6042
  2455     0252                     u8960:
  2456     0252                     l6030:
  2457                           
  2458                           ;main.c: 81:                 if(screen > 2) screen = 0;
  2459     0252  3001               	movlw	1
  2460     0253  1683               	bsf	3,5	;RP0=1, select bank3
  2461     0254  1703               	bsf	3,6	;RP1=1, select bank3
  2462     0255  00BC               	movwf	main@sd_ok^(0+384)
  2463     0256                     l6032:
  2464                           
  2465                           ;main.c: 82:                 LCD_cmd(0x01);
  2466     0256  3001               	movlw	1
  2467     0257  160A  158A  23A2  120A  118A  	fcall	_LCD_cmd
  2468     025C                     l6034:
  2469                           
  2470                           ;main.c: 83:                 _delay((unsigned long)((2)*(20000000/4000.0)));
  2471     025C  300D               	movlw	13
  2472     025D  1683               	bsf	3,5	;RP0=1, select bank1
  2473     025E  1303               	bcf	3,6	;RP1=0, select bank1
  2474     025F  00B0               	movwf	(??_main^(0+128)+1)
  2475     0260  30FB               	movlw	251
  2476     0261  00AF               	movwf	??_main^(0+128)
  2477     0262                     u9287:
  2478     0262  0BAF               	decfsz	??_main^(0+128),f
  2479     0263  2A62               	goto	u9287
  2480     0264  0BB0               	decfsz	(??_main^(0+128)+1),f
  2481     0265  2A62               	goto	u9287
  2482     0266                     l6036:
  2483                           
  2484                           ;main.c: 84:             }
  2485     0266  3000               	movlw	0
  2486     0267  120A  118A  2004  120A  118A  	fcall	_LCD_goto
  2487     026C                     l6038:
  2488                           
  2489                           ;main.c: 85:         }
  2490     026C  3058               	movlw	low (STR_4| (0+32768))
  2491     026D  00F5               	movwf	LCD_print@s
  2492     026E  3099               	movlw	high (STR_4| (0+32768))
  2493     026F  00F6               	movwf	LCD_print@s+1
  2494     0270  160A  158A  2455  120A  118A  	fcall	_LCD_print
  2495     0275                     l6040:
  2496                           
  2497                           ;main.c: 86:         lastBtn = PORTAbits.RA2;
  2498     0275  3027               	movlw	39
  2499     0276  1683               	bsf	3,5	;RP0=1, select bank1
  2500     0277  1303               	bcf	3,6	;RP1=0, select bank1
  2501     0278  00B1               	movwf	(??_main^(0+128)+2)
  2502     0279  300D               	movlw	13
  2503     027A  00B0               	movwf	(??_main^(0+128)+1)
  2504     027B  3025               	movlw	37
  2505     027C  00AF               	movwf	??_main^(0+128)
  2506     027D                     u9297:
  2507     027D  0BAF               	decfsz	??_main^(0+128),f
  2508     027E  2A7D               	goto	u9297
  2509     027F  0BB0               	decfsz	(??_main^(0+128)+1),f
  2510     0280  2A7D               	goto	u9297
  2511     0281  0BB1               	decfsz	(??_main^(0+128)+2),f
  2512     0282  2A7D               	goto	u9297
  2513     0283  2A84               	nop2
  2514                           
  2515                           ;main.c: 87: 
  2516     0284  302B               	movlw	low (STR_5| (0+32768))
  2517     0285  1283               	bcf	3,5	;RP0=0, select bank0
  2518     0286  1303               	bcf	3,6	;RP1=0, select bank0
  2519     0287  00A4               	movwf	SD_AppendText@text
  2520     0288  3098               	movlw	high (STR_5| (0+32768))
  2521     0289  00A5               	movwf	SD_AppendText@text+1
  2522     028A  160A  118A  2513  120A  118A  	fcall	_SD_AppendText
  2523                           
  2524                           ;main.c: 88:         if(dhtCnt >= 100) {
  2525     028F  2ABD               	goto	l6052
  2526     0290                     l6042:
  2527                           
  2528                           ;main.c: 89:             float tf, hf;
  2529     0290  3001               	movlw	1
  2530     0291  160A  158A  23A2  120A  118A  	fcall	_LCD_cmd
  2531     0296                     l6044:
  2532                           
  2533                           ;main.c: 90:             if(DHT22_read(&tf, &hf)) {
  2534     0296  300D               	movlw	13
  2535     0297  1683               	bsf	3,5	;RP0=1, select bank1
  2536     0298  1303               	bcf	3,6	;RP1=0, select bank1
  2537     0299  00B0               	movwf	(??_main^(0+128)+1)
  2538     029A  30FB               	movlw	251
  2539     029B  00AF               	movwf	??_main^(0+128)
  2540     029C                     u9307:
  2541     029C  0BAF               	decfsz	??_main^(0+128),f
  2542     029D  2A9C               	goto	u9307
  2543     029E  0BB0               	decfsz	(??_main^(0+128)+1),f
  2544     029F  2A9C               	goto	u9307
  2545     02A0                     l6046:
  2546                           
  2547                           ;main.c: 91:                 T = (int)(tf + 0.5);
  2548     02A0  3000               	movlw	0
  2549     02A1  120A  118A  2004  120A  118A  	fcall	_LCD_goto
  2550     02A6                     l6048:
  2551                           
  2552                           ;main.c: 92:                 H = (int)(hf + 0.5);
  2553     02A6  304E               	movlw	low (STR_6| (0+32768))
  2554     02A7  00F5               	movwf	LCD_print@s
  2555     02A8  3099               	movlw	high (STR_6| (0+32768))
  2556     02A9  00F6               	movwf	LCD_print@s+1
  2557     02AA  160A  158A  2455  120A  118A  	fcall	_LCD_print
  2558     02AF                     l6050:
  2559                           
  2560                           ;main.c: 93:                 first = 0;
  2561     02AF  3033               	movlw	51
  2562     02B0  1683               	bsf	3,5	;RP0=1, select bank1
  2563     02B1  1303               	bcf	3,6	;RP1=0, select bank1
  2564     02B2  00B1               	movwf	(??_main^(0+128)+2)
  2565     02B3  30BB               	movlw	187
  2566     02B4  00B0               	movwf	(??_main^(0+128)+1)
  2567     02B5  30DF               	movlw	223
  2568     02B6  00AF               	movwf	??_main^(0+128)
  2569     02B7                     u9317:
  2570     02B7  0BAF               	decfsz	??_main^(0+128),f
  2571     02B8  2AB7               	goto	u9317
  2572     02B9  0BB0               	decfsz	(??_main^(0+128)+1),f
  2573     02BA  2AB7               	goto	u9317
  2574     02BB  0BB1               	decfsz	(??_main^(0+128)+2),f
  2575     02BC  2AB7               	goto	u9317
  2576     02BD                     l6052:
  2577                           
  2578                           ;main.c: 96:             }
  2579     02BD  3001               	movlw	1
  2580     02BE  160A  158A  23A2  120A  118A  	fcall	_LCD_cmd
  2581     02C3                     l6054:
  2582                           
  2583                           ;main.c: 97:             dhtCnt = 0;
  2584     02C3  300D               	movlw	13
  2585     02C4  1683               	bsf	3,5	;RP0=1, select bank1
  2586     02C5  1303               	bcf	3,6	;RP1=0, select bank1
  2587     02C6  00B0               	movwf	(??_main^(0+128)+1)
  2588     02C7  30FB               	movlw	251
  2589     02C8  00AF               	movwf	??_main^(0+128)
  2590     02C9                     u9327:
  2591     02C9  0BAF               	decfsz	??_main^(0+128),f
  2592     02CA  2AC9               	goto	u9327
  2593     02CB  0BB0               	decfsz	(??_main^(0+128)+1),f
  2594     02CC  2AC9               	goto	u9327
  2595     02CD                     l6056:
  2596                           
  2597                           ;main.c: 100: 
  2598     02CD  30BD               	movlw	(low (main@h| (0+256)))& (0+255)
  2599     02CE  00F6               	movwf	DS1307_getTime@h
  2600     02CF  30BE               	movlw	(low (main@m| (0+256)))& (0+255)
  2601     02D0  00F7               	movwf	DS1307_getTime@m
  2602     02D1  30B7               	movlw	(low (main@s| (0+256)))& (0+255)
  2603     02D2  00F8               	movwf	DS1307_getTime@s
  2604     02D3  160A  158A  26A4  120A  118A  	fcall	_DS1307_getTime
  2605     02D8                     l6058:
  2606                           
  2607                           ;main.c: 101:         if(sd_ok && !first && !sd_removed) {
  2608     02D8  30B8               	movlw	(low (main@d| (0+256)))& (0+255)
  2609     02D9  00F6               	movwf	DS1307_getDate@d
  2610     02DA  30B9               	movlw	(low (main@mo| (0+256)))& (0+255)
  2611     02DB  00F7               	movwf	DS1307_getDate@mo
  2612     02DC  30BA               	movlw	(low (main@y| (0+256)))& (0+255)
  2613     02DD  00F8               	movwf	DS1307_getDate@y
  2614     02DE  160A  158A  2655  120A  118A  	fcall	_DS1307_getDate
  2615     02E3                     l6060:
  2616                           
  2617                           ;main.c: 103:             if(!iniciado) {
  2618     02E3  1283               	bcf	3,5	;RP0=0, select bank0
  2619     02E4  1303               	bcf	3,6	;RP1=0, select bank0
  2620     02E5  0368               	decf	main@lastBtn,w
  2621     02E6  1D03               	btfss	3,2
  2622     02E7  2AE9               	goto	u8971
  2623     02E8  2AEA               	goto	u8970
  2624     02E9                     u8971:
  2625     02E9  2B1D               	goto	l6078
  2626     02EA                     u8970:
  2627     02EA                     l6062:
  2628     02EA  1905               	btfsc	5,2	;volatile
  2629     02EB  2AED               	goto	u8981
  2630     02EC  2AEE               	goto	u8980
  2631     02ED                     u8981:
  2632     02ED  2B1D               	goto	l6078
  2633     02EE                     u8980:
  2634     02EE                     l6064:
  2635                           
  2636                           ;main.c: 104:                 min_inicio = m;
  2637     02EE  3002               	movlw	2
  2638     02EF  1683               	bsf	3,5	;RP0=1, select bank1
  2639     02F0  1303               	bcf	3,6	;RP1=0, select bank1
  2640     02F1  00B1               	movwf	(??_main^(0+128)+2)
  2641     02F2  3045               	movlw	69
  2642     02F3  00B0               	movwf	(??_main^(0+128)+1)
  2643     02F4  30A9               	movlw	169
  2644     02F5  00AF               	movwf	??_main^(0+128)
  2645     02F6                     u9337:
  2646     02F6  0BAF               	decfsz	??_main^(0+128),f
  2647     02F7  2AF6               	goto	u9337
  2648     02F8  0BB0               	decfsz	(??_main^(0+128)+1),f
  2649     02F9  2AF6               	goto	u9337
  2650     02FA  0BB1               	decfsz	(??_main^(0+128)+2),f
  2651     02FB  2AF6               	goto	u9337
  2652     02FC                     l6066:
  2653                           
  2654                           ;main.c: 105:                 h_inicio = h;
  2655     02FC  1283               	bcf	3,5	;RP0=0, select bank0
  2656     02FD  1303               	bcf	3,6	;RP1=0, select bank0
  2657     02FE  1905               	btfsc	5,2	;volatile
  2658     02FF  2B01               	goto	u8991
  2659     0300  2B02               	goto	u8990
  2660     0301                     u8991:
  2661     0301  2B1D               	goto	l6078
  2662     0302                     u8990:
  2663     0302                     l6068:
  2664                           
  2665                           ;main.c: 106:                 ultimo_min = m;
  2666     0302  3001               	movlw	1
  2667     0303  1683               	bsf	3,5	;RP0=1, select bank3
  2668     0304  1703               	bsf	3,6	;RP1=1, select bank3
  2669     0305  07BB               	addwf	main@screen^(0+384),f
  2670     0306                     l6070:
  2671                           
  2672                           ;main.c: 107:                 iniciado = 1;
  2673     0306  3003               	movlw	3
  2674     0307  023B               	subwf	main@screen^(0+384),w
  2675     0308  1C03               	skipc
  2676     0309  2B0B               	goto	u9001
  2677     030A  2B0C               	goto	u9000
  2678     030B                     u9001:
  2679     030B  2B0D               	goto	l6074
  2680     030C                     u9000:
  2681     030C                     l6072:
  2682     030C  01BB               	clrf	main@screen^(0+384)
  2683     030D                     l6074:
  2684                           
  2685                           ;main.c: 108:             }
  2686     030D  3001               	movlw	1
  2687     030E  160A  158A  23A2  120A  118A  	fcall	_LCD_cmd
  2688     0313                     l6076:
  2689                           
  2690                           ;main.c: 109: 
  2691     0313  300D               	movlw	13
  2692     0314  1683               	bsf	3,5	;RP0=1, select bank1
  2693     0315  1303               	bcf	3,6	;RP1=0, select bank1
  2694     0316  00B0               	movwf	(??_main^(0+128)+1)
  2695     0317  30FB               	movlw	251
  2696     0318  00AF               	movwf	??_main^(0+128)
  2697     0319                     u9347:
  2698     0319  0BAF               	decfsz	??_main^(0+128),f
  2699     031A  2B19               	goto	u9347
  2700     031B  0BB0               	decfsz	(??_main^(0+128)+1),f
  2701     031C  2B19               	goto	u9347
  2702     031D                     l6078:
  2703                           
  2704                           ;main.c: 112:                 min_total = ((h - h_inicio) * 60) + (m - min_inicio);
  2705     031D  1283               	bcf	3,5	;RP0=0, select bank0
  2706     031E  1303               	bcf	3,6	;RP1=0, select bank0
  2707     031F  0C05               	rrf	5,w	;volatile
  2708     0320  1683               	bsf	3,5	;RP0=1, select bank1
  2709     0321  1303               	bcf	3,6	;RP1=0, select bank1
  2710     0322  00AF               	movwf	??_main^(0+128)
  2711     0323  0C2F               	rrf	??_main^(0+128),w
  2712     0324  3901               	andlw	1
  2713     0325  1283               	bcf	3,5	;RP0=0, select bank0
  2714     0326  1303               	bcf	3,6	;RP1=0, select bank0
  2715     0327  00E8               	movwf	main@lastBtn
  2716     0328                     l6080:
  2717                           
  2718                           ;main.c: 114:                 min_total = ((24 - h_inicio + h) * 60) + (m - min_inicio);
  2719     0328  3064               	movlw	100
  2720     0329  1683               	bsf	3,5	;RP0=1, select bank1
  2721     032A  1303               	bcf	3,6	;RP1=0, select bank1
  2722     032B  026A               	subwf	main@dhtCnt^(0+128),w
  2723     032C  1C03               	skipc
  2724     032D  2B2F               	goto	u9011
  2725     032E  2B30               	goto	u9010
  2726     032F                     u9011:
  2727     032F  2BAD               	goto	l6090
  2728     0330                     u9010:
  2729     0330                     l6082:
  2730                           
  2731                           ;main.c: 115:             };main.c: 116: 
  2732     0330  30AA               	movlw	(low (main@tf| (0+256)))& (0+255)
  2733     0331  1283               	bcf	3,5	;RP0=0, select bank0
  2734     0332  1303               	bcf	3,6	;RP1=0, select bank0
  2735     0333  00D4               	movwf	DHT22_read@dht_temperatura
  2736     0334  30EC               	movlw	(low (main@hf| 0))& (0+255)
  2737     0335  00D5               	movwf	DHT22_read@dht_humedad
  2738     0336  160A  118A  2640  120A  118A  	fcall	_DHT22_read
  2739     033B  3A00               	xorlw	0
  2740     033C  1903               	skipnz
  2741     033D  2B3F               	goto	u9021
  2742     033E  2B40               	goto	u9020
  2743     033F                     u9021:
  2744     033F  2BA6               	goto	l62
  2745     0340                     u9020:
  2746     0340                     l6084:
  2747                           
  2748                           ;main.c: 117:             if(min_total >= 360) {
  2749     0340  1683               	bsf	3,5	;RP0=1, select bank3
  2750     0341  1703               	bsf	3,6	;RP1=1, select bank3
  2751     0342  082D               	movf	(main@tf+3)^(0+384),w
  2752     0343  00F7               	movwf	___fladd@a+3
  2753     0344  082C               	movf	(main@tf+2)^(0+384),w
  2754     0345  00F6               	movwf	___fladd@a+2
  2755     0346  082B               	movf	(main@tf+1)^(0+384),w
  2756     0347  00F5               	movwf	___fladd@a+1
  2757     0348  082A               	movf	main@tf^(0+384),w
  2758     0349  00F4               	movwf	___fladd@a
  2759     034A  303F               	movlw	63
  2760     034B  00F3               	movwf	___fladd@b+3
  2761     034C  3000               	movlw	0
  2762     034D  00F2               	movwf	___fladd@b+2
  2763     034E  3000               	movlw	0
  2764     034F  00F1               	movwf	___fladd@b+1
  2765     0350  3000               	movlw	0
  2766     0351  00F0               	movwf	___fladd@b
  2767     0352  120A  158A  2262  120A  118A  	fcall	___fladd
  2768     0357  0873               	movf	?___fladd+3,w
  2769     0358  1283               	bcf	3,5	;RP0=0, select bank0
  2770     0359  1303               	bcf	3,6	;RP1=0, select bank0
  2771     035A  00AB               	movwf	___fltol@f1+3
  2772     035B  0872               	movf	?___fladd+2,w
  2773     035C  00AA               	movwf	___fltol@f1+2
  2774     035D  0871               	movf	?___fladd+1,w
  2775     035E  00A9               	movwf	___fltol@f1+1
  2776     035F  0870               	movf	?___fladd,w
  2777     0360  00A8               	movwf	___fltol@f1
  2778     0361  160A  118A  2102  120A  118A  	fcall	___fltol
  2779     0366  1283               	bcf	3,5	;RP0=0, select bank0
  2780     0367  1303               	bcf	3,6	;RP1=0, select bank0
  2781     0368  0829               	movf	?___fltol+1,w
  2782     0369  1683               	bsf	3,5	;RP0=1, select bank3
  2783     036A  1703               	bsf	3,6	;RP1=1, select bank3
  2784     036B  00B3               	movwf	(main@T+1)^(0+384)
  2785     036C  1283               	bcf	3,5	;RP0=0, select bank0
  2786     036D  1303               	bcf	3,6	;RP1=0, select bank0
  2787     036E  0828               	movf	?___fltol,w
  2788     036F  1683               	bsf	3,5	;RP0=1, select bank3
  2789     0370  1703               	bsf	3,6	;RP1=1, select bank3
  2790     0371  00B2               	movwf	main@T^(0+384)
  2791                           
  2792                           ;main.c: 118:                 sd_ok = 0;
  2793     0372  1683               	bsf	3,5	;RP0=1, select bank1
  2794     0373  1303               	bcf	3,6	;RP1=0, select bank1
  2795     0374  086F               	movf	(main@hf+3)^(0+128),w
  2796     0375  00F7               	movwf	___fladd@a+3
  2797     0376  086E               	movf	(main@hf+2)^(0+128),w
  2798     0377  00F6               	movwf	___fladd@a+2
  2799     0378  086D               	movf	(main@hf+1)^(0+128),w
  2800     0379  00F5               	movwf	___fladd@a+1
  2801     037A  086C               	movf	main@hf^(0+128),w
  2802     037B  00F4               	movwf	___fladd@a
  2803     037C  303F               	movlw	63
  2804     037D  00F3               	movwf	___fladd@b+3
  2805     037E  3000               	movlw	0
  2806     037F  00F2               	movwf	___fladd@b+2
  2807     0380  3000               	movlw	0
  2808     0381  00F1               	movwf	___fladd@b+1
  2809     0382  3000               	movlw	0
  2810     0383  00F0               	movwf	___fladd@b
  2811     0384  120A  158A  2262  120A  118A  	fcall	___fladd
  2812     0389  0873               	movf	?___fladd+3,w
  2813     038A  1283               	bcf	3,5	;RP0=0, select bank0
  2814     038B  1303               	bcf	3,6	;RP1=0, select bank0
  2815     038C  00AB               	movwf	___fltol@f1+3
  2816     038D  0872               	movf	?___fladd+2,w
  2817     038E  00AA               	movwf	___fltol@f1+2
  2818     038F  0871               	movf	?___fladd+1,w
  2819     0390  00A9               	movwf	___fltol@f1+1
  2820     0391  0870               	movf	?___fladd,w
  2821     0392  00A8               	movwf	___fltol@f1
  2822     0393  160A  118A  2102  120A  118A  	fcall	___fltol
  2823     0398  1283               	bcf	3,5	;RP0=0, select bank0
  2824     0399  1303               	bcf	3,6	;RP1=0, select bank0
  2825     039A  0829               	movf	?___fltol+1,w
  2826     039B  1683               	bsf	3,5	;RP0=1, select bank3
  2827     039C  1703               	bsf	3,6	;RP1=1, select bank3
  2828     039D  00B5               	movwf	(main@H+1)^(0+384)
  2829     039E  1283               	bcf	3,5	;RP0=0, select bank0
  2830     039F  1303               	bcf	3,6	;RP1=0, select bank0
  2831     03A0  0828               	movf	?___fltol,w
  2832     03A1  1683               	bsf	3,5	;RP0=1, select bank3
  2833     03A2  1703               	bsf	3,6	;RP1=1, select bank3
  2834     03A3  00B4               	movwf	main@H^(0+384)
  2835     03A4                     l6086:
  2836                           
  2837                           ;main.c: 119:                 LCD_cmd(0x01);
  2838     03A4  01AE               	clrf	main@first^(0+384)
  2839                           
  2840                           ;main.c: 120:                 _delay((unsigned long)((2)*(20000000/4000.0)));
  2841     03A5  2BAA               	goto	l6088
  2842     03A6                     l62:
  2843                           
  2844                           ;main.c: 121:                 LCD_goto(0x00);
  2845     03A6  3001               	movlw	1
  2846     03A7  1683               	bsf	3,5	;RP0=1, select bank3
  2847     03A8  1703               	bsf	3,6	;RP1=1, select bank3
  2848     03A9  00AE               	movwf	main@first^(0+384)
  2849     03AA                     l6088:
  2850                           
  2851                           ;main.c: 123:                 LCD_goto(0x40);
  2852     03AA  1683               	bsf	3,5	;RP0=1, select bank1
  2853     03AB  1303               	bcf	3,6	;RP1=0, select bank1
  2854     03AC  01EA               	clrf	main@dhtCnt^(0+128)
  2855     03AD                     l6090:
  2856                           
  2857                           ;main.c: 125:                 _delay((unsigned long)((2000)*(20000000/4000.0)));
  2858     03AD  3001               	movlw	1
  2859     03AE  07EA               	addwf	main@dhtCnt^(0+128),f
  2860     03AF                     l6092:
  2861                           
  2862                           ;main.c: 127:                 _delay((unsigned long)((2)*(20000000/4000.0)));
  2863     03AF  1683               	bsf	3,5	;RP0=1, select bank3
  2864     03B0  1703               	bsf	3,6	;RP1=1, select bank3
  2865     03B1  083C               	movf	main@sd_ok^(0+384),w
  2866     03B2  1903               	btfsc	3,2
  2867     03B3  2BB5               	goto	u9031
  2868     03B4  2BB6               	goto	u9030
  2869     03B5                     u9031:
  2870     03B5  2D9B               	goto	l6152
  2871     03B6                     u9030:
  2872     03B6                     l6094:
  2873     03B6  082E               	movf	main@first^(0+384),w
  2874     03B7  1D03               	btfss	3,2
  2875     03B8  2BBA               	goto	u9041
  2876     03B9  2BBB               	goto	u9040
  2877     03BA                     u9041:
  2878     03BA  2D9B               	goto	l6152
  2879     03BB                     u9040:
  2880     03BB                     l6096:
  2881     03BB  0821               	movf	main@sd_removed^(0+384),w
  2882     03BC  1D03               	btfss	3,2
  2883     03BD  2BBF               	goto	u9051
  2884     03BE  2BC0               	goto	u9050
  2885     03BF                     u9051:
  2886     03BF  2D9B               	goto	l6152
  2887     03C0                     u9050:
  2888     03C0                     l6098:
  2889                           
  2890                           ;main.c: 129:                 int16_t diff = m - ultimo_min;
  2891     03C0  0829               	movf	main@iniciado^(0+384),w
  2892     03C1  1D03               	btfss	3,2
  2893     03C2  2BC4               	goto	u9061
  2894     03C3  2BC5               	goto	u9060
  2895     03C4                     u9061:
  2896     03C4  2BCD               	goto	l6104
  2897     03C5                     u9060:
  2898     03C5                     l6100:
  2899                           
  2900                           ;main.c: 130:                 if(diff < 0) diff += 60;
  2901     03C5  083E               	movf	main@m^(0+384),w
  2902     03C6  00A8               	movwf	main@min_inicio^(0+384)
  2903                           
  2904                           ;main.c: 131: 
  2905     03C7  083D               	movf	main@h^(0+384),w
  2906     03C8  00B6               	movwf	main@h_inicio^(0+384)
  2907                           
  2908                           ;main.c: 132:                 if(diff >= 5) {
  2909     03C9  083E               	movf	main@m^(0+384),w
  2910     03CA  00B0               	movwf	main@ultimo_min^(0+384)
  2911     03CB                     l6102:
  2912                           
  2913                           ;main.c: 133:                     sprintf(line, "%u,%02u/%02u/20%02u,%02u:%02u:%02u,%d,%
      +                          d\r\n",
  2914     03CB  3001               	movlw	1
  2915     03CC  00A9               	movwf	main@iniciado^(0+384)
  2916     03CD                     l6104:
  2917                           
  2918                           ;main.c: 136:                     reg++;
  2919     03CD  1683               	bsf	3,5	;RP0=1, select bank1
  2920     03CE  1303               	bcf	3,6	;RP1=0, select bank1
  2921     03CF  01E8               	clrf	main@min_total^(0+128)
  2922     03D0  01E9               	clrf	(main@min_total+1)^(0+128)
  2923     03D1                     l6106:
  2924                           
  2925                           ;main.c: 137:                     ultimo_min = m;
  2926     03D1  1683               	bsf	3,5	;RP0=1, select bank3
  2927     03D2  1703               	bsf	3,6	;RP1=1, select bank3
  2928     03D3  0836               	movf	main@h_inicio^(0+384),w
  2929     03D4  023D               	subwf	main@h^(0+384),w
  2930     03D5  1C03               	skipc
  2931     03D6  2BD8               	goto	u9071
  2932     03D7  2BD9               	goto	u9070
  2933     03D8                     u9071:
  2934     03D8  2C21               	goto	l6110
  2935     03D9                     u9070:
  2936     03D9                     l6108:
  2937                           
  2938                           ;main.c: 138:                     saved = 1;
  2939     03D9  083D               	movf	main@h^(0+384),w
  2940     03DA  1683               	bsf	3,5	;RP0=1, select bank1
  2941     03DB  1303               	bcf	3,6	;RP1=0, select bank1
  2942     03DC  00AF               	movwf	??_main^(0+128)
  2943     03DD  01B0               	clrf	(??_main+1)^(0+128)
  2944     03DE  082F               	movf	??_main^(0+128),w
  2945     03DF  00F0               	movwf	___wmul@multiplier
  2946     03E0  0830               	movf	(??_main+1)^(0+128),w
  2947     03E1  00F1               	movwf	___wmul@multiplier+1
  2948     03E2  303C               	movlw	60
  2949     03E3  00F2               	movwf	___wmul@multiplicand
  2950     03E4  3000               	movlw	0
  2951     03E5  00F3               	movwf	___wmul@multiplicand+1
  2952     03E6  160A  158A  2430  120A  118A  	fcall	___wmul
  2953     03EB  1683               	bsf	3,5	;RP0=1, select bank3
  2954     03EC  1703               	bsf	3,6	;RP1=1, select bank3
  2955     03ED  083E               	movf	main@m^(0+384),w
  2956     03EE  0770               	addwf	?___wmul,w
  2957     03EF  1683               	bsf	3,5	;RP0=1, select bank1
  2958     03F0  1303               	bcf	3,6	;RP1=0, select bank1
  2959     03F1  00B1               	movwf	(??_main+2)^(0+128)
  2960     03F2  3000               	movlw	0
  2961     03F3  1803               	skipnc
  2962     03F4  3001               	movlw	1
  2963     03F5  0771               	addwf	?___wmul+1,w
  2964     03F6  00B2               	movwf	(??_main+3)^(0+128)
  2965     03F7  1683               	bsf	3,5	;RP0=1, select bank3
  2966     03F8  1703               	bsf	3,6	;RP1=1, select bank3
  2967     03F9  0836               	movf	main@h_inicio^(0+384),w
  2968     03FA  1683               	bsf	3,5	;RP0=1, select bank1
  2969     03FB  1303               	bcf	3,6	;RP1=0, select bank1
  2970     03FC  00B3               	movwf	(??_main+4)^(0+128)
  2971     03FD  01B4               	clrf	(??_main+5)^(0+128)
  2972     03FE  0833               	movf	(??_main+4)^(0+128),w
  2973     03FF  00F0               	movwf	___wmul@multiplier
  2974     0400  0834               	movf	(??_main+5)^(0+128),w
  2975     0401  00F1               	movwf	___wmul@multiplier+1
  2976     0402  30C4               	movlw	196
  2977     0403  00F2               	movwf	___wmul@multiplicand
  2978     0404  30FF               	movlw	255
  2979     0405  00F3               	movwf	___wmul@multiplicand+1
  2980     0406  160A  158A  2430  120A  118A  	fcall	___wmul
  2981     040B  0870               	movf	?___wmul,w
  2982     040C  1683               	bsf	3,5	;RP0=1, select bank1
  2983     040D  1303               	bcf	3,6	;RP1=0, select bank1
  2984     040E  0731               	addwf	(??_main+2)^(0+128),w
  2985     040F  00B5               	movwf	(??_main+6)^(0+128)
  2986     0410  0871               	movf	?___wmul+1,w
  2987     0411  1803               	skipnc
  2988     0412  0A71               	incf	?___wmul+1,w
  2989     0413  0732               	addwf	(??_main+3)^(0+128),w
  2990     0414  00B6               	movwf	(??_main+7)^(0+128)
  2991     0415  1683               	bsf	3,5	;RP0=1, select bank3
  2992     0416  1703               	bsf	3,6	;RP1=1, select bank3
  2993     0417  0828               	movf	main@min_inicio^(0+384),w
  2994     0418  1683               	bsf	3,5	;RP0=1, select bank1
  2995     0419  1303               	bcf	3,6	;RP1=0, select bank1
  2996     041A  0235               	subwf	(??_main+6)^(0+128),w
  2997     041B  00E8               	movwf	main@min_total^(0+128)
  2998     041C  0836               	movf	(??_main+7)^(0+128),w
  2999     041D  1C03               	skipc
  3000     041E  0336               	decf	(??_main+7)^(0+128),w
  3001     041F  00E9               	movwf	(main@min_total+1)^(0+128)
  3002                           
  3003                           ;main.c: 139:                     timer = 0;
  3004     0420  2C70               	goto	l6112
  3005     0421                     l6110:
  3006                           
  3007                           ;main.c: 140:                 }
  3008     0421  083D               	movf	main@h^(0+384),w
  3009     0422  1683               	bsf	3,5	;RP0=1, select bank1
  3010     0423  1303               	bcf	3,6	;RP1=0, select bank1
  3011     0424  00AF               	movwf	??_main^(0+128)
  3012     0425  01B0               	clrf	(??_main+1)^(0+128)
  3013     0426  082F               	movf	??_main^(0+128),w
  3014     0427  00F0               	movwf	___wmul@multiplier
  3015     0428  0830               	movf	(??_main+1)^(0+128),w
  3016     0429  00F1               	movwf	___wmul@multiplier+1
  3017     042A  303C               	movlw	60
  3018     042B  00F2               	movwf	___wmul@multiplicand
  3019     042C  3000               	movlw	0
  3020     042D  00F3               	movwf	___wmul@multiplicand+1
  3021     042E  160A  158A  2430  120A  118A  	fcall	___wmul
  3022     0433  1683               	bsf	3,5	;RP0=1, select bank3
  3023     0434  1703               	bsf	3,6	;RP1=1, select bank3
  3024     0435  083E               	movf	main@m^(0+384),w
  3025     0436  0770               	addwf	?___wmul,w
  3026     0437  1683               	bsf	3,5	;RP0=1, select bank1
  3027     0438  1303               	bcf	3,6	;RP1=0, select bank1
  3028     0439  00B1               	movwf	(??_main+2)^(0+128)
  3029     043A  3000               	movlw	0
  3030     043B  1803               	skipnc
  3031     043C  3001               	movlw	1
  3032     043D  0771               	addwf	?___wmul+1,w
  3033     043E  00B2               	movwf	(??_main+3)^(0+128)
  3034     043F  1683               	bsf	3,5	;RP0=1, select bank3
  3035     0440  1703               	bsf	3,6	;RP1=1, select bank3
  3036     0441  0836               	movf	main@h_inicio^(0+384),w
  3037     0442  1683               	bsf	3,5	;RP0=1, select bank1
  3038     0443  1303               	bcf	3,6	;RP1=0, select bank1
  3039     0444  00B3               	movwf	(??_main+4)^(0+128)
  3040     0445  01B4               	clrf	(??_main+5)^(0+128)
  3041     0446  0833               	movf	(??_main+4)^(0+128),w
  3042     0447  00F0               	movwf	___wmul@multiplier
  3043     0448  0834               	movf	(??_main+5)^(0+128),w
  3044     0449  00F1               	movwf	___wmul@multiplier+1
  3045     044A  30C4               	movlw	196
  3046     044B  00F2               	movwf	___wmul@multiplicand
  3047     044C  30FF               	movlw	255
  3048     044D  00F3               	movwf	___wmul@multiplicand+1
  3049     044E  160A  158A  2430  120A  118A  	fcall	___wmul
  3050     0453  0870               	movf	?___wmul,w
  3051     0454  1683               	bsf	3,5	;RP0=1, select bank1
  3052     0455  1303               	bcf	3,6	;RP1=0, select bank1
  3053     0456  0731               	addwf	(??_main+2)^(0+128),w
  3054     0457  00B5               	movwf	(??_main+6)^(0+128)
  3055     0458  0871               	movf	?___wmul+1,w
  3056     0459  1803               	skipnc
  3057     045A  0A71               	incf	?___wmul+1,w
  3058     045B  0732               	addwf	(??_main+3)^(0+128),w
  3059     045C  00B6               	movwf	(??_main+7)^(0+128)
  3060     045D  0836               	movf	(??_main+7)^(0+128),w
  3061     045E  00B8               	movwf	(??_main+9)^(0+128)
  3062     045F  1683               	bsf	3,5	;RP0=1, select bank3
  3063     0460  1703               	bsf	3,6	;RP1=1, select bank3
  3064     0461  0828               	movf	main@min_inicio^(0+384),w
  3065     0462  1683               	bsf	3,5	;RP0=1, select bank1
  3066     0463  1303               	bcf	3,6	;RP1=0, select bank1
  3067     0464  0235               	subwf	(??_main+6)^(0+128),w
  3068     0465  00B7               	movwf	(??_main+8)^(0+128)
  3069     0466  1C03               	skipc
  3070     0467  03B8               	decf	(??_main+9)^(0+128),f
  3071     0468  0837               	movf	(??_main+8)^(0+128),w
  3072     0469  3EA0               	addlw	160
  3073     046A  00E8               	movwf	main@min_total^(0+128)
  3074     046B  0838               	movf	(??_main+9)^(0+128),w
  3075     046C  1803               	skipnc
  3076     046D  3E01               	addlw	1
  3077     046E  3E05               	addlw	5
  3078     046F  00E9               	movwf	(main@min_total+1)^(0+128)
  3079     0470                     l6112:
  3080                           
  3081                           ;main.c: 143: 
  3082     0470  3001               	movlw	1
  3083     0471  0269               	subwf	(main@min_total+1)^(0+128),w
  3084     0472  3068               	movlw	104
  3085     0473  1903               	skipnz
  3086     0474  0268               	subwf	main@min_total^(0+128),w
  3087     0475  1C03               	skipc
  3088     0476  2C78               	goto	u9081
  3089     0477  2C79               	goto	u9080
  3090     0478                     u9081:
  3091     0478  2CC9               	goto	l6134
  3092     0479                     u9080:
  3093     0479                     l6114:
  3094                           
  3095                           ;main.c: 144:         if(saved) {
  3096     0479  1683               	bsf	3,5	;RP0=1, select bank3
  3097     047A  1703               	bsf	3,6	;RP1=1, select bank3
  3098     047B  01BC               	clrf	main@sd_ok^(0+384)
  3099     047C                     l6116:
  3100                           
  3101                           ;main.c: 145:             timer++;
  3102     047C  3001               	movlw	1
  3103     047D  160A  158A  23A2  120A  118A  	fcall	_LCD_cmd
  3104     0482                     l6118:
  3105                           
  3106                           ;main.c: 146:             if(timer >= 50) {
  3107     0482  300D               	movlw	13
  3108     0483  1683               	bsf	3,5	;RP0=1, select bank1
  3109     0484  1303               	bcf	3,6	;RP1=0, select bank1
  3110     0485  00B0               	movwf	(??_main^(0+128)+1)
  3111     0486  30FB               	movlw	251
  3112     0487  00AF               	movwf	??_main^(0+128)
  3113     0488                     u9357:
  3114     0488  0BAF               	decfsz	??_main^(0+128),f
  3115     0489  2C88               	goto	u9357
  3116     048A  0BB0               	decfsz	(??_main^(0+128)+1),f
  3117     048B  2C88               	goto	u9357
  3118     048C                     l6120:
  3119                           
  3120                           ;main.c: 147:                 saved = 0;
  3121     048C  3000               	movlw	0
  3122     048D  120A  118A  2004  120A  118A  	fcall	_LCD_goto
  3123     0492                     l6122:
  3124                           
  3125                           ;main.c: 148:                 timer = 0;
  3126     0492  3036               	movlw	low (STR_7| (0+32768))
  3127     0493  00F5               	movwf	LCD_print@s
  3128     0494  3099               	movlw	high (STR_7| (0+32768))
  3129     0495  00F6               	movwf	LCD_print@s+1
  3130     0496  160A  158A  2455  120A  118A  	fcall	_LCD_print
  3131     049B                     l6124:
  3132                           
  3133                           ;main.c: 149:             }
  3134     049B  3040               	movlw	64
  3135     049C  120A  118A  2004  120A  118A  	fcall	_LCD_goto
  3136     04A1                     l6126:
  3137                           
  3138                           ;main.c: 150:         }
  3139     04A1  3043               	movlw	low (STR_8| (0+32768))
  3140     04A2  00F5               	movwf	LCD_print@s
  3141     04A3  3099               	movlw	high (STR_8| (0+32768))
  3142     04A4  00F6               	movwf	LCD_print@s+1
  3143     04A5  160A  158A  2455  120A  118A  	fcall	_LCD_print
  3144     04AA                     l6128:
  3145                           
  3146                           ;main.c: 151: 
  3147     04AA  3033               	movlw	51
  3148     04AB  1683               	bsf	3,5	;RP0=1, select bank1
  3149     04AC  1303               	bcf	3,6	;RP1=0, select bank1
  3150     04AD  00B1               	movwf	(??_main^(0+128)+2)
  3151     04AE  30BB               	movlw	187
  3152     04AF  00B0               	movwf	(??_main^(0+128)+1)
  3153     04B0  30DF               	movlw	223
  3154     04B1  00AF               	movwf	??_main^(0+128)
  3155     04B2                     u9367:
  3156     04B2  0BAF               	decfsz	??_main^(0+128),f
  3157     04B3  2CB2               	goto	u9367
  3158     04B4  0BB0               	decfsz	(??_main^(0+128)+1),f
  3159     04B5  2CB2               	goto	u9367
  3160     04B6  0BB1               	decfsz	(??_main^(0+128)+2),f
  3161     04B7  2CB2               	goto	u9367
  3162     04B8                     l6130:
  3163                           
  3164                           ;main.c: 152:         if(sd_ok && iniciado) {
  3165     04B8  3001               	movlw	1
  3166     04B9  160A  158A  23A2  120A  118A  	fcall	_LCD_cmd
  3167     04BE                     l6132:
  3168                           
  3169                           ;main.c: 153:             int16_t d2 = m - ultimo_min;
  3170     04BE  300D               	movlw	13
  3171     04BF  1683               	bsf	3,5	;RP0=1, select bank1
  3172     04C0  1303               	bcf	3,6	;RP1=0, select bank1
  3173     04C1  00B0               	movwf	(??_main^(0+128)+1)
  3174     04C2  30FB               	movlw	251
  3175     04C3  00AF               	movwf	??_main^(0+128)
  3176     04C4                     u9377:
  3177     04C4  0BAF               	decfsz	??_main^(0+128),f
  3178     04C5  2CC4               	goto	u9377
  3179     04C6  0BB0               	decfsz	(??_main^(0+128)+1),f
  3180     04C7  2CC4               	goto	u9377
  3181                           
  3182                           ;main.c: 154:             if(d2 < 0) d2 += 60;
  3183     04C8  2D9B               	goto	l6152
  3184     04C9                     l6134:
  3185                           
  3186                           ;main.c: 155:             min_rest = 5 - (uint8_t)d2;
  3187     04C9  1683               	bsf	3,5	;RP0=1, select bank3
  3188     04CA  1703               	bsf	3,6	;RP1=1, select bank3
  3189     04CB  0830               	movf	main@ultimo_min^(0+384),w
  3190     04CC  023E               	subwf	main@m^(0+384),w
  3191     04CD  00A4               	movwf	main@diff^(0+384)
  3192     04CE  01A5               	clrf	(main@diff^(0+384)+1)
  3193     04CF  1C03               	skipc
  3194     04D0  03A5               	decf	(main@diff+1)^(0+384),f
  3195     04D1                     l6136:
  3196                           
  3197                           ;main.c: 156:             if(min_rest > 5) min_rest = 0;
  3198     04D1  1FA5               	btfss	(main@diff+1)^(0+384),7
  3199     04D2  2CD4               	goto	u9091
  3200     04D3  2CD5               	goto	u9090
  3201     04D4                     u9091:
  3202     04D4  2CDB               	goto	l6140
  3203     04D5                     u9090:
  3204     04D5                     l6138:
  3205     04D5  303C               	movlw	60
  3206     04D6  07A4               	addwf	main@diff^(0+384),f
  3207     04D7  1803               	skipnc
  3208     04D8  0AA5               	incf	(main@diff+1)^(0+384),f
  3209     04D9  3000               	movlw	0
  3210     04DA  07A5               	addwf	(main@diff+1)^(0+384),f
  3211     04DB                     l6140:
  3212                           
  3213                           ;main.c: 158: 
  3214     04DB  0825               	movf	(main@diff+1)^(0+384),w
  3215     04DC  3A80               	xorlw	128
  3216     04DD  00FF               	movwf	btemp1
  3217     04DE  3080               	movlw	128
  3218     04DF  027F               	subwf	btemp1,w
  3219     04E0  1D03               	skipz
  3220     04E1  2CE4               	goto	u9105
  3221     04E2  3005               	movlw	5
  3222     04E3  0224               	subwf	main@diff^(0+384),w
  3223     04E4                     u9105:
  3224     04E4  1C03               	skipc
  3225     04E5  2CE7               	goto	u9101
  3226     04E6  2CE8               	goto	u9100
  3227     04E7                     u9101:
  3228     04E7  2D9B               	goto	l6152
  3229     04E8                     u9100:
  3230     04E8                     l6142:
  3231                           
  3232                           ;main.c: 159:         if(screen == 0) {
  3233     04E8  30BB               	movlw	(low (main@line| 0))& (0+255)
  3234     04E9  1283               	bcf	3,5	;RP0=0, select bank0
  3235     04EA  1303               	bcf	3,6	;RP1=0, select bank0
  3236     04EB  00D1               	movwf	sprintf@s
  3237     04EC  3000               	movlw	0
  3238     04ED  00D2               	movwf	sprintf@s+1
  3239     04EE  3000               	movlw	low (STR_9| (0+32768))
  3240     04EF  00D3               	movwf	sprintf@fmt
  3241     04F0  3098               	movlw	high (STR_9| (0+32768))
  3242     04F1  00D4               	movwf	sprintf@fmt+1
  3243     04F2  1683               	bsf	3,5	;RP0=1, select bank3
  3244     04F3  1703               	bsf	3,6	;RP1=1, select bank3
  3245     04F4  0823               	movf	(main@reg+1)^(0+384),w
  3246     04F5  1283               	bcf	3,5	;RP0=0, select bank0
  3247     04F6  1303               	bcf	3,6	;RP1=0, select bank0
  3248     04F7  00D6               	movwf	?_sprintf+5
  3249     04F8  1683               	bsf	3,5	;RP0=1, select bank3
  3250     04F9  1703               	bsf	3,6	;RP1=1, select bank3
  3251     04FA  0822               	movf	main@reg^(0+384),w
  3252     04FB  1283               	bcf	3,5	;RP0=0, select bank0
  3253     04FC  1303               	bcf	3,6	;RP1=0, select bank0
  3254     04FD  00D5               	movwf	?_sprintf+4
  3255     04FE  1683               	bsf	3,5	;RP0=1, select bank3
  3256     04FF  1703               	bsf	3,6	;RP1=1, select bank3
  3257     0500  0838               	movf	main@d^(0+384),w
  3258     0501  1683               	bsf	3,5	;RP0=1, select bank1
  3259     0502  1303               	bcf	3,6	;RP1=0, select bank1
  3260     0503  00AF               	movwf	??_main^(0+128)
  3261     0504  01B0               	clrf	(??_main+1)^(0+128)
  3262     0505  082F               	movf	??_main^(0+128),w
  3263     0506  1283               	bcf	3,5	;RP0=0, select bank0
  3264     0507  1303               	bcf	3,6	;RP1=0, select bank0
  3265     0508  00D7               	movwf	?_sprintf+6
  3266     0509  1683               	bsf	3,5	;RP0=1, select bank1
  3267     050A  1303               	bcf	3,6	;RP1=0, select bank1
  3268     050B  0830               	movf	(??_main+1)^(0+128),w
  3269     050C  1283               	bcf	3,5	;RP0=0, select bank0
  3270     050D  1303               	bcf	3,6	;RP1=0, select bank0
  3271     050E  00D8               	movwf	?_sprintf+7
  3272     050F  1683               	bsf	3,5	;RP0=1, select bank3
  3273     0510  1703               	bsf	3,6	;RP1=1, select bank3
  3274     0511  0839               	movf	main@mo^(0+384),w
  3275     0512  1683               	bsf	3,5	;RP0=1, select bank1
  3276     0513  1303               	bcf	3,6	;RP1=0, select bank1
  3277     0514  00B1               	movwf	(??_main+2)^(0+128)
  3278     0515  01B2               	clrf	(??_main+3)^(0+128)
  3279     0516  0831               	movf	(??_main+2)^(0+128),w
  3280     0517  1283               	bcf	3,5	;RP0=0, select bank0
  3281     0518  1303               	bcf	3,6	;RP1=0, select bank0
  3282     0519  00D9               	movwf	?_sprintf+8
  3283     051A  1683               	bsf	3,5	;RP0=1, select bank1
  3284     051B  1303               	bcf	3,6	;RP1=0, select bank1
  3285     051C  0832               	movf	(??_main+3)^(0+128),w
  3286     051D  1283               	bcf	3,5	;RP0=0, select bank0
  3287     051E  1303               	bcf	3,6	;RP1=0, select bank0
  3288     051F  00DA               	movwf	?_sprintf+9
  3289     0520  1683               	bsf	3,5	;RP0=1, select bank3
  3290     0521  1703               	bsf	3,6	;RP1=1, select bank3
  3291     0522  083A               	movf	main@y^(0+384),w
  3292     0523  1683               	bsf	3,5	;RP0=1, select bank1
  3293     0524  1303               	bcf	3,6	;RP1=0, select bank1
  3294     0525  00B3               	movwf	(??_main+4)^(0+128)
  3295     0526  01B4               	clrf	(??_main+5)^(0+128)
  3296     0527  0833               	movf	(??_main+4)^(0+128),w
  3297     0528  1283               	bcf	3,5	;RP0=0, select bank0
  3298     0529  1303               	bcf	3,6	;RP1=0, select bank0
  3299     052A  00DB               	movwf	?_sprintf+10
  3300     052B  1683               	bsf	3,5	;RP0=1, select bank1
  3301     052C  1303               	bcf	3,6	;RP1=0, select bank1
  3302     052D  0834               	movf	(??_main+5)^(0+128),w
  3303     052E  1283               	bcf	3,5	;RP0=0, select bank0
  3304     052F  1303               	bcf	3,6	;RP1=0, select bank0
  3305     0530  00DC               	movwf	?_sprintf+11
  3306     0531  1683               	bsf	3,5	;RP0=1, select bank3
  3307     0532  1703               	bsf	3,6	;RP1=1, select bank3
  3308     0533  083D               	movf	main@h^(0+384),w
  3309     0534  1683               	bsf	3,5	;RP0=1, select bank1
  3310     0535  1303               	bcf	3,6	;RP1=0, select bank1
  3311     0536  00B5               	movwf	(??_main+6)^(0+128)
  3312     0537  01B6               	clrf	(??_main+7)^(0+128)
  3313     0538  0835               	movf	(??_main+6)^(0+128),w
  3314     0539  1283               	bcf	3,5	;RP0=0, select bank0
  3315     053A  1303               	bcf	3,6	;RP1=0, select bank0
  3316     053B  00DD               	movwf	?_sprintf+12
  3317     053C  1683               	bsf	3,5	;RP0=1, select bank1
  3318     053D  1303               	bcf	3,6	;RP1=0, select bank1
  3319     053E  0836               	movf	(??_main+7)^(0+128),w
  3320     053F  1283               	bcf	3,5	;RP0=0, select bank0
  3321     0540  1303               	bcf	3,6	;RP1=0, select bank0
  3322     0541  00DE               	movwf	?_sprintf+13
  3323     0542  1683               	bsf	3,5	;RP0=1, select bank3
  3324     0543  1703               	bsf	3,6	;RP1=1, select bank3
  3325     0544  083E               	movf	main@m^(0+384),w
  3326     0545  1683               	bsf	3,5	;RP0=1, select bank1
  3327     0546  1303               	bcf	3,6	;RP1=0, select bank1
  3328     0547  00B7               	movwf	(??_main+8)^(0+128)
  3329     0548  01B8               	clrf	(??_main+9)^(0+128)
  3330     0549  0837               	movf	(??_main+8)^(0+128),w
  3331     054A  1283               	bcf	3,5	;RP0=0, select bank0
  3332     054B  1303               	bcf	3,6	;RP1=0, select bank0
  3333     054C  00DF               	movwf	?_sprintf+14
  3334     054D  1683               	bsf	3,5	;RP0=1, select bank1
  3335     054E  1303               	bcf	3,6	;RP1=0, select bank1
  3336     054F  0838               	movf	(??_main+9)^(0+128),w
  3337     0550  1283               	bcf	3,5	;RP0=0, select bank0
  3338     0551  1303               	bcf	3,6	;RP1=0, select bank0
  3339     0552  00E0               	movwf	?_sprintf+15
  3340     0553  1683               	bsf	3,5	;RP0=1, select bank3
  3341     0554  1703               	bsf	3,6	;RP1=1, select bank3
  3342     0555  0837               	movf	main@s^(0+384),w
  3343     0556  1683               	bsf	3,5	;RP0=1, select bank1
  3344     0557  1303               	bcf	3,6	;RP1=0, select bank1
  3345     0558  00B9               	movwf	(??_main+10)^(0+128)
  3346     0559  01BA               	clrf	(??_main+11)^(0+128)
  3347     055A  0839               	movf	(??_main+10)^(0+128),w
  3348     055B  1283               	bcf	3,5	;RP0=0, select bank0
  3349     055C  1303               	bcf	3,6	;RP1=0, select bank0
  3350     055D  00E1               	movwf	?_sprintf+16
  3351     055E  1683               	bsf	3,5	;RP0=1, select bank1
  3352     055F  1303               	bcf	3,6	;RP1=0, select bank1
  3353     0560  083A               	movf	(??_main+11)^(0+128),w
  3354     0561  1283               	bcf	3,5	;RP0=0, select bank0
  3355     0562  1303               	bcf	3,6	;RP1=0, select bank0
  3356     0563  00E2               	movwf	?_sprintf+17
  3357     0564  1683               	bsf	3,5	;RP0=1, select bank3
  3358     0565  1703               	bsf	3,6	;RP1=1, select bank3
  3359     0566  0833               	movf	(main@T+1)^(0+384),w
  3360     0567  1283               	bcf	3,5	;RP0=0, select bank0
  3361     0568  1303               	bcf	3,6	;RP1=0, select bank0
  3362     0569  00E4               	movwf	?_sprintf+19
  3363     056A  1683               	bsf	3,5	;RP0=1, select bank3
  3364     056B  1703               	bsf	3,6	;RP1=1, select bank3
  3365     056C  0832               	movf	main@T^(0+384),w
  3366     056D  1283               	bcf	3,5	;RP0=0, select bank0
  3367     056E  1303               	bcf	3,6	;RP1=0, select bank0
  3368     056F  00E3               	movwf	?_sprintf+18
  3369     0570  1683               	bsf	3,5	;RP0=1, select bank3
  3370     0571  1703               	bsf	3,6	;RP1=1, select bank3
  3371     0572  0835               	movf	(main@H+1)^(0+384),w
  3372     0573  1283               	bcf	3,5	;RP0=0, select bank0
  3373     0574  1303               	bcf	3,6	;RP1=0, select bank0
  3374     0575  00E6               	movwf	?_sprintf+21
  3375     0576  1683               	bsf	3,5	;RP0=1, select bank3
  3376     0577  1703               	bsf	3,6	;RP1=1, select bank3
  3377     0578  0834               	movf	main@H^(0+384),w
  3378     0579  1283               	bcf	3,5	;RP0=0, select bank0
  3379     057A  1303               	bcf	3,6	;RP1=0, select bank0
  3380     057B  00E5               	movwf	?_sprintf+20
  3381     057C  160A  158A  257C  120A  118A  	fcall	_sprintf
  3382                           
  3383                           ;main.c: 161:             sprintf(buf, "   %02u:%02u:%02u   ", h, m, s);
  3384     0581  30BB               	movlw	(low (main@line| 0))& (0+255)
  3385     0582  1283               	bcf	3,5	;RP0=0, select bank0
  3386     0583  1303               	bcf	3,6	;RP1=0, select bank0
  3387     0584  00A4               	movwf	SD_AppendText@text
  3388     0585  3000               	movlw	0
  3389     0586  00A5               	movwf	SD_AppendText@text+1
  3390     0587  160A  118A  2513  120A  118A  	fcall	_SD_AppendText
  3391     058C                     l6144:
  3392                           
  3393                           ;main.c: 162:             LCD_print(buf);
  3394     058C  3001               	movlw	1
  3395     058D  1683               	bsf	3,5	;RP0=1, select bank3
  3396     058E  1703               	bsf	3,6	;RP1=1, select bank3
  3397     058F  07A2               	addwf	main@reg^(0+384),f
  3398     0590  1803               	skipnc
  3399     0591  0AA3               	incf	(main@reg+1)^(0+384),f
  3400     0592  3000               	movlw	0
  3401     0593  07A3               	addwf	(main@reg+1)^(0+384),f
  3402     0594                     l6146:
  3403                           
  3404                           ;main.c: 163:             LCD_goto(0x40);
  3405     0594  083E               	movf	main@m^(0+384),w
  3406     0595  00B0               	movwf	main@ultimo_min^(0+384)
  3407     0596                     l6148:
  3408                           
  3409                           ;main.c: 164:             sprintf(buf, "  %02u/%02u/20%02u  ", d, mo, y);
  3410     0596  3001               	movlw	1
  3411     0597  00AF               	movwf	main@saved^(0+384)
  3412     0598                     l6150:
  3413                           
  3414                           ;main.c: 165:             LCD_print(buf);
  3415     0598  1683               	bsf	3,5	;RP0=1, select bank1
  3416     0599  1303               	bcf	3,6	;RP1=0, select bank1
  3417     059A  01EB               	clrf	main@timer^(0+128)
  3418     059B                     l6152:
  3419                           
  3420                           ;main.c: 170:                 LCD_print("T:--C  H:--%   ");
  3421     059B  1683               	bsf	3,5	;RP0=1, select bank3
  3422     059C  1703               	bsf	3,6	;RP1=1, select bank3
  3423     059D  082F               	movf	main@saved^(0+384),w
  3424     059E  1903               	btfsc	3,2
  3425     059F  2DA1               	goto	u9111
  3426     05A0  2DA2               	goto	u9110
  3427     05A1                     u9111:
  3428     05A1  2DB2               	goto	l6160
  3429     05A2                     u9110:
  3430     05A2                     l6154:
  3431                           
  3432                           ;main.c: 171:             } else {
  3433     05A2  3001               	movlw	1
  3434     05A3  1683               	bsf	3,5	;RP0=1, select bank1
  3435     05A4  1303               	bcf	3,6	;RP1=0, select bank1
  3436     05A5  07EB               	addwf	main@timer^(0+128),f
  3437     05A6                     l6156:
  3438                           
  3439                           ;main.c: 172:                 sprintf(buf, "T:%dC  H:%d%%   ", T, H);
  3440     05A6  3032               	movlw	50
  3441     05A7  026B               	subwf	main@timer^(0+128),w
  3442     05A8  1C03               	skipc
  3443     05A9  2DAB               	goto	u9121
  3444     05AA  2DAC               	goto	u9120
  3445     05AB                     u9121:
  3446     05AB  2DB2               	goto	l6160
  3447     05AC                     u9120:
  3448     05AC                     l6158:
  3449                           
  3450                           ;main.c: 173:                 LCD_print(buf);
  3451     05AC  1683               	bsf	3,5	;RP0=1, select bank3
  3452     05AD  1703               	bsf	3,6	;RP1=1, select bank3
  3453     05AE  01AF               	clrf	main@saved^(0+384)
  3454                           
  3455                           ;main.c: 174:             }
  3456     05AF  1683               	bsf	3,5	;RP0=1, select bank1
  3457     05B0  1303               	bcf	3,6	;RP1=0, select bank1
  3458     05B1  01EB               	clrf	main@timer^(0+128)
  3459     05B2                     l6160:
  3460                           
  3461                           ;main.c: 178:                 LCD_print("SD RETIRADA     ");
  3462     05B2  1683               	bsf	3,5	;RP0=1, select bank3
  3463     05B3  1703               	bsf	3,6	;RP1=1, select bank3
  3464     05B4  083C               	movf	main@sd_ok^(0+384),w
  3465     05B5  1903               	btfsc	3,2
  3466     05B6  2DB8               	goto	u9131
  3467     05B7  2DB9               	goto	u9130
  3468     05B8                     u9131:
  3469     05B8  2DD8               	goto	l6176
  3470     05B9                     u9130:
  3471     05B9                     l6162:
  3472     05B9  0829               	movf	main@iniciado^(0+384),w
  3473     05BA  1903               	btfsc	3,2
  3474     05BB  2DBD               	goto	u9141
  3475     05BC  2DBE               	goto	u9140
  3476     05BD                     u9141:
  3477     05BD  2DD8               	goto	l6176
  3478     05BE                     u9140:
  3479     05BE                     l6164:
  3480                           
  3481                           ;main.c: 179:             } else if(!sd_ok) {
  3482     05BE  0830               	movf	main@ultimo_min^(0+384),w
  3483     05BF  023E               	subwf	main@m^(0+384),w
  3484     05C0  00A6               	movwf	main@d2^(0+384)
  3485     05C1  01A7               	clrf	(main@d2^(0+384)+1)
  3486     05C2  1C03               	skipc
  3487     05C3  03A7               	decf	(main@d2+1)^(0+384),f
  3488     05C4                     l6166:
  3489                           
  3490                           ;main.c: 180:                 LCD_print("Finalizado      ");
  3491     05C4  1FA7               	btfss	(main@d2+1)^(0+384),7
  3492     05C5  2DC7               	goto	u9151
  3493     05C6  2DC8               	goto	u9150
  3494     05C7                     u9151:
  3495     05C7  2DCE               	goto	l6170
  3496     05C8                     u9150:
  3497     05C8                     l6168:
  3498     05C8  303C               	movlw	60
  3499     05C9  07A6               	addwf	main@d2^(0+384),f
  3500     05CA  1803               	skipnc
  3501     05CB  0AA7               	incf	(main@d2+1)^(0+384),f
  3502     05CC  3000               	movlw	0
  3503     05CD  07A7               	addwf	(main@d2+1)^(0+384),f
  3504     05CE                     l6170:
  3505                           
  3506                           ;main.c: 181:             } else {
  3507     05CE  0826               	movf	main@d2^(0+384),w
  3508     05CF  3C05               	sublw	5
  3509     05D0  00B1               	movwf	main@min_rest^(0+384)
  3510     05D1                     l6172:
  3511                           
  3512                           ;main.c: 182:                 if(saved) {
  3513     05D1  3006               	movlw	6
  3514     05D2  0231               	subwf	main@min_rest^(0+384),w
  3515     05D3  1C03               	skipc
  3516     05D4  2DD6               	goto	u9161
  3517     05D5  2DD7               	goto	u9160
  3518     05D6                     u9161:
  3519     05D6  2DD8               	goto	l6176
  3520     05D7                     u9160:
  3521     05D7                     l6174:
  3522     05D7  01B1               	clrf	main@min_rest^(0+384)
  3523     05D8                     l6176:
  3524                           
  3525                           ;main.c: 185:                     sprintf(buf, "Prox:%umin     ", min_rest);
  3526     05D8  083B               	movf	main@screen^(0+384),w
  3527     05D9  1D03               	btfss	3,2
  3528     05DA  2DDC               	goto	u9171
  3529     05DB  2DDD               	goto	u9170
  3530     05DC                     u9171:
  3531     05DC  2E80               	goto	l6188
  3532     05DD                     u9170:
  3533     05DD                     l6178:
  3534                           
  3535                           ;main.c: 186:                     LCD_print(buf);
  3536     05DD  3000               	movlw	0
  3537     05DE  120A  118A  2004  120A  118A  	fcall	_LCD_goto
  3538     05E3                     l6180:
  3539                           
  3540                           ;main.c: 187:                 }
  3541     05E3  3090               	movlw	(low (main@buf| (0+256)))& (0+255)
  3542     05E4  1283               	bcf	3,5	;RP0=0, select bank0
  3543     05E5  1303               	bcf	3,6	;RP1=0, select bank0
  3544     05E6  00D1               	movwf	sprintf@s
  3545     05E7  3001               	movlw	1
  3546     05E8  00D2               	movwf	sprintf@s+1
  3547     05E9  305B               	movlw	low (STR_10| (0+32768))
  3548     05EA  00D3               	movwf	sprintf@fmt
  3549     05EB  3098               	movlw	high (STR_10| (0+32768))
  3550     05EC  00D4               	movwf	sprintf@fmt+1
  3551     05ED  1683               	bsf	3,5	;RP0=1, select bank3
  3552     05EE  1703               	bsf	3,6	;RP1=1, select bank3
  3553     05EF  083D               	movf	main@h^(0+384),w
  3554     05F0  1683               	bsf	3,5	;RP0=1, select bank1
  3555     05F1  1303               	bcf	3,6	;RP1=0, select bank1
  3556     05F2  00AF               	movwf	??_main^(0+128)
  3557     05F3  01B0               	clrf	(??_main+1)^(0+128)
  3558     05F4  082F               	movf	??_main^(0+128),w
  3559     05F5  1283               	bcf	3,5	;RP0=0, select bank0
  3560     05F6  1303               	bcf	3,6	;RP1=0, select bank0
  3561     05F7  00D5               	movwf	?_sprintf+4
  3562     05F8  1683               	bsf	3,5	;RP0=1, select bank1
  3563     05F9  1303               	bcf	3,6	;RP1=0, select bank1
  3564     05FA  0830               	movf	(??_main+1)^(0+128),w
  3565     05FB  1283               	bcf	3,5	;RP0=0, select bank0
  3566     05FC  1303               	bcf	3,6	;RP1=0, select bank0
  3567     05FD  00D6               	movwf	?_sprintf+5
  3568     05FE  1683               	bsf	3,5	;RP0=1, select bank3
  3569     05FF  1703               	bsf	3,6	;RP1=1, select bank3
  3570     0600  083E               	movf	main@m^(0+384),w
  3571     0601  1683               	bsf	3,5	;RP0=1, select bank1
  3572     0602  1303               	bcf	3,6	;RP1=0, select bank1
  3573     0603  00B1               	movwf	(??_main+2)^(0+128)
  3574     0604  01B2               	clrf	(??_main+3)^(0+128)
  3575     0605  0831               	movf	(??_main+2)^(0+128),w
  3576     0606  1283               	bcf	3,5	;RP0=0, select bank0
  3577     0607  1303               	bcf	3,6	;RP1=0, select bank0
  3578     0608  00D7               	movwf	?_sprintf+6
  3579     0609  1683               	bsf	3,5	;RP0=1, select bank1
  3580     060A  1303               	bcf	3,6	;RP1=0, select bank1
  3581     060B  0832               	movf	(??_main+3)^(0+128),w
  3582     060C  1283               	bcf	3,5	;RP0=0, select bank0
  3583     060D  1303               	bcf	3,6	;RP1=0, select bank0
  3584     060E  00D8               	movwf	?_sprintf+7
  3585     060F  1683               	bsf	3,5	;RP0=1, select bank3
  3586     0610  1703               	bsf	3,6	;RP1=1, select bank3
  3587     0611  0837               	movf	main@s^(0+384),w
  3588     0612  1683               	bsf	3,5	;RP0=1, select bank1
  3589     0613  1303               	bcf	3,6	;RP1=0, select bank1
  3590     0614  00B3               	movwf	(??_main+4)^(0+128)
  3591     0615  01B4               	clrf	(??_main+5)^(0+128)
  3592     0616  0833               	movf	(??_main+4)^(0+128),w
  3593     0617  1283               	bcf	3,5	;RP0=0, select bank0
  3594     0618  1303               	bcf	3,6	;RP1=0, select bank0
  3595     0619  00D9               	movwf	?_sprintf+8
  3596     061A  1683               	bsf	3,5	;RP0=1, select bank1
  3597     061B  1303               	bcf	3,6	;RP1=0, select bank1
  3598     061C  0834               	movf	(??_main+5)^(0+128),w
  3599     061D  1283               	bcf	3,5	;RP0=0, select bank0
  3600     061E  1303               	bcf	3,6	;RP1=0, select bank0
  3601     061F  00DA               	movwf	?_sprintf+9
  3602     0620  160A  158A  257C  120A  118A  	fcall	_sprintf
  3603     0625                     l6182:
  3604                           
  3605                           ;main.c: 188:             }
  3606     0625  3090               	movlw	(low (main@buf| (0+256)))& (0+255)
  3607     0626  00F5               	movwf	LCD_print@s
  3608     0627  3001               	movlw	1
  3609     0628  00F6               	movwf	LCD_print@s+1
  3610     0629  160A  158A  2455  120A  118A  	fcall	_LCD_print
  3611                           
  3612                           ;main.c: 189: 
  3613     062E  3040               	movlw	64
  3614     062F  120A  118A  2004  120A  118A  	fcall	_LCD_goto
  3615     0634                     l6184:
  3616                           
  3617                           ;main.c: 190:         } else {
  3618     0634  3090               	movlw	(low (main@buf| (0+256)))& (0+255)
  3619     0635  1283               	bcf	3,5	;RP0=0, select bank0
  3620     0636  1303               	bcf	3,6	;RP1=0, select bank0
  3621     0637  00D1               	movwf	sprintf@s
  3622     0638  3001               	movlw	1
  3623     0639  00D2               	movwf	sprintf@s+1
  3624     063A  3070               	movlw	low (STR_11| (0+32768))
  3625     063B  00D3               	movwf	sprintf@fmt
  3626     063C  3098               	movlw	high (STR_11| (0+32768))
  3627     063D  00D4               	movwf	sprintf@fmt+1
  3628     063E  1683               	bsf	3,5	;RP0=1, select bank3
  3629     063F  1703               	bsf	3,6	;RP1=1, select bank3
  3630     0640  0838               	movf	main@d^(0+384),w
  3631     0641  1683               	bsf	3,5	;RP0=1, select bank1
  3632     0642  1303               	bcf	3,6	;RP1=0, select bank1
  3633     0643  00AF               	movwf	??_main^(0+128)
  3634     0644  01B0               	clrf	(??_main+1)^(0+128)
  3635     0645  082F               	movf	??_main^(0+128),w
  3636     0646  1283               	bcf	3,5	;RP0=0, select bank0
  3637     0647  1303               	bcf	3,6	;RP1=0, select bank0
  3638     0648  00D5               	movwf	?_sprintf+4
  3639     0649  1683               	bsf	3,5	;RP0=1, select bank1
  3640     064A  1303               	bcf	3,6	;RP1=0, select bank1
  3641     064B  0830               	movf	(??_main+1)^(0+128),w
  3642     064C  1283               	bcf	3,5	;RP0=0, select bank0
  3643     064D  1303               	bcf	3,6	;RP1=0, select bank0
  3644     064E  00D6               	movwf	?_sprintf+5
  3645     064F  1683               	bsf	3,5	;RP0=1, select bank3
  3646     0650  1703               	bsf	3,6	;RP1=1, select bank3
  3647     0651  0839               	movf	main@mo^(0+384),w
  3648     0652  1683               	bsf	3,5	;RP0=1, select bank1
  3649     0653  1303               	bcf	3,6	;RP1=0, select bank1
  3650     0654  00B1               	movwf	(??_main+2)^(0+128)
  3651     0655  01B2               	clrf	(??_main+3)^(0+128)
  3652     0656  0831               	movf	(??_main+2)^(0+128),w
  3653     0657  1283               	bcf	3,5	;RP0=0, select bank0
  3654     0658  1303               	bcf	3,6	;RP1=0, select bank0
  3655     0659  00D7               	movwf	?_sprintf+6
  3656     065A  1683               	bsf	3,5	;RP0=1, select bank1
  3657     065B  1303               	bcf	3,6	;RP1=0, select bank1
  3658     065C  0832               	movf	(??_main+3)^(0+128),w
  3659     065D  1283               	bcf	3,5	;RP0=0, select bank0
  3660     065E  1303               	bcf	3,6	;RP1=0, select bank0
  3661     065F  00D8               	movwf	?_sprintf+7
  3662     0660  1683               	bsf	3,5	;RP0=1, select bank3
  3663     0661  1703               	bsf	3,6	;RP1=1, select bank3
  3664     0662  083A               	movf	main@y^(0+384),w
  3665     0663  1683               	bsf	3,5	;RP0=1, select bank1
  3666     0664  1303               	bcf	3,6	;RP1=0, select bank1
  3667     0665  00B3               	movwf	(??_main+4)^(0+128)
  3668     0666  01B4               	clrf	(??_main+5)^(0+128)
  3669     0667  0833               	movf	(??_main+4)^(0+128),w
  3670     0668  1283               	bcf	3,5	;RP0=0, select bank0
  3671     0669  1303               	bcf	3,6	;RP1=0, select bank0
  3672     066A  00D9               	movwf	?_sprintf+8
  3673     066B  1683               	bsf	3,5	;RP0=1, select bank1
  3674     066C  1303               	bcf	3,6	;RP1=0, select bank1
  3675     066D  0834               	movf	(??_main+5)^(0+128),w
  3676     066E  1283               	bcf	3,5	;RP0=0, select bank0
  3677     066F  1303               	bcf	3,6	;RP1=0, select bank0
  3678     0670  00DA               	movwf	?_sprintf+9
  3679     0671  160A  158A  257C  120A  118A  	fcall	_sprintf
  3680     0676                     l6186:
  3681                           
  3682                           ;main.c: 191:             LCD_goto(0x00);
  3683     0676  3090               	movlw	(low (main@buf| (0+256)))& (0+255)
  3684     0677  00F5               	movwf	LCD_print@s
  3685     0678  3001               	movlw	1
  3686     0679  00F6               	movwf	LCD_print@s+1
  3687     067A  160A  158A  2455  120A  118A  	fcall	_LCD_print
  3688                           
  3689                           ;main.c: 193:             LCD_print(buf);
  3690     067F  2FC2               	goto	l6226
  3691     0680                     l6188:
  3692     0680  033B               	decf	main@screen^(0+384),w
  3693     0681  1D03               	btfss	3,2
  3694     0682  2E84               	goto	u9181
  3695     0683  2E85               	goto	u9180
  3696     0684                     u9181:
  3697     0684  2F2B               	goto	l6214
  3698     0685                     u9180:
  3699     0685                     l6190:
  3700                           
  3701                           ;main.c: 194: 
  3702     0685  3000               	movlw	0
  3703     0686  120A  118A  2004  120A  118A  	fcall	_LCD_goto
  3704     068B                     l6192:
  3705                           
  3706                           ;main.c: 195:             LCD_goto(0x40);
  3707     068B  1683               	bsf	3,5	;RP0=1, select bank3
  3708     068C  1703               	bsf	3,6	;RP1=1, select bank3
  3709     068D  082E               	movf	main@first^(0+384),w
  3710     068E  1903               	btfsc	3,2
  3711     068F  2E91               	goto	u9191
  3712     0690  2E92               	goto	u9190
  3713     0691                     u9191:
  3714     0691  2E9C               	goto	l6196
  3715     0692                     u9190:
  3716     0692                     l6194:
  3717                           
  3718                           ;main.c: 196:             if(!sd_ok) {
  3719     0692  30F9               	movlw	low (STR_12| (0+32768))
  3720     0693  00F5               	movwf	LCD_print@s
  3721     0694  3098               	movlw	high (STR_12| (0+32768))
  3722     0695  00F6               	movwf	LCD_print@s+1
  3723     0696  160A  158A  2455  120A  118A  	fcall	_LCD_print
  3724                           
  3725                           ;main.c: 197:                 LCD_print("FIN            ");
  3726     069B  2ECC               	goto	l6198
  3727     069C                     l6196:
  3728                           
  3729                           ;main.c: 198:             } else {
  3730     069C  3090               	movlw	(low (main@buf| (0+256)))& (0+255)
  3731     069D  1283               	bcf	3,5	;RP0=0, select bank0
  3732     069E  1303               	bcf	3,6	;RP1=0, select bank0
  3733     069F  00D1               	movwf	sprintf@s
  3734     06A0  3001               	movlw	1
  3735     06A1  00D2               	movwf	sprintf@s+1
  3736     06A2  30A7               	movlw	low (STR_13| (0+32768))
  3737     06A3  00D3               	movwf	sprintf@fmt
  3738     06A4  3098               	movlw	high (STR_13| (0+32768))
  3739     06A5  00D4               	movwf	sprintf@fmt+1
  3740     06A6  1683               	bsf	3,5	;RP0=1, select bank3
  3741     06A7  1703               	bsf	3,6	;RP1=1, select bank3
  3742     06A8  0833               	movf	(main@T+1)^(0+384),w
  3743     06A9  1283               	bcf	3,5	;RP0=0, select bank0
  3744     06AA  1303               	bcf	3,6	;RP1=0, select bank0
  3745     06AB  00D6               	movwf	?_sprintf+5
  3746     06AC  1683               	bsf	3,5	;RP0=1, select bank3
  3747     06AD  1703               	bsf	3,6	;RP1=1, select bank3
  3748     06AE  0832               	movf	main@T^(0+384),w
  3749     06AF  1283               	bcf	3,5	;RP0=0, select bank0
  3750     06B0  1303               	bcf	3,6	;RP1=0, select bank0
  3751     06B1  00D5               	movwf	?_sprintf+4
  3752     06B2  1683               	bsf	3,5	;RP0=1, select bank3
  3753     06B3  1703               	bsf	3,6	;RP1=1, select bank3
  3754     06B4  0835               	movf	(main@H+1)^(0+384),w
  3755     06B5  1283               	bcf	3,5	;RP0=0, select bank0
  3756     06B6  1303               	bcf	3,6	;RP1=0, select bank0
  3757     06B7  00D8               	movwf	?_sprintf+7
  3758     06B8  1683               	bsf	3,5	;RP0=1, select bank3
  3759     06B9  1703               	bsf	3,6	;RP1=1, select bank3
  3760     06BA  0834               	movf	main@H^(0+384),w
  3761     06BB  1283               	bcf	3,5	;RP0=0, select bank0
  3762     06BC  1303               	bcf	3,6	;RP1=0, select bank0
  3763     06BD  00D7               	movwf	?_sprintf+6
  3764     06BE  160A  158A  257C  120A  118A  	fcall	_sprintf
  3765                           
  3766                           ;main.c: 199:                 sprintf(buf, "%02u:%02u T:%d H:%d  ", h, m, T, H);
  3767     06C3  3090               	movlw	(low (main@buf| (0+256)))& (0+255)
  3768     06C4  00F5               	movwf	LCD_print@s
  3769     06C5  3001               	movlw	1
  3770     06C6  00F6               	movwf	LCD_print@s+1
  3771     06C7  160A  158A  2455  120A  118A  	fcall	_LCD_print
  3772     06CC                     l6198:
  3773                           
  3774                           ;main.c: 202:         }
  3775     06CC  3040               	movlw	64
  3776     06CD  120A  118A  2004  120A  118A  	fcall	_LCD_goto
  3777     06D2                     l6200:
  3778                           
  3779                           ;main.c: 203: 
  3780     06D2  1683               	bsf	3,5	;RP0=1, select bank3
  3781     06D3  1703               	bsf	3,6	;RP1=1, select bank3
  3782     06D4  0821               	movf	main@sd_removed^(0+384),w
  3783     06D5  1903               	btfsc	3,2
  3784     06D6  2ED8               	goto	u9201
  3785     06D7  2ED9               	goto	u9200
  3786     06D8                     u9201:
  3787     06D8  2EE3               	goto	l6204
  3788     06D9                     u9200:
  3789     06D9                     l6202:
  3790                           
  3791                           ;main.c: 204:         _delay((unsigned long)((20)*(20000000/4000.0)));
  3792     06D9  3096               	movlw	low (STR_14| (0+32768))
  3793     06DA  00F5               	movwf	LCD_print@s
  3794     06DB  3098               	movlw	high (STR_14| (0+32768))
  3795     06DC  00F6               	movwf	LCD_print@s+1
  3796     06DD  160A  158A  2455  120A  118A  	fcall	_LCD_print
  3797                           
  3798                           ;main.c: 205:     }
  3799     06E2  2FC2               	goto	l6226
  3800     06E3                     l6204:
  3801     06E3  083C               	movf	main@sd_ok^(0+384),w
  3802     06E4  1D03               	btfss	3,2
  3803     06E5  2EE7               	goto	u9211
  3804     06E6  2EE8               	goto	u9210
  3805     06E7                     u9211:
  3806     06E7  2EF2               	goto	l6208
  3807     06E8                     u9210:
  3808     06E8                     l6206:
  3809                           
  3810                           ;main.c: 206: }
  3811     06E8  3085               	movlw	low (STR_15| (0+32768))
  3812     06E9  00F5               	movwf	LCD_print@s
  3813     06EA  3098               	movlw	high (STR_15| (0+32768))
  3814     06EB  00F6               	movwf	LCD_print@s+1
  3815     06EC  160A  158A  2455  120A  118A  	fcall	_LCD_print
  3816     06F1  2FC2               	goto	l6226
  3817     06F2                     l6208:
  3818     06F2  082F               	movf	main@saved^(0+384),w
  3819     06F3  1903               	btfsc	3,2
  3820     06F4  2EF6               	goto	u9221
  3821     06F5  2EF7               	goto	u9220
  3822     06F6                     u9221:
  3823     06F6  2F01               	goto	l6212
  3824     06F7                     u9220:
  3825     06F7                     l6210:
  3826     06F7  30E9               	movlw	low (STR_16| (0+32768))
  3827     06F8  00F5               	movwf	LCD_print@s
  3828     06F9  3098               	movlw	high (STR_16| (0+32768))
  3829     06FA  00F6               	movwf	LCD_print@s+1
  3830     06FB  160A  158A  2455  120A  118A  	fcall	_LCD_print
  3831     0700  2FC2               	goto	l6226
  3832     0701                     l6212:
  3833     0701  3090               	movlw	(low (main@buf| (0+256)))& (0+255)
  3834     0702  1283               	bcf	3,5	;RP0=0, select bank0
  3835     0703  1303               	bcf	3,6	;RP1=0, select bank0
  3836     0704  00D1               	movwf	sprintf@s
  3837     0705  3001               	movlw	1
  3838     0706  00D2               	movwf	sprintf@s+1
  3839     0707  30D9               	movlw	low (STR_17| (0+32768))
  3840     0708  00D3               	movwf	sprintf@fmt
  3841     0709  3098               	movlw	high (STR_17| (0+32768))
  3842     070A  00D4               	movwf	sprintf@fmt+1
  3843     070B  1683               	bsf	3,5	;RP0=1, select bank3
  3844     070C  1703               	bsf	3,6	;RP1=1, select bank3
  3845     070D  0831               	movf	main@min_rest^(0+384),w
  3846     070E  1683               	bsf	3,5	;RP0=1, select bank1
  3847     070F  1303               	bcf	3,6	;RP1=0, select bank1
  3848     0710  00AF               	movwf	??_main^(0+128)
  3849     0711  01B0               	clrf	(??_main+1)^(0+128)
  3850     0712  082F               	movf	??_main^(0+128),w
  3851     0713  1283               	bcf	3,5	;RP0=0, select bank0
  3852     0714  1303               	bcf	3,6	;RP1=0, select bank0
  3853     0715  00D5               	movwf	?_sprintf+4
  3854     0716  1683               	bsf	3,5	;RP0=1, select bank1
  3855     0717  1303               	bcf	3,6	;RP1=0, select bank1
  3856     0718  0830               	movf	(??_main+1)^(0+128),w
  3857     0719  1283               	bcf	3,5	;RP0=0, select bank0
  3858     071A  1303               	bcf	3,6	;RP1=0, select bank0
  3859     071B  00D6               	movwf	?_sprintf+5
  3860     071C  160A  158A  257C  120A  118A  	fcall	_sprintf
  3861     0721  3090               	movlw	(low (main@buf| (0+256)))& (0+255)
  3862     0722  00F5               	movwf	LCD_print@s
  3863     0723  3001               	movlw	1
  3864     0724  00F6               	movwf	LCD_print@s+1
  3865     0725  160A  158A  2455  120A  118A  	fcall	_LCD_print
  3866     072A  2FC2               	goto	l6226
  3867     072B                     l6214:
  3868     072B  3000               	movlw	0
  3869     072C  120A  118A  2004  120A  118A  	fcall	_LCD_goto
  3870     0731                     l6216:
  3871     0731  3090               	movlw	(low (main@buf| (0+256)))& (0+255)
  3872     0732  1283               	bcf	3,5	;RP0=0, select bank0
  3873     0733  1303               	bcf	3,6	;RP1=0, select bank0
  3874     0734  00D1               	movwf	sprintf@s
  3875     0735  3001               	movlw	1
  3876     0736  00D2               	movwf	sprintf@s+1
  3877     0737  3019               	movlw	low (STR_18| (0+32768))
  3878     0738  00D3               	movwf	sprintf@fmt
  3879     0739  3099               	movlw	high (STR_18| (0+32768))
  3880     073A  00D4               	movwf	sprintf@fmt+1
  3881     073B  1683               	bsf	3,5	;RP0=1, select bank3
  3882     073C  1703               	bsf	3,6	;RP1=1, select bank3
  3883     073D  0822               	movf	main@reg^(0+384),w
  3884     073E  3EFF               	addlw	255
  3885     073F  1283               	bcf	3,5	;RP0=0, select bank0
  3886     0740  1303               	bcf	3,6	;RP1=0, select bank0
  3887     0741  00D5               	movwf	?_sprintf+4
  3888     0742  1683               	bsf	3,5	;RP0=1, select bank3
  3889     0743  1703               	bsf	3,6	;RP1=1, select bank3
  3890     0744  0823               	movf	(main@reg+1)^(0+384),w
  3891     0745  1803               	skipnc
  3892     0746  3E01               	addlw	1
  3893     0747  3EFF               	addlw	255
  3894     0748  1283               	bcf	3,5	;RP0=0, select bank0
  3895     0749  1303               	bcf	3,6	;RP1=0, select bank0
  3896     074A  00D6               	movwf	?_sprintf+5
  3897     074B  160A  158A  257C  120A  118A  	fcall	_sprintf
  3898     0750                     l6218:
  3899     0750  3090               	movlw	(low (main@buf| (0+256)))& (0+255)
  3900     0751  00F5               	movwf	LCD_print@s
  3901     0752  3001               	movlw	1
  3902     0753  00F6               	movwf	LCD_print@s+1
  3903     0754  160A  158A  2455  120A  118A  	fcall	_LCD_print
  3904     0759  3040               	movlw	64
  3905     075A  120A  118A  2004  120A  118A  	fcall	_LCD_goto
  3906     075F                     l6220:
  3907     075F  1683               	bsf	3,5	;RP0=1, select bank3
  3908     0760  1703               	bsf	3,6	;RP1=1, select bank3
  3909     0761  083C               	movf	main@sd_ok^(0+384),w
  3910     0762  1D03               	btfss	3,2
  3911     0763  2F65               	goto	u9231
  3912     0764  2F66               	goto	u9230
  3913     0765                     u9231:
  3914     0765  2F70               	goto	l6224
  3915     0766                     u9230:
  3916     0766                     l6222:
  3917     0766  30C9               	movlw	low (STR_19| (0+32768))
  3918     0767  00F5               	movwf	LCD_print@s
  3919     0768  3098               	movlw	high (STR_19| (0+32768))
  3920     0769  00F6               	movwf	LCD_print@s+1
  3921     076A  160A  158A  2455  120A  118A  	fcall	_LCD_print
  3922     076F  2FC2               	goto	l6226
  3923     0770                     l6224:
  3924     0770  3090               	movlw	(low (main@buf| (0+256)))& (0+255)
  3925     0771  1283               	bcf	3,5	;RP0=0, select bank0
  3926     0772  1303               	bcf	3,6	;RP1=0, select bank0
  3927     0773  00D1               	movwf	sprintf@s
  3928     0774  3001               	movlw	1
  3929     0775  00D2               	movwf	sprintf@s+1
  3930     0776  3045               	movlw	low (STR_20| (0+32768))
  3931     0777  00D3               	movwf	sprintf@fmt
  3932     0778  3098               	movlw	high (STR_20| (0+32768))
  3933     0779  00D4               	movwf	sprintf@fmt+1
  3934     077A  1683               	bsf	3,5	;RP0=1, select bank3
  3935     077B  1703               	bsf	3,6	;RP1=1, select bank3
  3936     077C  083D               	movf	main@h^(0+384),w
  3937     077D  1683               	bsf	3,5	;RP0=1, select bank1
  3938     077E  1303               	bcf	3,6	;RP1=0, select bank1
  3939     077F  00AF               	movwf	??_main^(0+128)
  3940     0780  01B0               	clrf	(??_main+1)^(0+128)
  3941     0781  082F               	movf	??_main^(0+128),w
  3942     0782  1283               	bcf	3,5	;RP0=0, select bank0
  3943     0783  1303               	bcf	3,6	;RP1=0, select bank0
  3944     0784  00D5               	movwf	?_sprintf+4
  3945     0785  1683               	bsf	3,5	;RP0=1, select bank1
  3946     0786  1303               	bcf	3,6	;RP1=0, select bank1
  3947     0787  0830               	movf	(??_main+1)^(0+128),w
  3948     0788  1283               	bcf	3,5	;RP0=0, select bank0
  3949     0789  1303               	bcf	3,6	;RP1=0, select bank0
  3950     078A  00D6               	movwf	?_sprintf+5
  3951     078B  1683               	bsf	3,5	;RP0=1, select bank3
  3952     078C  1703               	bsf	3,6	;RP1=1, select bank3
  3953     078D  083E               	movf	main@m^(0+384),w
  3954     078E  1683               	bsf	3,5	;RP0=1, select bank1
  3955     078F  1303               	bcf	3,6	;RP1=0, select bank1
  3956     0790  00B1               	movwf	(??_main+2)^(0+128)
  3957     0791  01B2               	clrf	(??_main+3)^(0+128)
  3958     0792  0831               	movf	(??_main+2)^(0+128),w
  3959     0793  1283               	bcf	3,5	;RP0=0, select bank0
  3960     0794  1303               	bcf	3,6	;RP1=0, select bank0
  3961     0795  00D7               	movwf	?_sprintf+6
  3962     0796  1683               	bsf	3,5	;RP0=1, select bank1
  3963     0797  1303               	bcf	3,6	;RP1=0, select bank1
  3964     0798  0832               	movf	(??_main+3)^(0+128),w
  3965     0799  1283               	bcf	3,5	;RP0=0, select bank0
  3966     079A  1303               	bcf	3,6	;RP1=0, select bank0
  3967     079B  00D8               	movwf	?_sprintf+7
  3968     079C  1683               	bsf	3,5	;RP0=1, select bank3
  3969     079D  1703               	bsf	3,6	;RP1=1, select bank3
  3970     079E  0833               	movf	(main@T+1)^(0+384),w
  3971     079F  1283               	bcf	3,5	;RP0=0, select bank0
  3972     07A0  1303               	bcf	3,6	;RP1=0, select bank0
  3973     07A1  00DA               	movwf	?_sprintf+9
  3974     07A2  1683               	bsf	3,5	;RP0=1, select bank3
  3975     07A3  1703               	bsf	3,6	;RP1=1, select bank3
  3976     07A4  0832               	movf	main@T^(0+384),w
  3977     07A5  1283               	bcf	3,5	;RP0=0, select bank0
  3978     07A6  1303               	bcf	3,6	;RP1=0, select bank0
  3979     07A7  00D9               	movwf	?_sprintf+8
  3980     07A8  1683               	bsf	3,5	;RP0=1, select bank3
  3981     07A9  1703               	bsf	3,6	;RP1=1, select bank3
  3982     07AA  0835               	movf	(main@H+1)^(0+384),w
  3983     07AB  1283               	bcf	3,5	;RP0=0, select bank0
  3984     07AC  1303               	bcf	3,6	;RP1=0, select bank0
  3985     07AD  00DC               	movwf	?_sprintf+11
  3986     07AE  1683               	bsf	3,5	;RP0=1, select bank3
  3987     07AF  1703               	bsf	3,6	;RP1=1, select bank3
  3988     07B0  0834               	movf	main@H^(0+384),w
  3989     07B1  1283               	bcf	3,5	;RP0=0, select bank0
  3990     07B2  1303               	bcf	3,6	;RP1=0, select bank0
  3991     07B3  00DB               	movwf	?_sprintf+10
  3992     07B4  160A  158A  257C  120A  118A  	fcall	_sprintf
  3993     07B9  3090               	movlw	(low (main@buf| (0+256)))& (0+255)
  3994     07BA  00F5               	movwf	LCD_print@s
  3995     07BB  3001               	movlw	1
  3996     07BC  00F6               	movwf	LCD_print@s+1
  3997     07BD  160A  158A  2455  120A  118A  	fcall	_LCD_print
  3998     07C2                     l6226:
  3999     07C2  3082               	movlw	130
  4000     07C3  1683               	bsf	3,5	;RP0=1, select bank1
  4001     07C4  1303               	bcf	3,6	;RP1=0, select bank1
  4002     07C5  00B0               	movwf	(??_main^(0+128)+1)
  4003     07C6  30DD               	movlw	221
  4004     07C7  00AF               	movwf	??_main^(0+128)
  4005     07C8                     u9387:
  4006     07C8  0BAF               	decfsz	??_main^(0+128),f
  4007     07C9  2FC8               	goto	u9387
  4008     07CA  0BB0               	decfsz	(??_main^(0+128)+1),f
  4009     07CB  2FC8               	goto	u9387
  4010     07CC  2ACD               	goto	l6056
  4011     07CD  120A  118A  2800   	ljmp	start
  4012     07D0                     __end_of_main:
  4013                           
  4014                           	psect	text1
  4015     1D7C                     __ptext1:	
  4016 ;; *************** function _sprintf *****************
  4017 ;; Defined at:
  4018 ;;		line 9 in file "C:\Program Files\Microchip\xc8\v3.10\pic\sources\c99\common\nf_sprintf.c"
  4019 ;; Parameters:    Size  Location     Type
  4020 ;;  s               2   49[BANK0 ] PTR unsigned char 
  4021 ;;		 -> main@buf(17), main@line(45), 
  4022 ;;  fmt             2   51[BANK0 ] PTR const unsigned char 
  4023 ;;		 -> STR_20(22), STR_18(15), STR_17(16), STR_13(17), 
  4024 ;;		 -> STR_11(21), STR_10(21), STR_9(43), 
  4025 ;; Auto vars:     Size  Location     Type
  4026 ;;  f              11    4[BANK1 ] struct _IO_FILE
  4027 ;;  ret             2    0        int 
  4028 ;;  ap              1    3[BANK1 ] PTR void [1]
  4029 ;;		 -> ?_sprintf(2), 
  4030 ;; Return value:  Size  Location     Type
  4031 ;;                  2   49[BANK0 ] int 
  4032 ;; Registers used:
  4033 ;;		wreg, fsr0l, fsr0h, status,2, status,0, pclath, btemp1, cstack
  4034 ;; Tracked objects:
  4035 ;;		On entry : 0/0
  4036 ;;		On exit  : 0/0
  4037 ;;		Unchanged: 0/0
  4038 ;; Data sizes:     COMMON   BANK0   BANK1   BANK3   BANK2
  4039 ;;      Params:         0      22       0       0       0
  4040 ;;      Locals:         0       0      12       0       0
  4041 ;;      Temps:          0       0       3       0       0
  4042 ;;      Totals:         0      22      15       0       0
  4043 ;;Total ram usage:       37 bytes
  4044 ;; Hardware stack levels used: 1
  4045 ;; Hardware stack levels required when called: 6
  4046 ;; This function calls:
  4047 ;;		_vfprintf
  4048 ;; This function is called by:
  4049 ;;		_main
  4050 ;; This function uses a non-reentrant model
  4051 ;;
  4052                           
  4053     1D7C                     _sprintf:	
  4054                           ;psect for function _sprintf
  4055                           
  4056     1D7C                     l5702:	
  4057                           ;incstack = 0
  4058                           ; Regs used in _sprintf: [wreg-fsr0h+status,2+status,0+pclath+btemp1+cstack]
  4059                           
  4060     1D7C  3055               	movlw	(low ((?_sprintf| 0+4)))& (0+255)
  4061     1D7D  1683               	bsf	3,5	;RP0=1, select bank1
  4062     1D7E  1303               	bcf	3,6	;RP1=0, select bank1
  4063     1D7F  00A3               	movwf	sprintf@ap^(0+128)
  4064     1D80                     l5704:
  4065     1D80  1283               	bcf	3,5	;RP0=0, select bank0
  4066     1D81  1303               	bcf	3,6	;RP1=0, select bank0
  4067     1D82  0851               	movf	sprintf@s,w
  4068     1D83  1683               	bsf	3,5	;RP0=1, select bank1
  4069     1D84  1303               	bcf	3,6	;RP1=0, select bank1
  4070     1D85  00A4               	movwf	sprintf@f^(0+128)
  4071     1D86  1283               	bcf	3,5	;RP0=0, select bank0
  4072     1D87  1303               	bcf	3,6	;RP1=0, select bank0
  4073     1D88  0852               	movf	sprintf@s+1,w
  4074     1D89  1683               	bsf	3,5	;RP0=1, select bank1
  4075     1D8A  1303               	bcf	3,6	;RP1=0, select bank1
  4076     1D8B  00A5               	movwf	(sprintf@f+1)^(0+128)
  4077     1D8C                     l5706:
  4078     1D8C  01A6               	clrf	(sprintf@f^(0+128)+2)
  4079     1D8D  01A7               	clrf	((sprintf@f+1)^(0+128)+2)
  4080     1D8E                     l5708:
  4081     1D8E  01AD               	clrf	(sprintf@f^(0+128)+9)
  4082     1D8F  01AE               	clrf	((sprintf@f+1)^(0+128)+9)
  4083     1D90                     l5710:
  4084     1D90  30A4               	movlw	low sprintf@f
  4085     1D91  1283               	bcf	3,5	;RP0=0, select bank0
  4086     1D92  1303               	bcf	3,6	;RP1=0, select bank0
  4087     1D93  00CA               	movwf	vfprintf@fp
  4088     1D94  3000               	movlw	high sprintf@f
  4089     1D95  00CB               	movwf	vfprintf@fp+1
  4090     1D96  0853               	movf	sprintf@fmt,w
  4091     1D97  00CC               	movwf	vfprintf@fmt
  4092     1D98  0854               	movf	sprintf@fmt+1,w
  4093     1D99  00CD               	movwf	vfprintf@fmt+1
  4094     1D9A  30A3               	movlw	(low (sprintf@ap| 0))& (0+255)
  4095     1D9B  00CE               	movwf	vfprintf@ap
  4096     1D9C  160A  158A  24A2  160A  158A  	fcall	_vfprintf
  4097     1DA1                     l5712:
  4098     1DA1  1683               	bsf	3,5	;RP0=1, select bank1
  4099     1DA2  1303               	bcf	3,6	;RP1=0, select bank1
  4100     1DA3  0826               	movf	(sprintf@f^(0+128)+2),w
  4101     1DA4  1283               	bcf	3,5	;RP0=0, select bank0
  4102     1DA5  1303               	bcf	3,6	;RP1=0, select bank0
  4103     1DA6  0751               	addwf	sprintf@s,w
  4104     1DA7  1683               	bsf	3,5	;RP0=1, select bank1
  4105     1DA8  1303               	bcf	3,6	;RP1=0, select bank1
  4106     1DA9  00A1               	movwf	(??_sprintf+1)^(0+128)
  4107     1DAA  1283               	bcf	3,5	;RP0=0, select bank0
  4108     1DAB  1303               	bcf	3,6	;RP1=0, select bank0
  4109     1DAC  0852               	movf	sprintf@s+1,w
  4110     1DAD  1683               	bsf	3,5	;RP0=1, select bank1
  4111     1DAE  1303               	bcf	3,6	;RP1=0, select bank1
  4112     1DAF  00A0               	movwf	??_sprintf^(0+128)
  4113     1DB0  1803               	skipnc
  4114     1DB1  0AA0               	incf	??_sprintf^(0+128),f
  4115     1DB2  1FA6               	btfss	(sprintf@f^(0+128)+2),7
  4116     1DB3  2DB5               	goto	u8390
  4117     1DB4  03A0               	decf	??_sprintf^(0+128),f
  4118     1DB5                     u8390:
  4119     1DB5  1683               	bsf	3,5	;RP0=1, select bank1
  4120     1DB6  1303               	bcf	3,6	;RP1=0, select bank1
  4121     1DB7  0820               	movf	??_sprintf^(0+128),w
  4122     1DB8  00A2               	movwf	((??_sprintf+1)^(0+128)+1)
  4123     1DB9  0821               	movf	(??_sprintf+1)^(0+128),w
  4124     1DBA  0084               	movwf	4
  4125     1DBB  1783               	bsf	3,7
  4126     1DBC  1C22               	btfss	(??_sprintf+2)^(0+128),0
  4127     1DBD  1383               	bcf	3,7
  4128     1DBE  0180               	clrf	0
  4129     1DBF                     l849:
  4130     1DBF  0008               	return
  4131     1DC0                     __end_of_sprintf:
  4132                           
  4133                           	psect	text2
  4134     1CA2                     __ptext2:	
  4135 ;; *************** function _vfprintf *****************
  4136 ;; Defined at:
  4137 ;;		line 1817 in file "C:\Program Files\Microchip\xc8\v3.10\pic\sources\c99\common\doprnt.c"
  4138 ;; Parameters:    Size  Location     Type
  4139 ;;  fp              2   42[BANK0 ] PTR struct _IO_FILE
  4140 ;;		 -> sprintf@f(11), 
  4141 ;;  fmt             2   44[BANK0 ] PTR const unsigned char 
  4142 ;;		 -> STR_20(22), STR_18(15), STR_17(16), STR_13(17), 
  4143 ;;		 -> STR_11(21), STR_10(21), STR_9(43), 
  4144 ;;  ap              1   46[BANK0 ] PTR PTR void 
  4145 ;;		 -> sprintf@ap(1), 
  4146 ;; Auto vars:     Size  Location     Type
  4147 ;;  cfmt            2   47[BANK0 ] PTR unsigned char 
  4148 ;;		 -> STR_20(22), STR_18(15), STR_17(16), STR_13(17), 
  4149 ;;		 -> STR_11(21), STR_10(21), STR_9(43), 
  4150 ;; Return value:  Size  Location     Type
  4151 ;;                  2   42[BANK0 ] int 
  4152 ;; Registers used:
  4153 ;;		wreg, fsr0l, fsr0h, status,2, status,0, pclath, btemp1, cstack
  4154 ;; Tracked objects:
  4155 ;;		On entry : 0/0
  4156 ;;		On exit  : 0/0
  4157 ;;		Unchanged: 0/0
  4158 ;; Data sizes:     COMMON   BANK0   BANK1   BANK3   BANK2
  4159 ;;      Params:         0       5       0       0       0
  4160 ;;      Locals:         0       2       0       0       0
  4161 ;;      Temps:          0       0       0       0       0
  4162 ;;      Totals:         0       7       0       0       0
  4163 ;;Total ram usage:        7 bytes
  4164 ;; Hardware stack levels used: 1
  4165 ;; Hardware stack levels required when called: 5
  4166 ;; This function calls:
  4167 ;;		_vfpfcnvrt
  4168 ;; This function is called by:
  4169 ;;		_sprintf
  4170 ;; This function uses a non-reentrant model
  4171 ;;
  4172                           
  4173     1CA2                     _vfprintf:	
  4174                           ;psect for function _vfprintf
  4175                           
  4176     1CA2                     l5330:	
  4177                           ;incstack = 0
  4178                           ; Regs used in _vfprintf: [wreg-fsr0h+status,2+status,0+pclath+btemp1+cstack]
  4179                           
  4180                           
  4181                           ;C:\Program Files\Microchip\xc8\v3.10\pic\sources\c99\common\doprnt.c: 1817: int vfprint
      +                          f(FILE *fp, const char *fmt, va_list ap);C:\Program Files\Microchip\xc8\v3.10\pic\source
      +                          s\c99\common\doprnt.c: 1818: {;C:\Program Files\Microchip\xc8\v3.10\pic\sources\c99\comm
      +                          on\doprnt.c: 1820:     char *cfmt;;C:\Program Files\Microchip\xc8\v3.10\pic\sources\c99\
      +                          common\doprnt.c: 1822:     cfmt = (char *)fmt;
  4182     1CA2  1283               	bcf	3,5	;RP0=0, select bank0
  4183     1CA3  1303               	bcf	3,6	;RP1=0, select bank0
  4184     1CA4  084C               	movf	vfprintf@fmt,w
  4185     1CA5  00CF               	movwf	vfprintf@cfmt
  4186     1CA6  084D               	movf	vfprintf@fmt+1,w
  4187     1CA7  00D0               	movwf	vfprintf@cfmt+1
  4188                           
  4189                           ;C:\Program Files\Microchip\xc8\v3.10\pic\sources\c99\common\doprnt.c: 1826:     while (
      +                          *cfmt) {
  4190     1CA8  2CB6               	goto	l5334
  4191     1CA9                     l5332:
  4192                           
  4193                           ;C:\Program Files\Microchip\xc8\v3.10\pic\sources\c99\common\doprnt.c: 1830:    vfpfcnvr
      +                          t(fp, &cfmt, ap);
  4194     1CA9  084A               	movf	vfprintf@fp,w
  4195     1CAA  00BB               	movwf	vfpfcnvrt@fp
  4196     1CAB  084B               	movf	vfprintf@fp+1,w
  4197     1CAC  00BC               	movwf	vfpfcnvrt@fp+1
  4198     1CAD  304F               	movlw	(low (vfprintf@cfmt| 0))& (0+255)
  4199     1CAE  00BD               	movwf	vfpfcnvrt@fmt
  4200     1CAF  084E               	movf	vfprintf@ap,w
  4201     1CB0  00BE               	movwf	vfpfcnvrt@ap
  4202     1CB1  120A  118A  2023  160A  158A  	fcall	_vfpfcnvrt
  4203     1CB6                     l5334:
  4204                           
  4205                           ;C:\Program Files\Microchip\xc8\v3.10\pic\sources\c99\common\doprnt.c: 1826:     while (
      +                          *cfmt) {
  4206     1CB6  1283               	bcf	3,5	;RP0=0, select bank0
  4207     1CB7  1303               	bcf	3,6	;RP1=0, select bank0
  4208     1CB8  0850               	movf	vfprintf@cfmt+1,w
  4209     1CB9  00FF               	movwf	btemp1
  4210     1CBA  084F               	movf	vfprintf@cfmt,w
  4211     1CBB  0084               	movwf	4
  4212     1CBC  160A  158A  215F  160A  158A  	fcall	stringtab
  4213     1CC1  3A00               	xorlw	0
  4214     1CC2  1D03               	skipz
  4215     1CC3  2CC5               	goto	u8031
  4216     1CC4  2CC6               	goto	u8030
  4217     1CC5                     u8031:
  4218     1CC5  2CA9               	goto	l5332
  4219     1CC6                     u8030:
  4220     1CC6                     l5336:
  4221                           
  4222                           ;C:\Program Files\Microchip\xc8\v3.10\pic\sources\c99\common\doprnt.c: 1835:  return 0;
  4223     1CC6  01CA               	clrf	?_vfprintf
  4224     1CC7  01CB               	clrf	?_vfprintf+1
  4225     1CC8                     l936:
  4226     1CC8  0008               	return
  4227     1CC9                     __end_of_vfprintf:
  4228                           
  4229                           	psect	text3
  4230     0023                     __ptext3:	
  4231 ;; *************** function _vfpfcnvrt *****************
  4232 ;; Defined at:
  4233 ;;		line 1177 in file "C:\Program Files\Microchip\xc8\v3.10\pic\sources\c99\common\doprnt.c"
  4234 ;; Parameters:    Size  Location     Type
  4235 ;;  fp              2   27[BANK0 ] PTR struct _IO_FILE
  4236 ;;		 -> sprintf@f(11), 
  4237 ;;  fmt             1   29[BANK0 ] PTR PTR unsigned char 
  4238 ;;		 -> vfprintf@cfmt(2), 
  4239 ;;  ap              1   30[BANK0 ] PTR PTR void 
  4240 ;;		 -> sprintf@ap(1), 
  4241 ;; Auto vars:     Size  Location     Type
  4242 ;;  convarg         4   36[BANK0 ] struct .
  4243 ;;  cp              2   40[BANK0 ] PTR unsigned char 
  4244 ;;		 -> STR_20(22), STR_18(15), STR_17(16), STR_13(17), 
  4245 ;;		 -> STR_11(21), STR_10(21), STR_9(43), 
  4246 ;;  done            1   35[BANK0 ] _Bool 
  4247 ;;  c               1    0        unsigned char 
  4248 ;; Return value:  Size  Location     Type
  4249 ;;                  1    wreg      void 
  4250 ;; Registers used:
  4251 ;;		wreg, fsr0l, fsr0h, status,2, status,0, pclath, btemp1, cstack
  4252 ;; Tracked objects:
  4253 ;;		On entry : 0/0
  4254 ;;		On exit  : 0/0
  4255 ;;		Unchanged: 0/0
  4256 ;; Data sizes:     COMMON   BANK0   BANK1   BANK3   BANK2
  4257 ;;      Params:         0       4       0       0       0
  4258 ;;      Locals:         0       7       0       0       0
  4259 ;;      Temps:          0       4       0       0       0
  4260 ;;      Totals:         0      15       0       0       0
  4261 ;;Total ram usage:       15 bytes
  4262 ;; Hardware stack levels used: 1
  4263 ;; Hardware stack levels required when called: 4
  4264 ;; This function calls:
  4265 ;;		_dtoa
  4266 ;;		_fputc
  4267 ;;		_read_prec_or_width
  4268 ;;		_utoa
  4269 ;; This function is called by:
  4270 ;;		_vfprintf
  4271 ;; This function uses a non-reentrant model
  4272 ;;
  4273                           
  4274     0023                     _vfpfcnvrt:	
  4275                           ;psect for function _vfpfcnvrt
  4276                           
  4277     0023                     l4842:	
  4278                           ;incstack = 0
  4279                           ; Regs used in _vfpfcnvrt: [wreg-fsr0h+status,2+status,0+pclath+btemp1+cstack]
  4280                           
  4281                           
  4282                           ;C:\Program Files\Microchip\xc8\v3.10\pic\sources\c99\common\doprnt.c: 1177: vfpfcnvrt(F
      +                          ILE *fp, char *fmt[], va_list ap);C:\Program Files\Microchip\xc8\v3.10\pic\sources\c99\c
      +                          ommon\doprnt.c: 1178: {;C:\Program Files\Microchip\xc8\v3.10\pic\sources\c99\common\dopr
      +                          nt.c: 1179:     char c, *cp;;C:\Program Files\Microchip\xc8\v3.10\pic\sources\c99\common
      +                          \doprnt.c: 1180:     _Bool done;;C:\Program Files\Microchip\xc8\v3.10\pic\sources\c99\co
      +                          mmon\doprnt.c: 1188:  } convarg;;C:\Program Files\Microchip\xc8\v3.10\pic\sources\c99\co
      +                          mmon\doprnt.c: 1201:     if ((*fmt)[0] == '%') {
  4283     0023  1283               	bcf	3,5	;RP0=0, select bank0
  4284     0024  1303               	bcf	3,6	;RP1=0, select bank0
  4285     0025  083D               	movf	vfpfcnvrt@fmt,w
  4286     0026  0084               	movwf	4
  4287     0027  1383               	bcf	3,7	;select IRP bank0
  4288     0028  0800               	movf	0,w
  4289     0029  00BF               	movwf	??_vfpfcnvrt
  4290     002A  0A84               	incf	4,f
  4291     002B  0800               	movf	0,w
  4292     002C  00C0               	movwf	??_vfpfcnvrt+1
  4293     002D  0840               	movf	??_vfpfcnvrt+1,w
  4294     002E  00FF               	movwf	btemp1
  4295     002F  083F               	movf	??_vfpfcnvrt,w
  4296     0030  0084               	movwf	4
  4297     0031  160A  158A  215F  120A  118A  	fcall	stringtab
  4298     0036  3A25               	xorlw	37
  4299     0037  1D03               	skipz
  4300     0038  283A               	goto	u7031
  4301     0039  283B               	goto	u7030
  4302     003A                     u7031:
  4303     003A  2967               	goto	l4908
  4304     003B                     u7030:
  4305     003B                     l4844:
  4306                           
  4307                           ;C:\Program Files\Microchip\xc8\v3.10\pic\sources\c99\common\doprnt.c: 1202:         ++*
      +                          fmt;
  4308     003B  083D               	movf	vfpfcnvrt@fmt,w
  4309     003C  0084               	movwf	4
  4310     003D  3001               	movlw	1
  4311     003E  1383               	bcf	3,7	;select IRP bank0
  4312     003F  0780               	addwf	0,f
  4313     0040  0A84               	incf	4,f
  4314     0041  1803               	skipnc
  4315     0042  0A80               	incf	0,f
  4316     0043                     l4846:
  4317                           
  4318                           ;C:\Program Files\Microchip\xc8\v3.10\pic\sources\c99\common\doprnt.c: 1204:         fla
      +                          gs = width = 0;
  4319     0043  01E9               	clrf	_width
  4320     0044  01EA               	clrf	_width+1
  4321     0045  3000               	movlw	0
  4322     0046  00EF               	movwf	_flags
  4323     0047                     l4848:
  4324                           
  4325                           ;C:\Program Files\Microchip\xc8\v3.10\pic\sources\c99\common\doprnt.c: 1205:         pre
      +                          c = -1;
  4326     0047  30FF               	movlw	255
  4327     0048  00EB               	movwf	_prec
  4328     0049  30FF               	movlw	255
  4329     004A  00EC               	movwf	_prec+1
  4330     004B                     l4850:
  4331                           
  4332                           ;C:\Program Files\Microchip\xc8\v3.10\pic\sources\c99\common\doprnt.c: 1209:         don
      +                          e = 0;
  4333     004B  01C3               	clrf	vfpfcnvrt@done
  4334                           
  4335                           ;C:\Program Files\Microchip\xc8\v3.10\pic\sources\c99\common\doprnt.c: 1210:         whi
      +                          le (!done) {
  4336     004C  286F               	goto	l4858
  4337     004D                     l915:	
  4338                           ;C:\Program Files\Microchip\xc8\v3.10\pic\sources\c99\common\doprnt.c: 1219:            
      +                               case '0' :
  4339                           
  4340                           
  4341                           ;C:\Program Files\Microchip\xc8\v3.10\pic\sources\c99\common\doprnt.c: 1220:            
      +                                   flags |= (1 << 1);
  4342     004D  14EF               	bsf	_flags,1
  4343     004E                     l4852:
  4344                           
  4345                           ;C:\Program Files\Microchip\xc8\v3.10\pic\sources\c99\common\doprnt.c: 1221:            
      +                                   ++*fmt;
  4346     004E  083D               	movf	vfpfcnvrt@fmt,w
  4347     004F  0084               	movwf	4
  4348     0050  3001               	movlw	1
  4349     0051  1383               	bcf	3,7	;select IRP bank0
  4350     0052  0780               	addwf	0,f
  4351     0053  0A84               	incf	4,f
  4352     0054  1803               	skipnc
  4353     0055  0A80               	incf	0,f
  4354                           
  4355                           ;C:\Program Files\Microchip\xc8\v3.10\pic\sources\c99\common\doprnt.c: 1222:            
      +                                   break;
  4356     0056  286F               	goto	l4858
  4357     0057                     l917:	
  4358                           ;C:\Program Files\Microchip\xc8\v3.10\pic\sources\c99\common\doprnt.c: 1242:            
      +                               default:
  4359                           
  4360                           
  4361                           ;C:\Program Files\Microchip\xc8\v3.10\pic\sources\c99\common\doprnt.c: 1243:            
      +                                   done = 1;
  4362     0057  3001               	movlw	1
  4363     0058  00C3               	movwf	vfpfcnvrt@done
  4364                           
  4365                           ;C:\Program Files\Microchip\xc8\v3.10\pic\sources\c99\common\doprnt.c: 1244:            
      +                                   break;
  4366     0059  286F               	goto	l4858
  4367     005A                     l4856:
  4368     005A  083D               	movf	vfpfcnvrt@fmt,w
  4369     005B  0084               	movwf	4
  4370     005C  1383               	bcf	3,7	;select IRP bank0
  4371     005D  0800               	movf	0,w
  4372     005E  00BF               	movwf	??_vfpfcnvrt
  4373     005F  0A84               	incf	4,f
  4374     0060  0800               	movf	0,w
  4375     0061  00C0               	movwf	??_vfpfcnvrt+1
  4376     0062  0840               	movf	??_vfpfcnvrt+1,w
  4377     0063  00FF               	movwf	btemp1
  4378     0064  083F               	movf	??_vfpfcnvrt,w
  4379     0065  0084               	movwf	4
  4380     0066  160A  158A  215F  120A  118A  	fcall	stringtab
  4381                           
  4382                           ; Switch size 1, requested type "simple"
  4383                           ; Number of cases is 1, Range of values is 48 to 48
  4384                           ; switch strategies available:
  4385                           ; Name         Instructions Cycles
  4386                           ; simple_byte            4     3 (average)
  4387                           ; direct_byte           14    11 (fixed)
  4388                           ; jumptable            263     9 (fixed)
  4389                           ;	Chosen strategy is simple_byte
  4390     006B  3A30               	xorlw	48	; case 48
  4391     006C  1903               	skipnz
  4392     006D  284D               	goto	l915
  4393     006E  2857               	goto	l917
  4394     006F                     l4858:
  4395                           
  4396                           ;C:\Program Files\Microchip\xc8\v3.10\pic\sources\c99\common\doprnt.c: 1210:         whi
      +                          le (!done) {
  4397     006F  0843               	movf	vfpfcnvrt@done,w
  4398     0070  1903               	btfsc	3,2
  4399     0071  2873               	goto	u7041
  4400     0072  2874               	goto	u7040
  4401     0073                     u7041:
  4402     0073  285A               	goto	l4856
  4403     0074                     u7040:
  4404     0074                     l4860:
  4405                           
  4406                           ;C:\Program Files\Microchip\xc8\v3.10\pic\sources\c99\common\doprnt.c: 1256:   width = r
      +                          ead_prec_or_width(fmt, ap);
  4407     0074  083D               	movf	vfpfcnvrt@fmt,w
  4408     0075  00F6               	movwf	read_prec_or_width@fmt
  4409     0076  083E               	movf	vfpfcnvrt@ap,w
  4410     0077  00F7               	movwf	read_prec_or_width@ap
  4411     0078  160A  118A  2095  120A  118A  	fcall	_read_prec_or_width
  4412     007D  0877               	movf	?_read_prec_or_width+1,w
  4413     007E  1283               	bcf	3,5	;RP0=0, select bank0
  4414     007F  1303               	bcf	3,6	;RP1=0, select bank0
  4415     0080  00EA               	movwf	_width+1
  4416     0081  0876               	movf	?_read_prec_or_width,w
  4417     0082  00E9               	movwf	_width
  4418     0083                     l4862:
  4419                           
  4420                           ;C:\Program Files\Microchip\xc8\v3.10\pic\sources\c99\common\doprnt.c: 1257:   if (width
      +                           < 0) {
  4421     0083  1FEA               	btfss	_width+1,7
  4422     0084  2886               	goto	u7051
  4423     0085  2887               	goto	u7050
  4424     0086                     u7051:
  4425     0086  288D               	goto	l4868
  4426     0087                     u7050:
  4427     0087                     l4864:
  4428                           
  4429                           ;C:\Program Files\Microchip\xc8\v3.10\pic\sources\c99\common\doprnt.c: 1258:    flags |=
      +                           (1 << 0);
  4430     0087  146F               	bsf	_flags,0
  4431     0088                     l4866:
  4432                           
  4433                           ;C:\Program Files\Microchip\xc8\v3.10\pic\sources\c99\common\doprnt.c: 1259:    width = 
      +                          -width;
  4434     0088  09E9               	comf	_width,f
  4435     0089  09EA               	comf	_width+1,f
  4436     008A  0AE9               	incf	_width,f
  4437     008B  1903               	skipnz
  4438     008C  0AEA               	incf	_width+1,f
  4439     008D                     l4868:
  4440                           
  4441                           ;C:\Program Files\Microchip\xc8\v3.10\pic\sources\c99\common\doprnt.c: 1291:   cp = *fmt
      +                          ;
  4442     008D  083D               	movf	vfpfcnvrt@fmt,w
  4443     008E  0084               	movwf	4
  4444     008F  1383               	bcf	3,7	;select IRP bank0
  4445     0090  0800               	movf	0,w
  4446     0091  00C8               	movwf	vfpfcnvrt@cp
  4447     0092  0A84               	incf	4,f
  4448     0093  0800               	movf	0,w
  4449     0094  0384               	decf	4,f
  4450     0095  00C9               	movwf	vfpfcnvrt@cp+1
  4451     0096                     l4870:
  4452                           
  4453                           ;C:\Program Files\Microchip\xc8\v3.10\pic\sources\c99\common\doprnt.c: 1361:   if (*cp =
      +                          = 'd' || *cp == 'i') {
  4454     0096  0849               	movf	vfpfcnvrt@cp+1,w
  4455     0097  00FF               	movwf	btemp1
  4456     0098  0848               	movf	vfpfcnvrt@cp,w
  4457     0099  0084               	movwf	4
  4458     009A  160A  158A  215F  120A  118A  	fcall	stringtab
  4459     009F  3A64               	xorlw	100
  4460     00A0  1903               	skipnz
  4461     00A1  28A3               	goto	u7061
  4462     00A2  28A4               	goto	u7060
  4463     00A3                     u7061:
  4464     00A3  28B2               	goto	l4874
  4465     00A4                     u7060:
  4466     00A4                     l4872:
  4467     00A4  0849               	movf	vfpfcnvrt@cp+1,w
  4468     00A5  00FF               	movwf	btemp1
  4469     00A6  0848               	movf	vfpfcnvrt@cp,w
  4470     00A7  0084               	movwf	4
  4471     00A8  160A  158A  215F  120A  118A  	fcall	stringtab
  4472     00AD  3A69               	xorlw	105
  4473     00AE  1D03               	skipz
  4474     00AF  28B1               	goto	u7071
  4475     00B0  28B2               	goto	u7070
  4476     00B1                     u7071:
  4477     00B1  28E3               	goto	l4882
  4478     00B2                     u7070:
  4479     00B2                     l4874:
  4480                           
  4481                           ;C:\Program Files\Microchip\xc8\v3.10\pic\sources\c99\common\doprnt.c: 1404:    convarg.
      +                          sint = (vfpf_sint_t)(int)(*(int *)__va_arg(*(int **)ap, (int)0));
  4482     00B2  083E               	movf	vfpfcnvrt@ap,w
  4483     00B3  0084               	movwf	4
  4484     00B4  1383               	bcf	3,7	;select IRP bank0
  4485     00B5  0800               	movf	0,w
  4486     00B6  00FF               	movwf	btemp1
  4487     00B7  3002               	movlw	2
  4488     00B8  0780               	addwf	0,f
  4489     00B9  087F               	movf	btemp1,w
  4490     00BA  0084               	movwf	4
  4491     00BB  0800               	movf	0,w
  4492     00BC  00C4               	movwf	vfpfcnvrt@convarg
  4493     00BD  0A84               	incf	4,f
  4494     00BE  0800               	movf	0,w
  4495     00BF  00C5               	movwf	vfpfcnvrt@convarg+1
  4496     00C0                     l4876:
  4497                           
  4498                           ;C:\Program Files\Microchip\xc8\v3.10\pic\sources\c99\common\doprnt.c: 1406:    *fmt = c
      +                          p+1;
  4499     00C0  3001               	movlw	1
  4500     00C1  00BF               	movwf	??_vfpfcnvrt
  4501     00C2  083F               	movf	??_vfpfcnvrt,w
  4502     00C3  0748               	addwf	vfpfcnvrt@cp,w
  4503     00C4  00C1               	movwf	??_vfpfcnvrt+2
  4504     00C5  0849               	movf	vfpfcnvrt@cp+1,w
  4505     00C6  00C0               	movwf	??_vfpfcnvrt+1
  4506     00C7  1803               	skipnc
  4507     00C8  0AC0               	incf	??_vfpfcnvrt+1,f
  4508     00C9  1BBF               	btfsc	??_vfpfcnvrt,7
  4509     00CA  03C0               	decf	??_vfpfcnvrt+1,f
  4510     00CB  0840               	movf	??_vfpfcnvrt+1,w
  4511     00CC  00C2               	movwf	??_vfpfcnvrt+3
  4512     00CD  083D               	movf	vfpfcnvrt@fmt,w
  4513     00CE  0084               	movwf	4
  4514     00CF  0841               	movf	??_vfpfcnvrt+2,w
  4515     00D0  0080               	movwf	0
  4516     00D1  0842               	movf	??_vfpfcnvrt+3,w
  4517     00D2  0A84               	incf	4,f
  4518     00D3  0080               	movwf	0
  4519     00D4  0384               	decf	4,f
  4520     00D5                     l4878:
  4521                           
  4522                           ;C:\Program Files\Microchip\xc8\v3.10\pic\sources\c99\common\doprnt.c: 1432:    return (
      +                          void) dtoa(fp, convarg.sint);;	Return value of _vfpfcnvrt is never used
  4523     00D5  083B               	movf	vfpfcnvrt@fp,w
  4524     00D6  00AF               	movwf	dtoa@fp
  4525     00D7  083C               	movf	vfpfcnvrt@fp+1,w
  4526     00D8  00B0               	movwf	dtoa@fp+1
  4527     00D9  0845               	movf	vfpfcnvrt@convarg+1,w
  4528     00DA  00B2               	movwf	dtoa@d+1
  4529     00DB  0844               	movf	vfpfcnvrt@convarg,w
  4530     00DC  00B1               	movwf	dtoa@d
  4531     00DD  160A  118A  2345  120A  118A  	fcall	_dtoa
  4532     00E2  2988               	goto	l923
  4533     00E3                     l4882:
  4534     00E3  0849               	movf	vfpfcnvrt@cp+1,w
  4535     00E4  00FF               	movwf	btemp1
  4536     00E5  0848               	movf	vfpfcnvrt@cp,w
  4537     00E6  0084               	movwf	4
  4538     00E7  160A  158A  215F  120A  118A  	fcall	stringtab
  4539     00EC  3A75               	xorlw	117
  4540     00ED  1D03               	skipz
  4541     00EE  28F0               	goto	u7081
  4542     00EF  28F1               	goto	u7080
  4543     00F0                     u7081:
  4544     00F0  2930               	goto	l4896
  4545     00F1                     u7080:
  4546     00F1                     l4884:
  4547                           
  4548                           ;C:\Program Files\Microchip\xc8\v3.10\pic\sources\c99\common\doprnt.c: 1452:     ) {;C:\
      +                          Program Files\Microchip\xc8\v3.10\pic\sources\c99\common\doprnt.c: 1495:    convarg.uint
      +                           = (vfpf_uint_t)(unsigned int)(*(unsigned int *)__va_arg(*(unsigned int **)ap, (unsigned
      +                           int)0));
  4549     00F1  083E               	movf	vfpfcnvrt@ap,w
  4550     00F2  0084               	movwf	4
  4551     00F3  1383               	bcf	3,7	;select IRP bank0
  4552     00F4  0800               	movf	0,w
  4553     00F5  00FF               	movwf	btemp1
  4554     00F6  3002               	movlw	2
  4555     00F7  0780               	addwf	0,f
  4556     00F8  087F               	movf	btemp1,w
  4557     00F9  0084               	movwf	4
  4558     00FA  0800               	movf	0,w
  4559     00FB  00C4               	movwf	vfpfcnvrt@convarg
  4560     00FC  0A84               	incf	4,f
  4561     00FD  0800               	movf	0,w
  4562     00FE  00C5               	movwf	vfpfcnvrt@convarg+1
  4563     00FF                     l4886:
  4564                           
  4565                           ;C:\Program Files\Microchip\xc8\v3.10\pic\sources\c99\common\doprnt.c: 1497:    *fmt = c
      +                          p+1;
  4566     00FF  3001               	movlw	1
  4567     0100  00BF               	movwf	??_vfpfcnvrt
  4568     0101  083F               	movf	??_vfpfcnvrt,w
  4569     0102  0748               	addwf	vfpfcnvrt@cp,w
  4570     0103  00C1               	movwf	??_vfpfcnvrt+2
  4571     0104  0849               	movf	vfpfcnvrt@cp+1,w
  4572     0105  00C0               	movwf	??_vfpfcnvrt+1
  4573     0106  1803               	skipnc
  4574     0107  0AC0               	incf	??_vfpfcnvrt+1,f
  4575     0108  1BBF               	btfsc	??_vfpfcnvrt,7
  4576     0109  03C0               	decf	??_vfpfcnvrt+1,f
  4577     010A  0840               	movf	??_vfpfcnvrt+1,w
  4578     010B  00C2               	movwf	??_vfpfcnvrt+3
  4579     010C  083D               	movf	vfpfcnvrt@fmt,w
  4580     010D  0084               	movwf	4
  4581     010E  0841               	movf	??_vfpfcnvrt+2,w
  4582     010F  0080               	movwf	0
  4583     0110  0842               	movf	??_vfpfcnvrt+3,w
  4584     0111  0A84               	incf	4,f
  4585     0112  0080               	movwf	0
  4586     0113  0384               	decf	4,f
  4587                           
  4588                           ;C:\Program Files\Microchip\xc8\v3.10\pic\sources\c99\common\doprnt.c: 1498:    switch (
      +                          *cp) {
  4589     0114  2923               	goto	l4894
  4590     0115                     l4888:
  4591                           
  4592                           ;C:\Program Files\Microchip\xc8\v3.10\pic\sources\c99\common\doprnt.c: 1542:      return
      +                           (void) utoa(fp, convarg.uint);;	Return value of _vfpfcnvrt is never used
  4593     0115  083B               	movf	vfpfcnvrt@fp,w
  4594     0116  00AF               	movwf	utoa@fp
  4595     0117  083C               	movf	vfpfcnvrt@fp+1,w
  4596     0118  00B0               	movwf	utoa@fp+1
  4597     0119  0845               	movf	vfpfcnvrt@convarg+1,w
  4598     011A  00B2               	movwf	utoa@d+1
  4599     011B  0844               	movf	vfpfcnvrt@convarg,w
  4600     011C  00B1               	movwf	utoa@d
  4601     011D  160A  118A  2178  120A  118A  	fcall	_utoa
  4602     0122  2988               	goto	l923
  4603     0123                     l4894:
  4604     0123  0849               	movf	vfpfcnvrt@cp+1,w
  4605     0124  00FF               	movwf	btemp1
  4606     0125  0848               	movf	vfpfcnvrt@cp,w
  4607     0126  0084               	movwf	4
  4608     0127  160A  158A  215F  120A  118A  	fcall	stringtab
  4609                           
  4610                           ; Switch size 1, requested type "simple"
  4611                           ; Number of cases is 1, Range of values is 117 to 117
  4612                           ; switch strategies available:
  4613                           ; Name         Instructions Cycles
  4614                           ; simple_byte            4     3 (average)
  4615                           ; direct_byte           14    11 (fixed)
  4616                           ; jumptable            263     9 (fixed)
  4617                           ;	Chosen strategy is simple_byte
  4618     012C  3A75               	xorlw	117	; case 117
  4619     012D  1903               	skipnz
  4620     012E  2915               	goto	l4888
  4621     012F  2930               	goto	l4896
  4622     0130                     l4896:
  4623                           
  4624                           ;C:\Program Files\Microchip\xc8\v3.10\pic\sources\c99\common\doprnt.c: 1798:         if 
      +                          ((*fmt)[0] == '%') {
  4625     0130  083D               	movf	vfpfcnvrt@fmt,w
  4626     0131  0084               	movwf	4
  4627     0132  1383               	bcf	3,7	;select IRP bank0
  4628     0133  0800               	movf	0,w
  4629     0134  00BF               	movwf	??_vfpfcnvrt
  4630     0135  0A84               	incf	4,f
  4631     0136  0800               	movf	0,w
  4632     0137  00C0               	movwf	??_vfpfcnvrt+1
  4633     0138  0840               	movf	??_vfpfcnvrt+1,w
  4634     0139  00FF               	movwf	btemp1
  4635     013A  083F               	movf	??_vfpfcnvrt,w
  4636     013B  0084               	movwf	4
  4637     013C  160A  158A  215F  120A  118A  	fcall	stringtab
  4638     0141  3A25               	xorlw	37
  4639     0142  1D03               	skipz
  4640     0143  2945               	goto	u7091
  4641     0144  2946               	goto	u7090
  4642     0145                     u7091:
  4643     0145  295C               	goto	l4904
  4644     0146                     u7090:
  4645     0146                     l4898:
  4646                           
  4647                           ;C:\Program Files\Microchip\xc8\v3.10\pic\sources\c99\common\doprnt.c: 1799:            
      +                           ++*fmt;
  4648     0146  083D               	movf	vfpfcnvrt@fmt,w
  4649     0147  0084               	movwf	4
  4650     0148  3001               	movlw	1
  4651     0149  1383               	bcf	3,7	;select IRP bank0
  4652     014A  0780               	addwf	0,f
  4653     014B  0A84               	incf	4,f
  4654     014C  1803               	skipnc
  4655     014D  0A80               	incf	0,f
  4656     014E                     l4900:
  4657                           
  4658                           ;C:\Program Files\Microchip\xc8\v3.10\pic\sources\c99\common\doprnt.c: 1800:            
      +                           fputc((int)'%', fp);
  4659     014E  3025               	movlw	37
  4660     014F  00F0               	movwf	fputc@c
  4661     0150  3000               	movlw	0
  4662     0151  00F1               	movwf	fputc@c+1
  4663     0152  083B               	movf	vfpfcnvrt@fp,w
  4664     0153  00F2               	movwf	fputc@fp
  4665     0154  083C               	movf	vfpfcnvrt@fp+1,w
  4666     0155  00F3               	movwf	fputc@fp+1
  4667     0156  160A  118A  21F7  120A  118A  	fcall	_fputc
  4668     015B  2988               	goto	l923
  4669     015C                     l4904:
  4670                           
  4671                           ;C:\Program Files\Microchip\xc8\v3.10\pic\sources\c99\common\doprnt.c: 1806:         ++*
      +                          fmt;
  4672     015C  1283               	bcf	3,5	;RP0=0, select bank0
  4673     015D  1303               	bcf	3,6	;RP1=0, select bank0
  4674     015E  083D               	movf	vfpfcnvrt@fmt,w
  4675     015F  0084               	movwf	4
  4676     0160  3001               	movlw	1
  4677     0161  1383               	bcf	3,7	;select IRP bank0
  4678     0162  0780               	addwf	0,f
  4679     0163  0A84               	incf	4,f
  4680     0164  1803               	skipnc
  4681     0165  0A80               	incf	0,f
  4682     0166  2988               	goto	l923
  4683     0167                     l4908:
  4684                           
  4685                           ;C:\Program Files\Microchip\xc8\v3.10\pic\sources\c99\common\doprnt.c: 1811:     fputc((
      +                          int)(*fmt)[0], fp);
  4686     0167  083D               	movf	vfpfcnvrt@fmt,w
  4687     0168  0084               	movwf	4
  4688     0169  1383               	bcf	3,7	;select IRP bank0
  4689     016A  0800               	movf	0,w
  4690     016B  00BF               	movwf	??_vfpfcnvrt
  4691     016C  0A84               	incf	4,f
  4692     016D  0800               	movf	0,w
  4693     016E  00C0               	movwf	??_vfpfcnvrt+1
  4694     016F  0840               	movf	??_vfpfcnvrt+1,w
  4695     0170  00FF               	movwf	btemp1
  4696     0171  083F               	movf	??_vfpfcnvrt,w
  4697     0172  0084               	movwf	4
  4698     0173  160A  158A  215F  120A  118A  	fcall	stringtab
  4699     0178  00C1               	movwf	??_vfpfcnvrt+2
  4700     0179  01C2               	clrf	??_vfpfcnvrt+3
  4701     017A  0841               	movf	??_vfpfcnvrt+2,w
  4702     017B  00F0               	movwf	fputc@c
  4703     017C  0842               	movf	??_vfpfcnvrt+3,w
  4704     017D  00F1               	movwf	fputc@c+1
  4705     017E  083B               	movf	vfpfcnvrt@fp,w
  4706     017F  00F2               	movwf	fputc@fp
  4707     0180  083C               	movf	vfpfcnvrt@fp+1,w
  4708     0181  00F3               	movwf	fputc@fp+1
  4709     0182  160A  118A  21F7  120A  118A  	fcall	_fputc
  4710     0187  295C               	goto	l4904
  4711     0188                     l923:
  4712     0188  0008               	return
  4713     0189                     __end_of_vfpfcnvrt:
  4714                           
  4715                           	psect	text4
  4716     1178                     __ptext4:	
  4717 ;; *************** function _utoa *****************
  4718 ;; Defined at:
  4719 ;;		line 1001 in file "C:\Program Files\Microchip\xc8\v3.10\pic\sources\c99\common\doprnt.c"
  4720 ;; Parameters:    Size  Location     Type
  4721 ;;  fp              2   15[BANK0 ] PTR struct _IO_FILE
  4722 ;;		 -> sprintf@f(11), 
  4723 ;;  d               2   17[BANK0 ] unsigned int 
  4724 ;; Auto vars:     Size  Location     Type
  4725 ;;  i               2   22[BANK0 ] int 
  4726 ;;  w               2   20[BANK0 ] int 
  4727 ;;  p               1   19[BANK0 ] _Bool 
  4728 ;; Return value:  Size  Location     Type
  4729 ;;                  1    wreg      void 
  4730 ;; Registers used:
  4731 ;;		wreg, fsr0l, fsr0h, status,2, status,0, pclath, btemp1, cstack
  4732 ;; Tracked objects:
  4733 ;;		On entry : 0/0
  4734 ;;		On exit  : 0/0
  4735 ;;		Unchanged: 0/0
  4736 ;; Data sizes:     COMMON   BANK0   BANK1   BANK3   BANK2
  4737 ;;      Params:         0       4       0       0       0
  4738 ;;      Locals:         0       5       0       0       0
  4739 ;;      Temps:          0       0       0       0       0
  4740 ;;      Totals:         0       9       0       0       0
  4741 ;;Total ram usage:        9 bytes
  4742 ;; Hardware stack levels used: 1
  4743 ;; Hardware stack levels required when called: 1
  4744 ;; This function calls:
  4745 ;;		___lwdiv
  4746 ;;		___lwmod
  4747 ;;		_pad
  4748 ;; This function is called by:
  4749 ;;		_vfpfcnvrt
  4750 ;; This function uses a non-reentrant model
  4751 ;;
  4752                           
  4753     1178                     _utoa:	
  4754                           ;psect for function _utoa
  4755                           
  4756     1178                     l4722:	
  4757                           ;incstack = 0
  4758                           ; Regs used in _utoa: [wreg-fsr0h+status,2+status,0+pclath+btemp1+cstack]
  4759                           
  4760                           
  4761                           ;C:\Program Files\Microchip\xc8\v3.10\pic\sources\c99\common\doprnt.c: 1001: static void
      +                           utoa(FILE *fp, vfpf_uint_t d);C:\Program Files\Microchip\xc8\v3.10\pic\sources\c99\comm
      +                          on\doprnt.c: 1002: {;C:\Program Files\Microchip\xc8\v3.10\pic\sources\c99\common\doprnt.
      +                          c: 1003:     int i, w;;C:\Program Files\Microchip\xc8\v3.10\pic\sources\c99\common\doprn
      +                          t.c: 1007:  _Bool p = 1;
  4762     1178  3001               	movlw	1
  4763     1179  1283               	bcf	3,5	;RP0=0, select bank0
  4764     117A  1303               	bcf	3,6	;RP1=0, select bank0
  4765     117B  00B3               	movwf	utoa@p
  4766     117C                     l4724:
  4767                           
  4768                           ;C:\Program Files\Microchip\xc8\v3.10\pic\sources\c99\common\doprnt.c: 1019:     w = wid
      +                          th;
  4769     117C  086A               	movf	_width+1,w
  4770     117D  00B5               	movwf	utoa@w+1
  4771     117E  0869               	movf	_width,w
  4772     117F  00B4               	movwf	utoa@w
  4773                           
  4774                           ;C:\Program Files\Microchip\xc8\v3.10\pic\sources\c99\common\doprnt.c: 1022:     i = siz
      +                          eof(dbuf) - 1;
  4775     1180  301F               	movlw	31
  4776     1181  00B6               	movwf	utoa@i
  4777     1182  3000               	movlw	0
  4778     1183  00B7               	movwf	utoa@i+1
  4779     1184                     l4726:
  4780                           
  4781                           ;C:\Program Files\Microchip\xc8\v3.10\pic\sources\c99\common\doprnt.c: 1023:     dbuf[i]
      +                           = '\0';
  4782     1184  1683               	bsf	3,5	;RP0=1, select bank3
  4783     1185  1703               	bsf	3,6	;RP1=1, select bank3
  4784     1186  01DE               	clrf	(_dbuf^(0+384)+31)
  4785                           
  4786                           ;C:\Program Files\Microchip\xc8\v3.10\pic\sources\c99\common\doprnt.c: 1024:     while (
      +                          i && (d != 0
  4787     1187  29BE               	goto	l4738
  4788     1188                     l4728:
  4789                           
  4790                           ;C:\Program Files\Microchip\xc8\v3.10\pic\sources\c99\common\doprnt.c: 1033:     )) {;C:
      +                          \Program Files\Microchip\xc8\v3.10\pic\sources\c99\common\doprnt.c: 1034:         --i;
  4791     1188  30FF               	movlw	255
  4792     1189  07B6               	addwf	utoa@i,f
  4793     118A  1803               	skipnc
  4794     118B  0AB7               	incf	utoa@i+1,f
  4795     118C  30FF               	movlw	255
  4796     118D  07B7               	addwf	utoa@i+1,f
  4797     118E                     l4730:
  4798                           
  4799                           ;C:\Program Files\Microchip\xc8\v3.10\pic\sources\c99\common\doprnt.c: 1035:         dbu
      +                          f[i] = '0' + (d % 10);
  4800     118E  0836               	movf	utoa@i,w
  4801     118F  3EBF               	addlw	(low (_dbuf| (0+256)))& (0+255)
  4802     1190  0084               	movwf	4
  4803     1191  300A               	movlw	10
  4804     1192  00F0               	movwf	___lwmod@divisor
  4805     1193  3000               	movlw	0
  4806     1194  00F1               	movwf	___lwmod@divisor+1
  4807     1195  0832               	movf	utoa@d+1,w
  4808     1196  00F3               	movwf	___lwmod@dividend+1
  4809     1197  0831               	movf	utoa@d,w
  4810     1198  00F2               	movwf	___lwmod@dividend
  4811     1199  160A  158A  24C9  160A  118A  	fcall	___lwmod
  4812     119E  0870               	movf	?___lwmod,w
  4813     119F  3E30               	addlw	48
  4814     11A0  1783               	bsf	3,7	;select IRP bank3
  4815     11A1  0080               	movwf	0
  4816     11A2                     l4732:
  4817                           
  4818                           ;C:\Program Files\Microchip\xc8\v3.10\pic\sources\c99\common\doprnt.c: 1039:   p = 0;
  4819     11A2  1283               	bcf	3,5	;RP0=0, select bank0
  4820     11A3  1303               	bcf	3,6	;RP1=0, select bank0
  4821     11A4  01B3               	clrf	utoa@p
  4822     11A5                     l4734:
  4823                           
  4824                           ;C:\Program Files\Microchip\xc8\v3.10\pic\sources\c99\common\doprnt.c: 1041:         --w
      +                          ;
  4825     11A5  30FF               	movlw	255
  4826     11A6  07B4               	addwf	utoa@w,f
  4827     11A7  1803               	skipnc
  4828     11A8  0AB5               	incf	utoa@w+1,f
  4829     11A9  30FF               	movlw	255
  4830     11AA  07B5               	addwf	utoa@w+1,f
  4831     11AB                     l4736:
  4832                           
  4833                           ;C:\Program Files\Microchip\xc8\v3.10\pic\sources\c99\common\doprnt.c: 1042:         d =
      +                           d / 10;
  4834     11AB  300A               	movlw	10
  4835     11AC  00F0               	movwf	___lwdiv@divisor
  4836     11AD  3000               	movlw	0
  4837     11AE  00F1               	movwf	___lwdiv@divisor+1
  4838     11AF  0832               	movf	utoa@d+1,w
  4839     11B0  00F3               	movwf	___lwdiv@dividend+1
  4840     11B1  0831               	movf	utoa@d,w
  4841     11B2  00F2               	movwf	___lwdiv@dividend
  4842     11B3  160A  158A  253A  160A  118A  	fcall	___lwdiv
  4843     11B8  0871               	movf	?___lwdiv+1,w
  4844     11B9  1283               	bcf	3,5	;RP0=0, select bank0
  4845     11BA  1303               	bcf	3,6	;RP1=0, select bank0
  4846     11BB  00B2               	movwf	utoa@d+1
  4847     11BC  0870               	movf	?___lwdiv,w
  4848     11BD  00B1               	movwf	utoa@d
  4849     11BE                     l4738:
  4850                           
  4851                           ;C:\Program Files\Microchip\xc8\v3.10\pic\sources\c99\common\doprnt.c: 1024:     while (
      +                          i && (d != 0
  4852     11BE  1283               	bcf	3,5	;RP0=0, select bank0
  4853     11BF  1303               	bcf	3,6	;RP1=0, select bank0
  4854     11C0  0836               	movf	utoa@i,w
  4855     11C1  0437               	iorwf	utoa@i+1,w
  4856     11C2  1903               	btfsc	3,2
  4857     11C3  29C5               	goto	u6731
  4858     11C4  29C6               	goto	u6730
  4859     11C5                     u6731:
  4860     11C5  29E4               	goto	l4748
  4861     11C6                     u6730:
  4862     11C6                     l4740:
  4863     11C6  0831               	movf	utoa@d,w
  4864     11C7  0432               	iorwf	utoa@d+1,w
  4865     11C8  1D03               	btfss	3,2
  4866     11C9  29CB               	goto	u6741
  4867     11CA  29CC               	goto	u6740
  4868     11CB                     u6741:
  4869     11CB  2988               	goto	l4728
  4870     11CC                     u6740:
  4871     11CC                     l4742:
  4872     11CC  0833               	movf	utoa@p,w
  4873     11CD  1D03               	btfss	3,2
  4874     11CE  29D0               	goto	u6751
  4875     11CF  29D1               	goto	u6750
  4876     11D0                     u6751:
  4877     11D0  2988               	goto	l4728
  4878     11D1                     u6750:
  4879     11D1                     l4744:
  4880     11D1  0835               	movf	utoa@w+1,w
  4881     11D2  3A80               	xorlw	128
  4882     11D3  00FF               	movwf	btemp1
  4883     11D4  3080               	movlw	128
  4884     11D5  027F               	subwf	btemp1,w
  4885     11D6  1D03               	skipz
  4886     11D7  29DA               	goto	u6765
  4887     11D8  3001               	movlw	1
  4888     11D9  0234               	subwf	utoa@w,w
  4889     11DA                     u6765:
  4890     11DA  1C03               	skipc
  4891     11DB  29DD               	goto	u6761
  4892     11DC  29DE               	goto	u6760
  4893     11DD                     u6761:
  4894     11DD  29E4               	goto	l4748
  4895     11DE                     u6760:
  4896     11DE                     l4746:
  4897     11DE  1283               	bcf	3,5	;RP0=0, select bank0
  4898     11DF  1303               	bcf	3,6	;RP1=0, select bank0
  4899     11E0  18EF               	btfsc	_flags,1
  4900     11E1  29E3               	goto	u6771
  4901     11E2  29E4               	goto	u6770
  4902     11E3                     u6771:
  4903     11E3  2988               	goto	l4728
  4904     11E4                     u6770:
  4905     11E4                     l4748:
  4906                           
  4907                           ;C:\Program Files\Microchip\xc8\v3.10\pic\sources\c99\common\doprnt.c: 1046:     return 
      +                          (void) pad(fp, &dbuf[i], w);
  4908     11E4  1283               	bcf	3,5	;RP0=0, select bank0
  4909     11E5  1303               	bcf	3,6	;RP1=0, select bank0
  4910     11E6  082F               	movf	utoa@fp,w
  4911     11E7  00A8               	movwf	pad@fp
  4912     11E8  0830               	movf	utoa@fp+1,w
  4913     11E9  00A9               	movwf	pad@fp+1
  4914     11EA  0836               	movf	utoa@i,w
  4915     11EB  3EBF               	addlw	(low (_dbuf| (0+256)))& (0+255)
  4916     11EC  00AA               	movwf	pad@buf
  4917     11ED  0835               	movf	utoa@w+1,w
  4918     11EE  00AC               	movwf	pad@p+1
  4919     11EF  0834               	movf	utoa@w,w
  4920     11F0  00AB               	movwf	pad@p
  4921     11F1  160A  158A  26F3  160A  118A  	fcall	_pad
  4922     11F6                     l900:
  4923     11F6  0008               	return
  4924     11F7                     __end_of_utoa:
  4925                           
  4926                           	psect	text5
  4927     1CC9                     __ptext5:	
  4928 ;; *************** function ___lwmod *****************
  4929 ;; Defined at:
  4930 ;;		line 5 in file "C:\Program Files\Microchip\xc8\v3.10\pic\sources\c99\common\lwmod.c"
  4931 ;; Parameters:    Size  Location     Type
  4932 ;;  divisor         2    0[COMMON] unsigned int 
  4933 ;;  dividend        2    2[COMMON] unsigned int 
  4934 ;; Auto vars:     Size  Location     Type
  4935 ;;  counter         1    4[COMMON] unsigned char 
  4936 ;; Return value:  Size  Location     Type
  4937 ;;                  2    0[COMMON] unsigned int 
  4938 ;; Registers used:
  4939 ;;		wreg, status,2, status,0
  4940 ;; Tracked objects:
  4941 ;;		On entry : 0/0
  4942 ;;		On exit  : 0/0
  4943 ;;		Unchanged: 0/0
  4944 ;; Data sizes:     COMMON   BANK0   BANK1   BANK3   BANK2
  4945 ;;      Params:         4       0       0       0       0
  4946 ;;      Locals:         1       0       0       0       0
  4947 ;;      Temps:          0       0       0       0       0
  4948 ;;      Totals:         5       0       0       0       0
  4949 ;;Total ram usage:        5 bytes
  4950 ;; Hardware stack levels used: 1
  4951 ;; This function calls:
  4952 ;;		Nothing
  4953 ;; This function is called by:
  4954 ;;		_utoa
  4955 ;; This function uses a non-reentrant model
  4956 ;;
  4957                           
  4958     1CC9                     ___lwmod:	
  4959                           ;psect for function ___lwmod
  4960                           
  4961     1CC9                     l4630:	
  4962                           ;incstack = 0
  4963                           ; Regs used in ___lwmod: [wreg+status,2+status,0]
  4964                           
  4965     1CC9  0870               	movf	___lwmod@divisor,w
  4966     1CCA  0471               	iorwf	___lwmod@divisor+1,w
  4967     1CCB  1903               	btfsc	3,2
  4968     1CCC  2CCE               	goto	u6521
  4969     1CCD  2CCF               	goto	u6520
  4970     1CCE                     u6521:
  4971     1CCE  2CFC               	goto	l4648
  4972     1CCF                     u6520:
  4973     1CCF                     l4632:
  4974     1CCF  3001               	movlw	1
  4975     1CD0  00F4               	movwf	___lwmod@counter
  4976     1CD1  2CDB               	goto	l4638
  4977     1CD2                     l4634:
  4978     1CD2  3001               	movlw	1
  4979     1CD3                     u6535:
  4980     1CD3  1003               	clrc
  4981     1CD4  0DF0               	rlf	___lwmod@divisor,f
  4982     1CD5  0DF1               	rlf	___lwmod@divisor+1,f
  4983     1CD6  3EFF               	addlw	-1
  4984     1CD7  1D03               	skipz
  4985     1CD8  2CD3               	goto	u6535
  4986     1CD9                     l4636:
  4987     1CD9  3001               	movlw	1
  4988     1CDA  07F4               	addwf	___lwmod@counter,f
  4989     1CDB                     l4638:
  4990     1CDB  1FF1               	btfss	___lwmod@divisor+1,7
  4991     1CDC  2CDE               	goto	u6541
  4992     1CDD  2CDF               	goto	u6540
  4993     1CDE                     u6541:
  4994     1CDE  2CD2               	goto	l4634
  4995     1CDF                     u6540:
  4996     1CDF                     l4640:
  4997     1CDF  0871               	movf	___lwmod@divisor+1,w
  4998     1CE0  0273               	subwf	___lwmod@dividend+1,w
  4999     1CE1  1D03               	skipz
  5000     1CE2  2CE5               	goto	u6555
  5001     1CE3  0870               	movf	___lwmod@divisor,w
  5002     1CE4  0272               	subwf	___lwmod@dividend,w
  5003     1CE5                     u6555:
  5004     1CE5  1C03               	skipc
  5005     1CE6  2CE8               	goto	u6551
  5006     1CE7  2CE9               	goto	u6550
  5007     1CE8                     u6551:
  5008     1CE8  2CEF               	goto	l4644
  5009     1CE9                     u6550:
  5010     1CE9                     l4642:
  5011     1CE9  0870               	movf	___lwmod@divisor,w
  5012     1CEA  02F2               	subwf	___lwmod@dividend,f
  5013     1CEB  0871               	movf	___lwmod@divisor+1,w
  5014     1CEC  1C03               	skipc
  5015     1CED  03F3               	decf	___lwmod@dividend+1,f
  5016     1CEE  02F3               	subwf	___lwmod@dividend+1,f
  5017     1CEF                     l4644:
  5018     1CEF  3001               	movlw	1
  5019     1CF0                     u6565:
  5020     1CF0  1003               	clrc
  5021     1CF1  0CF1               	rrf	___lwmod@divisor+1,f
  5022     1CF2  0CF0               	rrf	___lwmod@divisor,f
  5023     1CF3  3EFF               	addlw	-1
  5024     1CF4  1D03               	skipz
  5025     1CF5  2CF0               	goto	u6565
  5026     1CF6                     l4646:
  5027     1CF6  3001               	movlw	1
  5028     1CF7  02F4               	subwf	___lwmod@counter,f
  5029     1CF8  1D03               	btfss	3,2
  5030     1CF9  2CFB               	goto	u6571
  5031     1CFA  2CFC               	goto	u6570
  5032     1CFB                     u6571:
  5033     1CFB  2CDF               	goto	l4640
  5034     1CFC                     u6570:
  5035     1CFC                     l4648:
  5036     1CFC  0873               	movf	___lwmod@dividend+1,w
  5037     1CFD  00F1               	movwf	?___lwmod+1
  5038     1CFE  0872               	movf	___lwmod@dividend,w
  5039     1CFF  00F0               	movwf	?___lwmod
  5040     1D00                     l676:
  5041     1D00  0008               	return
  5042     1D01                     __end_of___lwmod:
  5043                           
  5044                           	psect	text6
  5045     1D3A                     __ptext6:	
  5046 ;; *************** function ___lwdiv *****************
  5047 ;; Defined at:
  5048 ;;		line 5 in file "C:\Program Files\Microchip\xc8\v3.10\pic\sources\c99\common\lwdiv.c"
  5049 ;; Parameters:    Size  Location     Type
  5050 ;;  divisor         2    0[COMMON] unsigned int 
  5051 ;;  dividend        2    2[COMMON] unsigned int 
  5052 ;; Auto vars:     Size  Location     Type
  5053 ;;  quotient        2    5[COMMON] unsigned int 
  5054 ;;  counter         1    4[COMMON] unsigned char 
  5055 ;; Return value:  Size  Location     Type
  5056 ;;                  2    0[COMMON] unsigned int 
  5057 ;; Registers used:
  5058 ;;		wreg, status,2, status,0
  5059 ;; Tracked objects:
  5060 ;;		On entry : 0/0
  5061 ;;		On exit  : 0/0
  5062 ;;		Unchanged: 0/0
  5063 ;; Data sizes:     COMMON   BANK0   BANK1   BANK3   BANK2
  5064 ;;      Params:         4       0       0       0       0
  5065 ;;      Locals:         3       0       0       0       0
  5066 ;;      Temps:          0       0       0       0       0
  5067 ;;      Totals:         7       0       0       0       0
  5068 ;;Total ram usage:        7 bytes
  5069 ;; Hardware stack levels used: 1
  5070 ;; This function calls:
  5071 ;;		Nothing
  5072 ;; This function is called by:
  5073 ;;		_utoa
  5074 ;; This function uses a non-reentrant model
  5075 ;;
  5076                           
  5077     1D3A                     ___lwdiv:	
  5078                           ;psect for function ___lwdiv
  5079                           
  5080     1D3A                     l4604:	
  5081                           ;incstack = 0
  5082                           ; Regs used in ___lwdiv: [wreg+status,2+status,0]
  5083                           
  5084     1D3A  01F5               	clrf	___lwdiv@quotient
  5085     1D3B  01F6               	clrf	___lwdiv@quotient+1
  5086     1D3C                     l4606:
  5087     1D3C  0870               	movf	___lwdiv@divisor,w
  5088     1D3D  0471               	iorwf	___lwdiv@divisor+1,w
  5089     1D3E  1903               	btfsc	3,2
  5090     1D3F  2D41               	goto	u6451
  5091     1D40  2D42               	goto	u6450
  5092     1D41                     u6451:
  5093     1D41  2D77               	goto	l4626
  5094     1D42                     u6450:
  5095     1D42                     l4608:
  5096     1D42  3001               	movlw	1
  5097     1D43  00F4               	movwf	___lwdiv@counter
  5098     1D44  2D4E               	goto	l4614
  5099     1D45                     l4610:
  5100     1D45  3001               	movlw	1
  5101     1D46                     u6465:
  5102     1D46  1003               	clrc
  5103     1D47  0DF0               	rlf	___lwdiv@divisor,f
  5104     1D48  0DF1               	rlf	___lwdiv@divisor+1,f
  5105     1D49  3EFF               	addlw	-1
  5106     1D4A  1D03               	skipz
  5107     1D4B  2D46               	goto	u6465
  5108     1D4C                     l4612:
  5109     1D4C  3001               	movlw	1
  5110     1D4D  07F4               	addwf	___lwdiv@counter,f
  5111     1D4E                     l4614:
  5112     1D4E  1FF1               	btfss	___lwdiv@divisor+1,7
  5113     1D4F  2D51               	goto	u6471
  5114     1D50  2D52               	goto	u6470
  5115     1D51                     u6471:
  5116     1D51  2D45               	goto	l4610
  5117     1D52                     u6470:
  5118     1D52                     l4616:
  5119     1D52  3001               	movlw	1
  5120     1D53                     u6485:
  5121     1D53  1003               	clrc
  5122     1D54  0DF5               	rlf	___lwdiv@quotient,f
  5123     1D55  0DF6               	rlf	___lwdiv@quotient+1,f
  5124     1D56  3EFF               	addlw	-1
  5125     1D57  1D03               	skipz
  5126     1D58  2D53               	goto	u6485
  5127     1D59  0871               	movf	___lwdiv@divisor+1,w
  5128     1D5A  0273               	subwf	___lwdiv@dividend+1,w
  5129     1D5B  1D03               	skipz
  5130     1D5C  2D5F               	goto	u6495
  5131     1D5D  0870               	movf	___lwdiv@divisor,w
  5132     1D5E  0272               	subwf	___lwdiv@dividend,w
  5133     1D5F                     u6495:
  5134     1D5F  1C03               	skipc
  5135     1D60  2D62               	goto	u6491
  5136     1D61  2D63               	goto	u6490
  5137     1D62                     u6491:
  5138     1D62  2D6A               	goto	l4622
  5139     1D63                     u6490:
  5140     1D63                     l4618:
  5141     1D63  0870               	movf	___lwdiv@divisor,w
  5142     1D64  02F2               	subwf	___lwdiv@dividend,f
  5143     1D65  0871               	movf	___lwdiv@divisor+1,w
  5144     1D66  1C03               	skipc
  5145     1D67  03F3               	decf	___lwdiv@dividend+1,f
  5146     1D68  02F3               	subwf	___lwdiv@dividend+1,f
  5147     1D69                     l4620:
  5148     1D69  1475               	bsf	___lwdiv@quotient,0
  5149     1D6A                     l4622:
  5150     1D6A  3001               	movlw	1
  5151     1D6B                     u6505:
  5152     1D6B  1003               	clrc
  5153     1D6C  0CF1               	rrf	___lwdiv@divisor+1,f
  5154     1D6D  0CF0               	rrf	___lwdiv@divisor,f
  5155     1D6E  3EFF               	addlw	-1
  5156     1D6F  1D03               	skipz
  5157     1D70  2D6B               	goto	u6505
  5158     1D71                     l4624:
  5159     1D71  3001               	movlw	1
  5160     1D72  02F4               	subwf	___lwdiv@counter,f
  5161     1D73  1D03               	btfss	3,2
  5162     1D74  2D76               	goto	u6511
  5163     1D75  2D77               	goto	u6510
  5164     1D76                     u6511:
  5165     1D76  2D52               	goto	l4616
  5166     1D77                     u6510:
  5167     1D77                     l4626:
  5168     1D77  0876               	movf	___lwdiv@quotient+1,w
  5169     1D78  00F1               	movwf	?___lwdiv+1
  5170     1D79  0875               	movf	___lwdiv@quotient,w
  5171     1D7A  00F0               	movwf	?___lwdiv
  5172     1D7B                     l666:
  5173     1D7B  0008               	return
  5174     1D7C                     __end_of___lwdiv:
  5175                           
  5176                           	psect	text7
  5177     1095                     __ptext7:	
  5178 ;; *************** function _read_prec_or_width *****************
  5179 ;; Defined at:
  5180 ;;		line 1158 in file "C:\Program Files\Microchip\xc8\v3.10\pic\sources\c99\common\doprnt.c"
  5181 ;; Parameters:    Size  Location     Type
  5182 ;;  fmt             1    6[COMMON] PTR PTR const unsigned c
  5183 ;;		 -> vfprintf@cfmt(2), 
  5184 ;;  ap              1    7[COMMON] PTR PTR void [1]
  5185 ;;		 -> sprintf@ap(1), 
  5186 ;; Auto vars:     Size  Location     Type
  5187 ;;  c               1   10[COMMON] unsigned char 
  5188 ;;  n               2   11[COMMON] int 
  5189 ;; Return value:  Size  Location     Type
  5190 ;;                  2    6[COMMON] int 
  5191 ;; Registers used:
  5192 ;;		wreg, fsr0l, fsr0h, status,2, status,0, pclath, btemp1, cstack
  5193 ;; Tracked objects:
  5194 ;;		On entry : 0/0
  5195 ;;		On exit  : 0/0
  5196 ;;		Unchanged: 0/0
  5197 ;; Data sizes:     COMMON   BANK0   BANK1   BANK3   BANK2
  5198 ;;      Params:         2       0       0       0       0
  5199 ;;      Locals:         3       0       0       0       0
  5200 ;;      Temps:          2       0       0       0       0
  5201 ;;      Totals:         7       0       0       0       0
  5202 ;;Total ram usage:        7 bytes
  5203 ;; Hardware stack levels used: 1
  5204 ;; Hardware stack levels required when called: 1
  5205 ;; This function calls:
  5206 ;;		___wmul
  5207 ;; This function is called by:
  5208 ;;		_vfpfcnvrt
  5209 ;; This function uses a non-reentrant model
  5210 ;;
  5211                           
  5212     1095                     _read_prec_or_width:	
  5213                           ;psect for function _read_prec_or_width
  5214                           
  5215     1095                     l4752:	
  5216                           ;incstack = 0
  5217                           ; Regs used in _read_prec_or_width: [wreg-fsr0h+status,2+status,0+pclath+btemp1+cstack]
  5218                           
  5219                           
  5220                           ;C:\Program Files\Microchip\xc8\v3.10\pic\sources\c99\common\doprnt.c: 1159:     int n =
      +                           0;
  5221     1095  01FB               	clrf	read_prec_or_width@n
  5222     1096  01FC               	clrf	read_prec_or_width@n+1
  5223     1097                     l4754:
  5224                           
  5225                           ;C:\Program Files\Microchip\xc8\v3.10\pic\sources\c99\common\doprnt.c: 1160:     if ((*f
      +                          mt)[0] == '*') {
  5226     1097  0876               	movf	read_prec_or_width@fmt,w
  5227     1098  0084               	movwf	4
  5228     1099  1383               	bcf	3,7	;select IRP bank0
  5229     109A  0800               	movf	0,w
  5230     109B  00F8               	movwf	??_read_prec_or_width
  5231     109C  0A84               	incf	4,f
  5232     109D  0800               	movf	0,w
  5233     109E  00F9               	movwf	??_read_prec_or_width+1
  5234     109F  0879               	movf	??_read_prec_or_width+1,w
  5235     10A0  1283               	bcf	3,5	;RP0=0, select bank0
  5236     10A1  1303               	bcf	3,6	;RP1=0, select bank0
  5237     10A2  00FF               	movwf	btemp1
  5238     10A3  0878               	movf	??_read_prec_or_width,w
  5239     10A4  0084               	movwf	4
  5240     10A5  160A  158A  215F  160A  118A  	fcall	stringtab
  5241     10AA  3A2A               	xorlw	42
  5242     10AB  1D03               	skipz
  5243     10AC  28AE               	goto	u6781
  5244     10AD  28AF               	goto	u6780
  5245     10AE                     u6781:
  5246     10AE  28E2               	goto	l4764
  5247     10AF                     u6780:
  5248     10AF                     l4756:
  5249                           
  5250                           ;C:\Program Files\Microchip\xc8\v3.10\pic\sources\c99\common\doprnt.c: 1161:         ++*
      +                          fmt;
  5251     10AF  0876               	movf	read_prec_or_width@fmt,w
  5252     10B0  0084               	movwf	4
  5253     10B1  3001               	movlw	1
  5254     10B2  1383               	bcf	3,7	;select IRP bank0
  5255     10B3  0780               	addwf	0,f
  5256     10B4  0A84               	incf	4,f
  5257     10B5  1803               	skipnc
  5258     10B6  0A80               	incf	0,f
  5259     10B7                     l4758:
  5260                           
  5261                           ;C:\Program Files\Microchip\xc8\v3.10\pic\sources\c99\common\doprnt.c: 1162:         n =
      +                           (*(int *)__va_arg(*(int **)*ap, (int)0));
  5262     10B7  0877               	movf	read_prec_or_width@ap,w
  5263     10B8  0084               	movwf	4
  5264     10B9  0800               	movf	0,w
  5265     10BA  00FF               	movwf	btemp1
  5266     10BB  3002               	movlw	2
  5267     10BC  0780               	addwf	0,f
  5268     10BD  087F               	movf	btemp1,w
  5269     10BE  0084               	movwf	4
  5270     10BF  0800               	movf	0,w
  5271     10C0  00FB               	movwf	read_prec_or_width@n
  5272     10C1  0A84               	incf	4,f
  5273     10C2  0800               	movf	0,w
  5274     10C3  00FC               	movwf	read_prec_or_width@n+1
  5275                           
  5276                           ;C:\Program Files\Microchip\xc8\v3.10\pic\sources\c99\common\doprnt.c: 1163:     } else 
      +                          {
  5277     10C4  28FD               	goto	l4766
  5278     10C5                     l4760:
  5279                           
  5280                           ;C:\Program Files\Microchip\xc8\v3.10\pic\sources\c99\common\doprnt.c: 1166:            
      +                           n = n * 10 + c;
  5281     10C5  087C               	movf	read_prec_or_width@n+1,w
  5282     10C6  00F1               	movwf	___wmul@multiplier+1
  5283     10C7  087B               	movf	read_prec_or_width@n,w
  5284     10C8  00F0               	movwf	___wmul@multiplier
  5285     10C9  300A               	movlw	10
  5286     10CA  00F2               	movwf	___wmul@multiplicand
  5287     10CB  3000               	movlw	0
  5288     10CC  00F3               	movwf	___wmul@multiplicand+1
  5289     10CD  160A  158A  2430  160A  118A  	fcall	___wmul
  5290     10D2  087A               	movf	read_prec_or_width@c,w
  5291     10D3  0770               	addwf	?___wmul,w
  5292     10D4  00FB               	movwf	read_prec_or_width@n
  5293     10D5  3000               	movlw	0
  5294     10D6  1803               	skipnc
  5295     10D7  3001               	movlw	1
  5296     10D8  0771               	addwf	?___wmul+1,w
  5297     10D9  00FC               	movwf	read_prec_or_width@n+1
  5298     10DA                     l4762:
  5299                           
  5300                           ;C:\Program Files\Microchip\xc8\v3.10\pic\sources\c99\common\doprnt.c: 1167:            
      +                           ++*fmt;
  5301     10DA  0876               	movf	read_prec_or_width@fmt,w
  5302     10DB  0084               	movwf	4
  5303     10DC  3001               	movlw	1
  5304     10DD  1383               	bcf	3,7	;select IRP bank0
  5305     10DE  0780               	addwf	0,f
  5306     10DF  0A84               	incf	4,f
  5307     10E0  1803               	skipnc
  5308     10E1  0A80               	incf	0,f
  5309     10E2                     l4764:
  5310                           
  5311                           ;C:\Program Files\Microchip\xc8\v3.10\pic\sources\c99\common\doprnt.c: 1165:         whi
      +                          le ((c = ((unsigned)(*fmt)[0]) - '0') < 10) {
  5312     10E2  0876               	movf	read_prec_or_width@fmt,w
  5313     10E3  0084               	movwf	4
  5314     10E4  1383               	bcf	3,7	;select IRP bank0
  5315     10E5  0800               	movf	0,w
  5316     10E6  00F8               	movwf	??_read_prec_or_width
  5317     10E7  0A84               	incf	4,f
  5318     10E8  0800               	movf	0,w
  5319     10E9  00F9               	movwf	??_read_prec_or_width+1
  5320     10EA  0879               	movf	??_read_prec_or_width+1,w
  5321     10EB  1283               	bcf	3,5	;RP0=0, select bank0
  5322     10EC  1303               	bcf	3,6	;RP1=0, select bank0
  5323     10ED  00FF               	movwf	btemp1
  5324     10EE  0878               	movf	??_read_prec_or_width,w
  5325     10EF  0084               	movwf	4
  5326     10F0  160A  158A  215F  160A  118A  	fcall	stringtab
  5327     10F5  3ED0               	addlw	208
  5328     10F6  00FA               	movwf	read_prec_or_width@c
  5329     10F7  300A               	movlw	10
  5330     10F8  027A               	subwf	read_prec_or_width@c,w
  5331     10F9  1C03               	skipc
  5332     10FA  28FC               	goto	u6791
  5333     10FB  28FD               	goto	u6790
  5334     10FC                     u6791:
  5335     10FC  28C5               	goto	l4760
  5336     10FD                     u6790:
  5337     10FD                     l4766:
  5338                           
  5339                           ;C:\Program Files\Microchip\xc8\v3.10\pic\sources\c99\common\doprnt.c: 1170:     return 
      +                          n;
  5340     10FD  087C               	movf	read_prec_or_width@n+1,w
  5341     10FE  00F7               	movwf	?_read_prec_or_width+1
  5342     10FF  087B               	movf	read_prec_or_width@n,w
  5343     1100  00F6               	movwf	?_read_prec_or_width
  5344     1101                     l908:
  5345     1101  0008               	return
  5346     1102                     __end_of_read_prec_or_width:
  5347                           
  5348                           	psect	text8
  5349     1C30                     __ptext8:	
  5350 ;; *************** function ___wmul *****************
  5351 ;; Defined at:
  5352 ;;		line 15 in file "C:\Program Files\Microchip\xc8\v3.10\pic\sources\c99\common\Umul16.c"
  5353 ;; Parameters:    Size  Location     Type
  5354 ;;  multiplier      2    0[COMMON] unsigned int 
  5355 ;;  multiplicand    2    2[COMMON] unsigned int 
  5356 ;; Auto vars:     Size  Location     Type
  5357 ;;  product         2    4[COMMON] unsigned int 
  5358 ;; Return value:  Size  Location     Type
  5359 ;;                  2    0[COMMON] unsigned int 
  5360 ;; Registers used:
  5361 ;;		wreg, status,2, status,0
  5362 ;; Tracked objects:
  5363 ;;		On entry : 0/0
  5364 ;;		On exit  : 0/0
  5365 ;;		Unchanged: 0/0
  5366 ;; Data sizes:     COMMON   BANK0   BANK1   BANK3   BANK2
  5367 ;;      Params:         4       0       0       0       0
  5368 ;;      Locals:         2       0       0       0       0
  5369 ;;      Temps:          0       0       0       0       0
  5370 ;;      Totals:         6       0       0       0       0
  5371 ;;Total ram usage:        6 bytes
  5372 ;; Hardware stack levels used: 1
  5373 ;; This function calls:
  5374 ;;		Nothing
  5375 ;; This function is called by:
  5376 ;;		_main
  5377 ;;		_read_prec_or_width
  5378 ;; This function uses a non-reentrant model
  5379 ;;
  5380                           
  5381     1C30                     ___wmul:	
  5382                           ;psect for function ___wmul
  5383                           
  5384     1C30                     l4508:	
  5385                           ;incstack = 0
  5386                           ; Regs used in ___wmul: [wreg+status,2+status,0]
  5387                           
  5388     1C30  01F4               	clrf	___wmul@product
  5389     1C31  01F5               	clrf	___wmul@product+1
  5390     1C32                     l4510:
  5391     1C32  1C70               	btfss	___wmul@multiplier,0
  5392     1C33  2C35               	goto	u6221
  5393     1C34  2C36               	goto	u6220
  5394     1C35                     u6221:
  5395     1C35  2C3C               	goto	l386
  5396     1C36                     u6220:
  5397     1C36                     l4512:
  5398     1C36  0872               	movf	___wmul@multiplicand,w
  5399     1C37  07F4               	addwf	___wmul@product,f
  5400     1C38  1803               	skipnc
  5401     1C39  0AF5               	incf	___wmul@product+1,f
  5402     1C3A  0873               	movf	___wmul@multiplicand+1,w
  5403     1C3B  07F5               	addwf	___wmul@product+1,f
  5404     1C3C                     l386:
  5405     1C3C  3001               	movlw	1
  5406     1C3D                     u6235:
  5407     1C3D  1003               	clrc
  5408     1C3E  0DF2               	rlf	___wmul@multiplicand,f
  5409     1C3F  0DF3               	rlf	___wmul@multiplicand+1,f
  5410     1C40  3EFF               	addlw	-1
  5411     1C41  1D03               	skipz
  5412     1C42  2C3D               	goto	u6235
  5413     1C43                     l4514:
  5414     1C43  3001               	movlw	1
  5415     1C44                     u6245:
  5416     1C44  1003               	clrc
  5417     1C45  0CF1               	rrf	___wmul@multiplier+1,f
  5418     1C46  0CF0               	rrf	___wmul@multiplier,f
  5419     1C47  3EFF               	addlw	-1
  5420     1C48  1D03               	skipz
  5421     1C49  2C44               	goto	u6245
  5422     1C4A                     l4516:
  5423     1C4A  0870               	movf	___wmul@multiplier,w
  5424     1C4B  0471               	iorwf	___wmul@multiplier+1,w
  5425     1C4C  1D03               	btfss	3,2
  5426     1C4D  2C4F               	goto	u6251
  5427     1C4E  2C50               	goto	u6250
  5428     1C4F                     u6251:
  5429     1C4F  2C32               	goto	l4510
  5430     1C50                     u6250:
  5431     1C50                     l4518:
  5432     1C50  0875               	movf	___wmul@product+1,w
  5433     1C51  00F1               	movwf	?___wmul+1
  5434     1C52  0874               	movf	___wmul@product,w
  5435     1C53  00F0               	movwf	?___wmul
  5436     1C54                     l388:
  5437     1C54  0008               	return
  5438     1C55                     __end_of___wmul:
  5439                           
  5440                           	psect	text9
  5441     1345                     __ptext9:	
  5442 ;; *************** function _dtoa *****************
  5443 ;; Defined at:
  5444 ;;		line 513 in file "C:\Program Files\Microchip\xc8\v3.10\pic\sources\c99\common\doprnt.c"
  5445 ;; Parameters:    Size  Location     Type
  5446 ;;  fp              2   15[BANK0 ] PTR struct _IO_FILE
  5447 ;;		 -> sprintf@f(11), 
  5448 ;;  d               2   17[BANK0 ] int 
  5449 ;; Auto vars:     Size  Location     Type
  5450 ;;  i               2   25[BANK0 ] int 
  5451 ;;  w               2   22[BANK0 ] int 
  5452 ;;  s               1   24[BANK0 ] unsigned char 
  5453 ;;  p               1   21[BANK0 ] _Bool 
  5454 ;; Return value:  Size  Location     Type
  5455 ;;                  1    wreg      void 
  5456 ;; Registers used:
  5457 ;;		wreg, fsr0l, fsr0h, status,2, status,0, pclath, btemp1, cstack
  5458 ;; Tracked objects:
  5459 ;;		On entry : 0/0
  5460 ;;		On exit  : 0/0
  5461 ;;		Unchanged: 0/0
  5462 ;; Data sizes:     COMMON   BANK0   BANK1   BANK3   BANK2
  5463 ;;      Params:         0       4       0       0       0
  5464 ;;      Locals:         0       8       0       0       0
  5465 ;;      Temps:          0       0       0       0       0
  5466 ;;      Totals:         0      12       0       0       0
  5467 ;;Total ram usage:       12 bytes
  5468 ;; Hardware stack levels used: 1
  5469 ;; Hardware stack levels required when called: 3
  5470 ;; This function calls:
  5471 ;;		___awdiv
  5472 ;;		___awmod
  5473 ;;		_abs
  5474 ;;		_pad
  5475 ;; This function is called by:
  5476 ;;		_vfpfcnvrt
  5477 ;; This function uses a non-reentrant model
  5478 ;;
  5479                           
  5480     1345                     _dtoa:	
  5481                           ;psect for function _dtoa
  5482                           
  5483     1345                     l4676:	
  5484                           ;incstack = 0
  5485                           ; Regs used in _dtoa: [wreg-fsr0h+status,2+status,0+pclath+btemp1+cstack]
  5486                           
  5487                           
  5488                           ;C:\Program Files\Microchip\xc8\v3.10\pic\sources\c99\common\doprnt.c: 513: static void 
      +                          dtoa(FILE *fp, vfpf_sint_t d);C:\Program Files\Microchip\xc8\v3.10\pic\sources\c99\commo
      +                          n\doprnt.c: 514: {;C:\Program Files\Microchip\xc8\v3.10\pic\sources\c99\common\doprnt.c:
      +                           515:  char s;;C:\Program Files\Microchip\xc8\v3.10\pic\sources\c99\common\doprnt.c: 516
      +                          :     int i, w;;C:\Program Files\Microchip\xc8\v3.10\pic\sources\c99\common\doprnt.c: 52
      +                          0:  _Bool p = 1;
  5489     1345  3001               	movlw	1
  5490     1346  1283               	bcf	3,5	;RP0=0, select bank0
  5491     1347  1303               	bcf	3,6	;RP1=0, select bank0
  5492     1348  00B5               	movwf	dtoa@p
  5493     1349                     l4678:
  5494                           
  5495                           ;C:\Program Files\Microchip\xc8\v3.10\pic\sources\c99\common\doprnt.c: 524:     s = d < 
      +                          0 ? 1 : 0;
  5496     1349  1BB2               	btfsc	dtoa@d+1,7
  5497     134A  2B4C               	goto	u6631
  5498     134B  2B4E               	goto	u6630
  5499     134C                     u6631:
  5500     134C  3001               	movlw	1
  5501     134D  2B4F               	goto	u6640
  5502     134E                     u6630:
  5503     134E  3000               	movlw	0
  5504     134F                     u6640:
  5505     134F  00B8               	movwf	dtoa@s
  5506                           
  5507                           ;C:\Program Files\Microchip\xc8\v3.10\pic\sources\c99\common\doprnt.c: 535:     w = widt
      +                          h;
  5508     1350  086A               	movf	_width+1,w
  5509     1351  00B7               	movwf	dtoa@w+1
  5510     1352  0869               	movf	_width,w
  5511     1353  00B6               	movwf	dtoa@w
  5512     1354                     l4680:
  5513                           
  5514                           ;C:\Program Files\Microchip\xc8\v3.10\pic\sources\c99\common\doprnt.c: 536:     if (s
  5515     1354  0838               	movf	dtoa@s,w
  5516     1355  1903               	btfsc	3,2
  5517     1356  2B58               	goto	u6651
  5518     1357  2B59               	goto	u6650
  5519     1358                     u6651:
  5520     1358  2B6F               	goto	l877
  5521     1359                     u6650:
  5522     1359                     l4682:
  5523                           
  5524                           ;C:\Program Files\Microchip\xc8\v3.10\pic\sources\c99\common\doprnt.c: 540:     ) {;C:\P
      +                          rogram Files\Microchip\xc8\v3.10\pic\sources\c99\common\doprnt.c: 541:         --w;
  5525     1359  30FF               	movlw	255
  5526     135A  07B6               	addwf	dtoa@w,f
  5527     135B  1803               	skipnc
  5528     135C  0AB7               	incf	dtoa@w+1,f
  5529     135D  30FF               	movlw	255
  5530     135E  07B7               	addwf	dtoa@w+1,f
  5531     135F                     l4684:
  5532                           
  5533                           ;C:\Program Files\Microchip\xc8\v3.10\pic\sources\c99\common\doprnt.c: 542:   s = s ? '-
      +                          ' : '+';
  5534     135F  0838               	movf	dtoa@s,w
  5535     1360  1D03               	btfss	3,2
  5536     1361  2B63               	goto	u6661
  5537     1362  2B64               	goto	u6660
  5538     1363                     u6661:
  5539     1363  2B69               	goto	l4688
  5540     1364                     u6660:
  5541     1364                     l4686:
  5542     1364  302B               	movlw	43
  5543     1365  00B3               	movwf	_dtoa$977
  5544     1366  3000               	movlw	0
  5545     1367  00B4               	movwf	_dtoa$977+1
  5546     1368  2B6D               	goto	l881
  5547     1369                     l4688:
  5548     1369  302D               	movlw	45
  5549     136A  00B3               	movwf	_dtoa$977
  5550     136B  3000               	movlw	0
  5551     136C  00B4               	movwf	_dtoa$977+1
  5552     136D                     l881:
  5553     136D  0833               	movf	_dtoa$977,w
  5554     136E  00B8               	movwf	dtoa@s
  5555     136F                     l877:	
  5556                           ;C:\Program Files\Microchip\xc8\v3.10\pic\sources\c99\common\doprnt.c: 543:     }
  5557                           
  5558                           
  5559                           ;C:\Program Files\Microchip\xc8\v3.10\pic\sources\c99\common\doprnt.c: 552:     i = size
      +                          of(dbuf) - 1;
  5560     136F  301F               	movlw	31
  5561     1370  00B9               	movwf	dtoa@i
  5562     1371  3000               	movlw	0
  5563     1372  00BA               	movwf	dtoa@i+1
  5564     1373                     l4690:
  5565                           
  5566                           ;C:\Program Files\Microchip\xc8\v3.10\pic\sources\c99\common\doprnt.c: 553:     dbuf[i] 
      +                          = '\0';
  5567     1373  1683               	bsf	3,5	;RP0=1, select bank3
  5568     1374  1703               	bsf	3,6	;RP1=1, select bank3
  5569     1375  01DE               	clrf	(_dbuf^(0+384)+31)
  5570                           
  5571                           ;C:\Program Files\Microchip\xc8\v3.10\pic\sources\c99\common\doprnt.c: 554:     while (!
      +                          (i < 1) && (d != 0
  5572     1376  2BB6               	goto	l4702
  5573     1377                     l4692:
  5574                           
  5575                           ;C:\Program Files\Microchip\xc8\v3.10\pic\sources\c99\common\doprnt.c: 563:     )) {;C:\
      +                          Program Files\Microchip\xc8\v3.10\pic\sources\c99\common\doprnt.c: 564:         --i;
  5576     1377  30FF               	movlw	255
  5577     1378  07B9               	addwf	dtoa@i,f
  5578     1379  1803               	skipnc
  5579     137A  0ABA               	incf	dtoa@i+1,f
  5580     137B  30FF               	movlw	255
  5581     137C  07BA               	addwf	dtoa@i+1,f
  5582     137D                     l4694:
  5583                           
  5584                           ;C:\Program Files\Microchip\xc8\v3.10\pic\sources\c99\common\doprnt.c: 565:         dbuf
      +                          [i] = (char)((int)'0' + abs(d % 10));
  5585     137D  0839               	movf	dtoa@i,w
  5586     137E  3EBF               	addlw	(low (_dbuf| (0+256)))& (0+255)
  5587     137F  0084               	movwf	4
  5588     1380  300A               	movlw	10
  5589     1381  00F0               	movwf	___awmod@divisor
  5590     1382  3000               	movlw	0
  5591     1383  00F1               	movwf	___awmod@divisor+1
  5592     1384  0832               	movf	dtoa@d+1,w
  5593     1385  00F3               	movwf	___awmod@dividend+1
  5594     1386  0831               	movf	dtoa@d,w
  5595     1387  00F2               	movwf	___awmod@dividend
  5596     1388  160A  158A  2746  160A  118A  	fcall	___awmod
  5597     138D  0871               	movf	?___awmod+1,w
  5598     138E  00F7               	movwf	abs@a+1
  5599     138F  0870               	movf	?___awmod,w
  5600     1390  00F6               	movwf	abs@a
  5601     1391  160A  158A  236A  160A  118A  	fcall	_abs
  5602     1396  0876               	movf	?_abs,w
  5603     1397  3E30               	addlw	48
  5604     1398  1783               	bsf	3,7	;select IRP bank3
  5605     1399  0080               	movwf	0
  5606     139A                     l4696:
  5607                           
  5608                           ;C:\Program Files\Microchip\xc8\v3.10\pic\sources\c99\common\doprnt.c: 569:   p = 0;
  5609     139A  1283               	bcf	3,5	;RP0=0, select bank0
  5610     139B  1303               	bcf	3,6	;RP1=0, select bank0
  5611     139C  01B5               	clrf	dtoa@p
  5612     139D                     l4698:
  5613                           
  5614                           ;C:\Program Files\Microchip\xc8\v3.10\pic\sources\c99\common\doprnt.c: 571:         --w;
  5615     139D  30FF               	movlw	255
  5616     139E  07B6               	addwf	dtoa@w,f
  5617     139F  1803               	skipnc
  5618     13A0  0AB7               	incf	dtoa@w+1,f
  5619     13A1  30FF               	movlw	255
  5620     13A2  07B7               	addwf	dtoa@w+1,f
  5621     13A3                     l4700:
  5622                           
  5623                           ;C:\Program Files\Microchip\xc8\v3.10\pic\sources\c99\common\doprnt.c: 572:         d = 
      +                          d / 10;
  5624     13A3  300A               	movlw	10
  5625     13A4  00F0               	movwf	___awdiv@divisor
  5626     13A5  3000               	movlw	0
  5627     13A6  00F1               	movwf	___awdiv@divisor+1
  5628     13A7  0832               	movf	dtoa@d+1,w
  5629     13A8  00F3               	movwf	___awdiv@dividend+1
  5630     13A9  0831               	movf	dtoa@d,w
  5631     13AA  00F2               	movwf	___awdiv@dividend
  5632     13AB  160A  158A  279D  160A  118A  	fcall	___awdiv
  5633     13B0  0871               	movf	?___awdiv+1,w
  5634     13B1  1283               	bcf	3,5	;RP0=0, select bank0
  5635     13B2  1303               	bcf	3,6	;RP1=0, select bank0
  5636     13B3  00B2               	movwf	dtoa@d+1
  5637     13B4  0870               	movf	?___awdiv,w
  5638     13B5  00B1               	movwf	dtoa@d
  5639     13B6                     l4702:
  5640                           
  5641                           ;C:\Program Files\Microchip\xc8\v3.10\pic\sources\c99\common\doprnt.c: 554:     while (!
      +                          (i < 1) && (d != 0
  5642     13B6  1283               	bcf	3,5	;RP0=0, select bank0
  5643     13B7  1303               	bcf	3,6	;RP1=0, select bank0
  5644     13B8  083A               	movf	dtoa@i+1,w
  5645     13B9  3A80               	xorlw	128
  5646     13BA  00FF               	movwf	btemp1
  5647     13BB  3080               	movlw	128
  5648     13BC  027F               	subwf	btemp1,w
  5649     13BD  1D03               	skipz
  5650     13BE  2BC1               	goto	u6675
  5651     13BF  3001               	movlw	1
  5652     13C0  0239               	subwf	dtoa@i,w
  5653     13C1                     u6675:
  5654     13C1  1C03               	skipc
  5655     13C2  2BC4               	goto	u6671
  5656     13C3  2BC5               	goto	u6670
  5657     13C4                     u6671:
  5658     13C4  2BE5               	goto	l4712
  5659     13C5                     u6670:
  5660     13C5                     l4704:
  5661     13C5  1283               	bcf	3,5	;RP0=0, select bank0
  5662     13C6  1303               	bcf	3,6	;RP1=0, select bank0
  5663     13C7  0831               	movf	dtoa@d,w
  5664     13C8  0432               	iorwf	dtoa@d+1,w
  5665     13C9  1D03               	btfss	3,2
  5666     13CA  2BCC               	goto	u6681
  5667     13CB  2BCD               	goto	u6680
  5668     13CC                     u6681:
  5669     13CC  2B77               	goto	l4692
  5670     13CD                     u6680:
  5671     13CD                     l4706:
  5672     13CD  0835               	movf	dtoa@p,w
  5673     13CE  1D03               	btfss	3,2
  5674     13CF  2BD1               	goto	u6691
  5675     13D0  2BD2               	goto	u6690
  5676     13D1                     u6691:
  5677     13D1  2B77               	goto	l4692
  5678     13D2                     u6690:
  5679     13D2                     l4708:
  5680     13D2  0837               	movf	dtoa@w+1,w
  5681     13D3  3A80               	xorlw	128
  5682     13D4  00FF               	movwf	btemp1
  5683     13D5  3080               	movlw	128
  5684     13D6  027F               	subwf	btemp1,w
  5685     13D7  1D03               	skipz
  5686     13D8  2BDB               	goto	u6705
  5687     13D9  3001               	movlw	1
  5688     13DA  0236               	subwf	dtoa@w,w
  5689     13DB                     u6705:
  5690     13DB  1C03               	skipc
  5691     13DC  2BDE               	goto	u6701
  5692     13DD  2BDF               	goto	u6700
  5693     13DE                     u6701:
  5694     13DE  2BE5               	goto	l4712
  5695     13DF                     u6700:
  5696     13DF                     l4710:
  5697     13DF  1283               	bcf	3,5	;RP0=0, select bank0
  5698     13E0  1303               	bcf	3,6	;RP1=0, select bank0
  5699     13E1  18EF               	btfsc	_flags,1
  5700     13E2  2BE4               	goto	u6711
  5701     13E3  2BE5               	goto	u6710
  5702     13E4                     u6711:
  5703     13E4  2B77               	goto	l4692
  5704     13E5                     u6710:
  5705     13E5                     l4712:
  5706                           
  5707                           ;C:\Program Files\Microchip\xc8\v3.10\pic\sources\c99\common\doprnt.c: 576:     if (s !=
      +                           0) {
  5708     13E5  1283               	bcf	3,5	;RP0=0, select bank0
  5709     13E6  1303               	bcf	3,6	;RP1=0, select bank0
  5710     13E7  0838               	movf	dtoa@s,w
  5711     13E8  1903               	btfsc	3,2
  5712     13E9  2BEB               	goto	u6721
  5713     13EA  2BEC               	goto	u6720
  5714     13EB                     u6721:
  5715     13EB  2BF8               	goto	l4718
  5716     13EC                     u6720:
  5717     13EC                     l4714:
  5718                           
  5719                           ;C:\Program Files\Microchip\xc8\v3.10\pic\sources\c99\common\doprnt.c: 577:         --i;
  5720     13EC  30FF               	movlw	255
  5721     13ED  07B9               	addwf	dtoa@i,f
  5722     13EE  1803               	skipnc
  5723     13EF  0ABA               	incf	dtoa@i+1,f
  5724     13F0  30FF               	movlw	255
  5725     13F1  07BA               	addwf	dtoa@i+1,f
  5726     13F2                     l4716:
  5727                           
  5728                           ;C:\Program Files\Microchip\xc8\v3.10\pic\sources\c99\common\doprnt.c: 578:         dbuf
      +                          [i] = s;
  5729     13F2  0839               	movf	dtoa@i,w
  5730     13F3  3EBF               	addlw	(low (_dbuf| (0+256)))& (0+255)
  5731     13F4  0084               	movwf	4
  5732     13F5  0838               	movf	dtoa@s,w
  5733     13F6  1783               	bsf	3,7	;select IRP bank3
  5734     13F7  0080               	movwf	0
  5735     13F8                     l4718:
  5736                           
  5737                           ;C:\Program Files\Microchip\xc8\v3.10\pic\sources\c99\common\doprnt.c: 582:     return (
      +                          void) pad(fp, &dbuf[i], w);
  5738     13F8  082F               	movf	dtoa@fp,w
  5739     13F9  00A8               	movwf	pad@fp
  5740     13FA  0830               	movf	dtoa@fp+1,w
  5741     13FB  00A9               	movwf	pad@fp+1
  5742     13FC  0839               	movf	dtoa@i,w
  5743     13FD  3EBF               	addlw	(low (_dbuf| (0+256)))& (0+255)
  5744     13FE  00AA               	movwf	pad@buf
  5745     13FF  0837               	movf	dtoa@w+1,w
  5746     1400  00AC               	movwf	pad@p+1
  5747     1401  0836               	movf	dtoa@w,w
  5748     1402  00AB               	movwf	pad@p
  5749     1403  160A  158A  26F3  160A  118A  	fcall	_pad
  5750     1408                     l890:
  5751     1408  0008               	return
  5752     1409                     __end_of_dtoa:
  5753                           
  5754                           	psect	text10
  5755     1EF3                     __ptext10:	
  5756 ;; *************** function _pad *****************
  5757 ;; Defined at:
  5758 ;;		line 193 in file "C:\Program Files\Microchip\xc8\v3.10\pic\sources\c99\common\doprnt.c"
  5759 ;; Parameters:    Size  Location     Type
  5760 ;;  fp              2    8[BANK0 ] PTR struct _IO_FILE
  5761 ;;		 -> sprintf@f(11), 
  5762 ;;  buf             1   10[BANK0 ] PTR unsigned char 
  5763 ;;		 -> dbuf(32), 
  5764 ;;  p               2   11[BANK0 ] int 
  5765 ;; Auto vars:     Size  Location     Type
  5766 ;;  i               2   13[BANK0 ] int 
  5767 ;; Return value:  Size  Location     Type
  5768 ;;                  1    wreg      void 
  5769 ;; Registers used:
  5770 ;;		wreg, fsr0l, fsr0h, status,2, status,0, pclath, cstack
  5771 ;; Tracked objects:
  5772 ;;		On entry : 0/0
  5773 ;;		On exit  : 0/0
  5774 ;;		Unchanged: 0/0
  5775 ;; Data sizes:     COMMON   BANK0   BANK1   BANK3   BANK2
  5776 ;;      Params:         0       5       0       0       0
  5777 ;;      Locals:         0       2       0       0       0
  5778 ;;      Temps:          1       0       0       0       0
  5779 ;;      Totals:         1       7       0       0       0
  5780 ;;Total ram usage:        8 bytes
  5781 ;; Hardware stack levels used: 1
  5782 ;; This function calls:
  5783 ;;		_fputc
  5784 ;;		_fputs
  5785 ;; This function is called by:
  5786 ;;		_dtoa
  5787 ;;		_utoa
  5788 ;; This function uses a non-reentrant model
  5789 ;;
  5790                           
  5791     1EF3                     _pad:	
  5792                           ;psect for function _pad
  5793                           
  5794     1EF3                     l4652:	
  5795                           ;incstack = 0
  5796                           ; Regs used in _pad: [wreg-fsr0h+status,2+status,0+pclath+cstack]
  5797                           
  5798                           
  5799                           ;C:\Program Files\Microchip\xc8\v3.10\pic\sources\c99\common\doprnt.c: 193: static void 
      +                          pad(FILE *fp, char *buf, int p);C:\Program Files\Microchip\xc8\v3.10\pic\sources\c99\com
      +                          mon\doprnt.c: 194: {;C:\Program Files\Microchip\xc8\v3.10\pic\sources\c99\common\doprnt.
      +                          c: 195:     int i;;C:\Program Files\Microchip\xc8\v3.10\pic\sources\c99\common\doprnt.c:
      +                           199:     if (flags & (1 << 0)) {
  5800     1EF3  1283               	bcf	3,5	;RP0=0, select bank0
  5801     1EF4  1303               	bcf	3,6	;RP1=0, select bank0
  5802     1EF5  1C6F               	btfss	_flags,0
  5803     1EF6  2EF8               	goto	u6581
  5804     1EF7  2EF9               	goto	u6580
  5805     1EF8                     u6581:
  5806     1EF8  2F04               	goto	l4656
  5807     1EF9                     u6580:
  5808     1EF9                     l4654:
  5809                           
  5810                           ;C:\Program Files\Microchip\xc8\v3.10\pic\sources\c99\common\doprnt.c: 200:         fput
      +                          s((const char *)buf, fp);
  5811     1EF9  082A               	movf	pad@buf,w
  5812     1EFA  00A0               	movwf	fputs@s
  5813     1EFB  0828               	movf	pad@fp,w
  5814     1EFC  00A1               	movwf	fputs@fp
  5815     1EFD  0829               	movf	pad@fp+1,w
  5816     1EFE  00A2               	movwf	fputs@fp+1
  5817     1EFF  160A  118A  2000  160A  158A  	fcall	_fputs
  5818     1F04                     l4656:
  5819                           
  5820                           ;C:\Program Files\Microchip\xc8\v3.10\pic\sources\c99\common\doprnt.c: 205:  if (p < 0) 
      +                          {
  5821     1F04  1283               	bcf	3,5	;RP0=0, select bank0
  5822     1F05  1303               	bcf	3,6	;RP1=0, select bank0
  5823     1F06  1FAC               	btfss	pad@p+1,7
  5824     1F07  2F09               	goto	u6591
  5825     1F08  2F0A               	goto	u6590
  5826     1F09                     u6591:
  5827     1F09  2F0C               	goto	l869
  5828     1F0A                     u6590:
  5829     1F0A                     l4658:
  5830                           
  5831                           ;C:\Program Files\Microchip\xc8\v3.10\pic\sources\c99\common\doprnt.c: 206:   p = 0;
  5832     1F0A  01AB               	clrf	pad@p
  5833     1F0B  01AC               	clrf	pad@p+1
  5834     1F0C                     l869:	
  5835                           ;C:\Program Files\Microchip\xc8\v3.10\pic\sources\c99\common\doprnt.c: 207:  }
  5836                           
  5837                           
  5838                           ;C:\Program Files\Microchip\xc8\v3.10\pic\sources\c99\common\doprnt.c: 208:     i = 0;
  5839     1F0C  01AD               	clrf	pad@i
  5840     1F0D  01AE               	clrf	pad@i+1
  5841                           
  5842                           ;C:\Program Files\Microchip\xc8\v3.10\pic\sources\c99\common\doprnt.c: 209:     while (i
      +                           < p) {
  5843     1F0E  2F26               	goto	l4664
  5844     1F0F                     l4660:
  5845                           
  5846                           ;C:\Program Files\Microchip\xc8\v3.10\pic\sources\c99\common\doprnt.c: 210:         fput
      +                          c(' ', fp);
  5847     1F0F  3020               	movlw	32
  5848     1F10  00F0               	movwf	fputc@c
  5849     1F11  3000               	movlw	0
  5850     1F12  00F1               	movwf	fputc@c+1
  5851     1F13  1283               	bcf	3,5	;RP0=0, select bank0
  5852     1F14  1303               	bcf	3,6	;RP1=0, select bank0
  5853     1F15  0828               	movf	pad@fp,w
  5854     1F16  00F2               	movwf	fputc@fp
  5855     1F17  0829               	movf	pad@fp+1,w
  5856     1F18  00F3               	movwf	fputc@fp+1
  5857     1F19  160A  118A  21F7  160A  158A  	fcall	_fputc
  5858     1F1E                     l4662:
  5859                           
  5860                           ;C:\Program Files\Microchip\xc8\v3.10\pic\sources\c99\common\doprnt.c: 211:         ++i;
  5861     1F1E  3001               	movlw	1
  5862     1F1F  1283               	bcf	3,5	;RP0=0, select bank0
  5863     1F20  1303               	bcf	3,6	;RP1=0, select bank0
  5864     1F21  07AD               	addwf	pad@i,f
  5865     1F22  1803               	skipnc
  5866     1F23  0AAE               	incf	pad@i+1,f
  5867     1F24  3000               	movlw	0
  5868     1F25  07AE               	addwf	pad@i+1,f
  5869     1F26                     l4664:
  5870                           
  5871                           ;C:\Program Files\Microchip\xc8\v3.10\pic\sources\c99\common\doprnt.c: 209:     while (i
      +                           < p) {
  5872     1F26  082E               	movf	pad@i+1,w
  5873     1F27  3A80               	xorlw	128
  5874     1F28  00FD               	movwf	??_pad
  5875     1F29  082C               	movf	pad@p+1,w
  5876     1F2A  3A80               	xorlw	128
  5877     1F2B  027D               	subwf	??_pad,w
  5878     1F2C  1D03               	skipz
  5879     1F2D  2F30               	goto	u6605
  5880     1F2E  082B               	movf	pad@p,w
  5881     1F2F  022D               	subwf	pad@i,w
  5882     1F30                     u6605:
  5883     1F30  1C03               	skipc
  5884     1F31  2F33               	goto	u6601
  5885     1F32  2F34               	goto	u6600
  5886     1F33                     u6601:
  5887     1F33  2F0F               	goto	l4660
  5888     1F34                     u6600:
  5889     1F34                     l872:
  5890                           
  5891                           ;C:\Program Files\Microchip\xc8\v3.10\pic\sources\c99\common\doprnt.c: 216:     if (!(fl
      +                          ags & (1 << 0))) {
  5892     1F34  1283               	bcf	3,5	;RP0=0, select bank0
  5893     1F35  1303               	bcf	3,6	;RP1=0, select bank0
  5894     1F36  186F               	btfsc	_flags,0
  5895     1F37  2F39               	goto	u6611
  5896     1F38  2F3A               	goto	u6610
  5897     1F39                     u6611:
  5898     1F39  2F45               	goto	l874
  5899     1F3A                     u6610:
  5900     1F3A                     l4666:
  5901                           
  5902                           ;C:\Program Files\Microchip\xc8\v3.10\pic\sources\c99\common\doprnt.c: 218:         fput
      +                          s((const char *)buf, fp);
  5903     1F3A  082A               	movf	pad@buf,w
  5904     1F3B  00A0               	movwf	fputs@s
  5905     1F3C  0828               	movf	pad@fp,w
  5906     1F3D  00A1               	movwf	fputs@fp
  5907     1F3E  0829               	movf	pad@fp+1,w
  5908     1F3F  00A2               	movwf	fputs@fp+1
  5909     1F40  160A  118A  2000  160A  158A  	fcall	_fputs
  5910     1F45                     l874:
  5911     1F45  0008               	return
  5912     1F46                     __end_of_pad:
  5913                           
  5914                           	psect	text11
  5915     1000                     __ptext11:	
  5916 ;; *************** function _fputs *****************
  5917 ;; Defined at:
  5918 ;;		line 8 in file "C:\Program Files\Microchip\xc8\v3.10\pic\sources\c99\common\nf_fputs.c"
  5919 ;; Parameters:    Size  Location     Type
  5920 ;;  s               1    0[BANK0 ] PTR const unsigned char 
  5921 ;;		 -> dbuf(32), 
  5922 ;;  fp              2    1[BANK0 ] PTR struct _IO_FILE
  5923 ;;		 -> sprintf@f(11), 
  5924 ;; Auto vars:     Size  Location     Type
  5925 ;;  i               2    6[BANK0 ] int 
  5926 ;;  c               1    5[BANK0 ] unsigned char 
  5927 ;; Return value:  Size  Location     Type
  5928 ;;                  2    0[BANK0 ] int 
  5929 ;; Registers used:
  5930 ;;		wreg, fsr0l, fsr0h, status,2, status,0, pclath, cstack
  5931 ;; Tracked objects:
  5932 ;;		On entry : 0/0
  5933 ;;		On exit  : 0/0
  5934 ;;		Unchanged: 0/0
  5935 ;; Data sizes:     COMMON   BANK0   BANK1   BANK3   BANK2
  5936 ;;      Params:         0       3       0       0       0
  5937 ;;      Locals:         0       3       0       0       0
  5938 ;;      Temps:          0       2       0       0       0
  5939 ;;      Totals:         0       8       0       0       0
  5940 ;;Total ram usage:        8 bytes
  5941 ;; Hardware stack levels used: 1
  5942 ;; Hardware stack levels required when called: 1
  5943 ;; This function calls:
  5944 ;;		_fputc
  5945 ;; This function is called by:
  5946 ;;		_pad
  5947 ;; This function uses a non-reentrant model
  5948 ;;
  5949                           
  5950     1000                     _fputs:	
  5951                           ;psect for function _fputs
  5952                           
  5953     1000                     l4500:	
  5954                           ;incstack = 0
  5955                           ; Regs used in _fputs: [wreg-fsr0h+status,2+status,0+pclath+cstack]
  5956                           
  5957     1000  1283               	bcf	3,5	;RP0=0, select bank0
  5958     1001  1303               	bcf	3,6	;RP1=0, select bank0
  5959     1002  01A6               	clrf	fputs@i
  5960     1003  01A7               	clrf	fputs@i+1
  5961     1004  281D               	goto	l4506
  5962     1005                     l4502:
  5963     1005  0825               	movf	fputs@c,w
  5964     1006  00A3               	movwf	??_fputs
  5965     1007  01A4               	clrf	??_fputs+1
  5966     1008  0823               	movf	??_fputs,w
  5967     1009  00F0               	movwf	fputc@c
  5968     100A  0824               	movf	??_fputs+1,w
  5969     100B  00F1               	movwf	fputc@c+1
  5970     100C  0821               	movf	fputs@fp,w
  5971     100D  00F2               	movwf	fputc@fp
  5972     100E  0822               	movf	fputs@fp+1,w
  5973     100F  00F3               	movwf	fputc@fp+1
  5974     1010  160A  118A  21F7  160A  118A  	fcall	_fputc
  5975     1015                     l4504:
  5976     1015  3001               	movlw	1
  5977     1016  1283               	bcf	3,5	;RP0=0, select bank0
  5978     1017  1303               	bcf	3,6	;RP1=0, select bank0
  5979     1018  07A6               	addwf	fputs@i,f
  5980     1019  1803               	skipnc
  5981     101A  0AA7               	incf	fputs@i+1,f
  5982     101B  3000               	movlw	0
  5983     101C  07A7               	addwf	fputs@i+1,f
  5984     101D                     l4506:
  5985     101D  0826               	movf	fputs@i,w
  5986     101E  0720               	addwf	fputs@s,w
  5987     101F  00A3               	movwf	??_fputs
  5988     1020  0823               	movf	??_fputs,w
  5989     1021  0084               	movwf	4
  5990     1022  1783               	bsf	3,7	;select IRP bank2
  5991     1023  0800               	movf	0,w
  5992     1024  00A5               	movwf	fputs@c
  5993     1025  0825               	movf	fputs@c,w
  5994     1026  1D03               	btfss	3,2
  5995     1027  2829               	goto	u6211
  5996     1028  282A               	goto	u6210
  5997     1029                     u6211:
  5998     1029  2805               	goto	l4502
  5999     102A                     u6210:
  6000     102A                     l963:
  6001     102A  0008               	return
  6002     102B                     __end_of_fputs:
  6003                           
  6004                           	psect	text12
  6005     11F7                     __ptext12:	
  6006 ;; *************** function _fputc *****************
  6007 ;; Defined at:
  6008 ;;		line 8 in file "C:\Program Files\Microchip\xc8\v3.10\pic\sources\c99\common\nf_fputc.c"
  6009 ;; Parameters:    Size  Location     Type
  6010 ;;  c               2    0[COMMON] int 
  6011 ;;  fp              2    2[COMMON] PTR struct _IO_FILE
  6012 ;;		 -> sprintf@f(11), 
  6013 ;; Auto vars:     Size  Location     Type
  6014 ;;		None
  6015 ;; Return value:  Size  Location     Type
  6016 ;;                  2    0[COMMON] int 
  6017 ;; Registers used:
  6018 ;;		wreg, fsr0l, fsr0h, status,2, status,0, pclath, cstack
  6019 ;; Tracked objects:
  6020 ;;		On entry : 0/0
  6021 ;;		On exit  : 0/0
  6022 ;;		Unchanged: 0/0
  6023 ;; Data sizes:     COMMON   BANK0   BANK1   BANK3   BANK2
  6024 ;;      Params:         4       0       0       0       0
  6025 ;;      Locals:         0       0       0       0       0
  6026 ;;      Temps:          9       0       0       0       0
  6027 ;;      Totals:        13       0       0       0       0
  6028 ;;Total ram usage:       13 bytes
  6029 ;; Hardware stack levels used: 1
  6030 ;; This function calls:
  6031 ;;		_putch
  6032 ;; This function is called by:
  6033 ;;		_pad
  6034 ;;		_vfpfcnvrt
  6035 ;;		_fputs
  6036 ;; This function uses a non-reentrant model
  6037 ;;
  6038                           
  6039     11F7                     _fputc:	
  6040                           ;psect for function _fputc
  6041                           
  6042     11F7                     l4486:	
  6043                           ;incstack = 0
  6044                           ; Regs used in _fputc: [wreg-fsr0h+status,2+status,0+pclath+cstack]
  6045                           
  6046     11F7  0872               	movf	fputc@fp,w
  6047     11F8  0473               	iorwf	fputc@fp+1,w
  6048     11F9  1903               	btfsc	3,2
  6049     11FA  29FC               	goto	u6161
  6050     11FB  29FD               	goto	u6160
  6051     11FC                     u6161:
  6052     11FC  2A03               	goto	l4490
  6053     11FD                     u6160:
  6054     11FD                     l4488:
  6055     11FD  0872               	movf	fputc@fp,w
  6056     11FE  0473               	iorwf	fputc@fp+1,w
  6057     11FF  1D03               	btfss	3,2
  6058     1200  2A02               	goto	u6171
  6059     1201  2A03               	goto	u6170
  6060     1202                     u6171:
  6061     1202  2A0A               	goto	l4492
  6062     1203                     u6170:
  6063     1203                     l4490:
  6064     1203  0870               	movf	fputc@c,w
  6065     1204  120A  118A  2003  160A  118A  	fcall	_putch
  6066     1209  2A90               	goto	l955
  6067     120A                     l4492:
  6068     120A  0872               	movf	fputc@fp,w
  6069     120B  3E09               	addlw	9
  6070     120C  00F4               	movwf	??_fputc
  6071     120D  0873               	movf	fputc@fp+1,w
  6072     120E  1803               	skipnc
  6073     120F  3E01               	addlw	1
  6074     1210  3E00               	addlw	0
  6075     1211  00F5               	movwf	??_fputc+1
  6076     1212  0874               	movf	??_fputc,w
  6077     1213  0084               	movwf	4
  6078     1214  1783               	bsf	3,7
  6079     1215  1C75               	btfss	??_fputc+1,0
  6080     1216  1383               	bcf	3,7
  6081     1217  0800               	movf	0,w
  6082     1218  00F6               	movwf	??_fputc+2
  6083     1219  0A84               	incf	4,f
  6084     121A  0800               	movf	0,w
  6085     121B  00F7               	movwf	??_fputc+3
  6086     121C  0876               	movf	??_fputc+2,w
  6087     121D  0477               	iorwf	??_fputc+3,w
  6088     121E  1903               	btfsc	3,2
  6089     121F  2A21               	goto	u6181
  6090     1220  2A22               	goto	u6180
  6091     1221                     u6181:
  6092     1221  2A54               	goto	l4496
  6093     1222                     u6180:
  6094     1222                     l4494:
  6095     1222  0872               	movf	fputc@fp,w
  6096     1223  3E09               	addlw	9
  6097     1224  00F4               	movwf	??_fputc
  6098     1225  0873               	movf	fputc@fp+1,w
  6099     1226  1803               	skipnc
  6100     1227  3E01               	addlw	1
  6101     1228  3E00               	addlw	0
  6102     1229  00F5               	movwf	??_fputc+1
  6103     122A  0874               	movf	??_fputc,w
  6104     122B  0084               	movwf	4
  6105     122C  1783               	bsf	3,7
  6106     122D  1C75               	btfss	??_fputc+1,0
  6107     122E  1383               	bcf	3,7
  6108     122F  0800               	movf	0,w
  6109     1230  00F6               	movwf	??_fputc+2
  6110     1231  0A84               	incf	4,f
  6111     1232  0800               	movf	0,w
  6112     1233  00F7               	movwf	??_fputc+3
  6113     1234  0872               	movf	fputc@fp,w
  6114     1235  3E02               	addlw	2
  6115     1236  00F8               	movwf	??_fputc+4
  6116     1237  0873               	movf	fputc@fp+1,w
  6117     1238  1803               	skipnc
  6118     1239  3E01               	addlw	1
  6119     123A  3E00               	addlw	0
  6120     123B  00F9               	movwf	??_fputc+5
  6121     123C  0878               	movf	??_fputc+4,w
  6122     123D  0084               	movwf	4
  6123     123E  1783               	bsf	3,7
  6124     123F  1C79               	btfss	??_fputc+5,0
  6125     1240  1383               	bcf	3,7
  6126     1241  0800               	movf	0,w
  6127     1242  00FA               	movwf	??_fputc+6
  6128     1243  0A84               	incf	4,f
  6129     1244  0800               	movf	0,w
  6130     1245  00FB               	movwf	??_fputc+7
  6131     1246  087B               	movf	??_fputc+7,w
  6132     1247  3A80               	xorlw	128
  6133     1248  00FC               	movwf	??_fputc+8
  6134     1249  0877               	movf	??_fputc+3,w
  6135     124A  3A80               	xorlw	128
  6136     124B  027C               	subwf	??_fputc+8,w
  6137     124C  1D03               	skipz
  6138     124D  2A50               	goto	u6195
  6139     124E  0876               	movf	??_fputc+2,w
  6140     124F  027A               	subwf	??_fputc+6,w
  6141     1250                     u6195:
  6142     1250  1803               	skipnc
  6143     1251  2A53               	goto	u6191
  6144     1252  2A54               	goto	u6190
  6145     1253                     u6191:
  6146     1253  2A90               	goto	l955
  6147     1254                     u6190:
  6148     1254                     l4496:
  6149     1254  0872               	movf	fputc@fp,w
  6150     1255  0084               	movwf	4
  6151     1256  1783               	bsf	3,7
  6152     1257  1C73               	btfss	fputc@fp+1,0
  6153     1258  1383               	bcf	3,7
  6154     1259  0800               	movf	0,w
  6155     125A  00F4               	movwf	??_fputc
  6156     125B  0A84               	incf	4,f
  6157     125C  0800               	movf	0,w
  6158     125D  00F5               	movwf	??_fputc+1
  6159     125E  0872               	movf	fputc@fp,w
  6160     125F  3E02               	addlw	2
  6161     1260  00F6               	movwf	??_fputc+2
  6162     1261  0873               	movf	fputc@fp+1,w
  6163     1262  1803               	skipnc
  6164     1263  3E01               	addlw	1
  6165     1264  3E00               	addlw	0
  6166     1265  00F7               	movwf	??_fputc+3
  6167     1266  0876               	movf	??_fputc+2,w
  6168     1267  0084               	movwf	4
  6169     1268  1783               	bsf	3,7
  6170     1269  1C77               	btfss	??_fputc+3,0
  6171     126A  1383               	bcf	3,7
  6172     126B  0800               	movf	0,w
  6173     126C  0774               	addwf	??_fputc,w
  6174     126D  00F9               	movwf	??_fputc+5
  6175     126E  0875               	movf	??_fputc+1,w
  6176     126F  00F8               	movwf	??_fputc+4
  6177     1270  1803               	skipnc
  6178     1271  0AF8               	incf	??_fputc+4,f
  6179     1272  1F80               	btfss	0,7
  6180     1273  2A75               	goto	u6200
  6181     1274  03F8               	decf	??_fputc+4,f
  6182     1275                     u6200:
  6183     1275  0878               	movf	??_fputc+4,w
  6184     1276  00FA               	movwf	??_fputc+6
  6185     1277  0879               	movf	??_fputc+5,w
  6186     1278  0084               	movwf	4
  6187     1279  1783               	bsf	3,7
  6188     127A  1C7A               	btfss	??_fputc+6,0
  6189     127B  1383               	bcf	3,7
  6190     127C  0870               	movf	fputc@c,w
  6191     127D  0080               	movwf	0
  6192     127E  0872               	movf	fputc@fp,w
  6193     127F  3E02               	addlw	2
  6194     1280  00F4               	movwf	??_fputc
  6195     1281  0873               	movf	fputc@fp+1,w
  6196     1282  1803               	skipnc
  6197     1283  3E01               	addlw	1
  6198     1284  3E00               	addlw	0
  6199     1285  00F5               	movwf	??_fputc+1
  6200     1286  0874               	movf	??_fputc,w
  6201     1287  0084               	movwf	4
  6202     1288  1783               	bsf	3,7
  6203     1289  1C75               	btfss	??_fputc+1,0
  6204     128A  1383               	bcf	3,7
  6205     128B  3001               	movlw	1
  6206     128C  0780               	addwf	0,f
  6207     128D  0A84               	incf	4,f
  6208     128E  1803               	skipnc
  6209     128F  0A80               	incf	0,f
  6210     1290                     l955:
  6211     1290  0008               	return
  6212     1291                     __end_of_fputc:
  6213                           
  6214                           	psect	text13
  6215     0003                     __ptext13:	
  6216 ;; *************** function _putch *****************
  6217 ;; Defined at:
  6218 ;;		line 7 in file "C:\Program Files\Microchip\xc8\v3.10\pic\sources\c99\common\putch.c"
  6219 ;; Parameters:    Size  Location     Type
  6220 ;;  c               1    wreg     unsigned char 
  6221 ;; Auto vars:     Size  Location     Type
  6222 ;;  c               1    0[COMMON] unsigned char 
  6223 ;; Return value:  Size  Location     Type
  6224 ;;                  1    wreg      void 
  6225 ;; Registers used:
  6226 ;;		wreg
  6227 ;; Tracked objects:
  6228 ;;		On entry : 0/0
  6229 ;;		On exit  : 0/0
  6230 ;;		Unchanged: 0/0
  6231 ;; Data sizes:     COMMON   BANK0   BANK1   BANK3   BANK2
  6232 ;;      Params:         0       0       0       0       0
  6233 ;;      Locals:         0       0       0       0       0
  6234 ;;      Temps:          0       0       0       0       0
  6235 ;;      Totals:         0       0       0       0       0
  6236 ;;Total ram usage:        0 bytes
  6237 ;; Hardware stack levels used: 1
  6238 ;; This function calls:
  6239 ;;		Nothing
  6240 ;; This function is called by:
  6241 ;;		_fputc
  6242 ;; This function uses a non-reentrant model
  6243 ;;
  6244                           
  6245     0003                     _putch:	
  6246                           ;psect for function _putch
  6247                           
  6248     0003                     l966:	
  6249                           ;incstack = 0
  6250                           ; Regs used in _putch: [wreg]
  6251                           
  6252     0003  0008               	return
  6253     0004                     __end_of_putch:
  6254                           
  6255                           	psect	text14
  6256     1B6A                     __ptext14:	
  6257 ;; *************** function _abs *****************
  6258 ;; Defined at:
  6259 ;;		line 1 in file "C:\Program Files\Microchip\xc8\v3.10\pic\sources\c99\common\abs.c"
  6260 ;; Parameters:    Size  Location     Type
  6261 ;;  a               2    6[COMMON] int 
  6262 ;; Auto vars:     Size  Location     Type
  6263 ;;		None
  6264 ;; Return value:  Size  Location     Type
  6265 ;;                  2    6[COMMON] int 
  6266 ;; Registers used:
  6267 ;;		wreg, status,2, status,0
  6268 ;; Tracked objects:
  6269 ;;		On entry : 0/0
  6270 ;;		On exit  : 0/0
  6271 ;;		Unchanged: 0/0
  6272 ;; Data sizes:     COMMON   BANK0   BANK1   BANK3   BANK2
  6273 ;;      Params:         2       0       0       0       0
  6274 ;;      Locals:         0       0       0       0       0
  6275 ;;      Temps:          2       0       0       0       0
  6276 ;;      Totals:         4       0       0       0       0
  6277 ;;Total ram usage:        4 bytes
  6278 ;; Hardware stack levels used: 1
  6279 ;; This function calls:
  6280 ;;		Nothing
  6281 ;; This function is called by:
  6282 ;;		_dtoa
  6283 ;; This function uses a non-reentrant model
  6284 ;;
  6285                           
  6286     1B6A                     _abs:	
  6287                           ;psect for function _abs
  6288                           
  6289     1B6A                     l4668:	
  6290                           ;incstack = 0
  6291                           ; Regs used in _abs: [wreg+status,2+status,0]
  6292                           
  6293     1B6A  1BF7               	btfsc	abs@a+1,7
  6294     1B6B  2B6D               	goto	u6621
  6295     1B6C  2B6E               	goto	u6620
  6296     1B6D                     u6621:
  6297     1B6D  2B6F               	goto	l4672
  6298     1B6E                     u6620:
  6299     1B6E                     l4670:
  6300     1B6E  2B7A               	goto	l943
  6301     1B6F                     l4672:
  6302     1B6F  0976               	comf	abs@a,w
  6303     1B70  00F8               	movwf	??_abs
  6304     1B71  0977               	comf	abs@a+1,w
  6305     1B72  00F9               	movwf	??_abs+1
  6306     1B73  0AF8               	incf	??_abs,f
  6307     1B74  1903               	skipnz
  6308     1B75  0AF9               	incf	??_abs+1,f
  6309     1B76  0878               	movf	??_abs,w
  6310     1B77  00F6               	movwf	?_abs
  6311     1B78  0879               	movf	??_abs+1,w
  6312     1B79  00F7               	movwf	?_abs+1
  6313     1B7A                     l943:
  6314     1B7A  0008               	return
  6315     1B7B                     __end_of_abs:
  6316                           
  6317                           	psect	text15
  6318     1F46                     __ptext15:	
  6319 ;; *************** function ___awmod *****************
  6320 ;; Defined at:
  6321 ;;		line 5 in file "C:\Program Files\Microchip\xc8\v3.10\pic\sources\c99\common\awmod.c"
  6322 ;; Parameters:    Size  Location     Type
  6323 ;;  divisor         2    0[COMMON] int 
  6324 ;;  dividend        2    2[COMMON] int 
  6325 ;; Auto vars:     Size  Location     Type
  6326 ;;  sign            1    5[COMMON] unsigned char 
  6327 ;;  counter         1    4[COMMON] unsigned char 
  6328 ;; Return value:  Size  Location     Type
  6329 ;;                  2    0[COMMON] int 
  6330 ;; Registers used:
  6331 ;;		wreg, status,2, status,0
  6332 ;; Tracked objects:
  6333 ;;		On entry : 0/0
  6334 ;;		On exit  : 0/0
  6335 ;;		Unchanged: 0/0
  6336 ;; Data sizes:     COMMON   BANK0   BANK1   BANK3   BANK2
  6337 ;;      Params:         4       0       0       0       0
  6338 ;;      Locals:         2       0       0       0       0
  6339 ;;      Temps:          0       0       0       0       0
  6340 ;;      Totals:         6       0       0       0       0
  6341 ;;Total ram usage:        6 bytes
  6342 ;; Hardware stack levels used: 1
  6343 ;; This function calls:
  6344 ;;		Nothing
  6345 ;; This function is called by:
  6346 ;;		_dtoa
  6347 ;; This function uses a non-reentrant model
  6348 ;;
  6349                           
  6350     1F46                     ___awmod:	
  6351                           ;psect for function ___awmod
  6352                           
  6353     1F46                     l4566:	
  6354                           ;incstack = 0
  6355                           ; Regs used in ___awmod: [wreg+status,2+status,0]
  6356                           
  6357     1F46  01F5               	clrf	___awmod@sign
  6358     1F47                     l4568:
  6359     1F47  1FF3               	btfss	___awmod@dividend+1,7
  6360     1F48  2F4A               	goto	u6361
  6361     1F49  2F4B               	goto	u6360
  6362     1F4A                     u6361:
  6363     1F4A  2F52               	goto	l4574
  6364     1F4B                     u6360:
  6365     1F4B                     l4570:
  6366     1F4B  09F2               	comf	___awmod@dividend,f
  6367     1F4C  09F3               	comf	___awmod@dividend+1,f
  6368     1F4D  0AF2               	incf	___awmod@dividend,f
  6369     1F4E  1903               	skipnz
  6370     1F4F  0AF3               	incf	___awmod@dividend+1,f
  6371     1F50                     l4572:
  6372     1F50  3001               	movlw	1
  6373     1F51  00F5               	movwf	___awmod@sign
  6374     1F52                     l4574:
  6375     1F52  1FF1               	btfss	___awmod@divisor+1,7
  6376     1F53  2F55               	goto	u6371
  6377     1F54  2F56               	goto	u6370
  6378     1F55                     u6371:
  6379     1F55  2F5B               	goto	l4578
  6380     1F56                     u6370:
  6381     1F56                     l4576:
  6382     1F56  09F0               	comf	___awmod@divisor,f
  6383     1F57  09F1               	comf	___awmod@divisor+1,f
  6384     1F58  0AF0               	incf	___awmod@divisor,f
  6385     1F59  1903               	skipnz
  6386     1F5A  0AF1               	incf	___awmod@divisor+1,f
  6387     1F5B                     l4578:
  6388     1F5B  0870               	movf	___awmod@divisor,w
  6389     1F5C  0471               	iorwf	___awmod@divisor+1,w
  6390     1F5D  1903               	btfsc	3,2
  6391     1F5E  2F60               	goto	u6381
  6392     1F5F  2F61               	goto	u6380
  6393     1F60                     u6381:
  6394     1F60  2F8E               	goto	l4596
  6395     1F61                     u6380:
  6396     1F61                     l4580:
  6397     1F61  3001               	movlw	1
  6398     1F62  00F4               	movwf	___awmod@counter
  6399     1F63  2F6D               	goto	l4586
  6400     1F64                     l4582:
  6401     1F64  3001               	movlw	1
  6402     1F65                     u6395:
  6403     1F65  1003               	clrc
  6404     1F66  0DF0               	rlf	___awmod@divisor,f
  6405     1F67  0DF1               	rlf	___awmod@divisor+1,f
  6406     1F68  3EFF               	addlw	-1
  6407     1F69  1D03               	skipz
  6408     1F6A  2F65               	goto	u6395
  6409     1F6B                     l4584:
  6410     1F6B  3001               	movlw	1
  6411     1F6C  07F4               	addwf	___awmod@counter,f
  6412     1F6D                     l4586:
  6413     1F6D  1FF1               	btfss	___awmod@divisor+1,7
  6414     1F6E  2F70               	goto	u6401
  6415     1F6F  2F71               	goto	u6400
  6416     1F70                     u6401:
  6417     1F70  2F64               	goto	l4582
  6418     1F71                     u6400:
  6419     1F71                     l4588:
  6420     1F71  0871               	movf	___awmod@divisor+1,w
  6421     1F72  0273               	subwf	___awmod@dividend+1,w
  6422     1F73  1D03               	skipz
  6423     1F74  2F77               	goto	u6415
  6424     1F75  0870               	movf	___awmod@divisor,w
  6425     1F76  0272               	subwf	___awmod@dividend,w
  6426     1F77                     u6415:
  6427     1F77  1C03               	skipc
  6428     1F78  2F7A               	goto	u6411
  6429     1F79  2F7B               	goto	u6410
  6430     1F7A                     u6411:
  6431     1F7A  2F81               	goto	l4592
  6432     1F7B                     u6410:
  6433     1F7B                     l4590:
  6434     1F7B  0870               	movf	___awmod@divisor,w
  6435     1F7C  02F2               	subwf	___awmod@dividend,f
  6436     1F7D  0871               	movf	___awmod@divisor+1,w
  6437     1F7E  1C03               	skipc
  6438     1F7F  03F3               	decf	___awmod@dividend+1,f
  6439     1F80  02F3               	subwf	___awmod@dividend+1,f
  6440     1F81                     l4592:
  6441     1F81  3001               	movlw	1
  6442     1F82                     u6425:
  6443     1F82  1003               	clrc
  6444     1F83  0CF1               	rrf	___awmod@divisor+1,f
  6445     1F84  0CF0               	rrf	___awmod@divisor,f
  6446     1F85  3EFF               	addlw	-1
  6447     1F86  1D03               	skipz
  6448     1F87  2F82               	goto	u6425
  6449     1F88                     l4594:
  6450     1F88  3001               	movlw	1
  6451     1F89  02F4               	subwf	___awmod@counter,f
  6452     1F8A  1D03               	btfss	3,2
  6453     1F8B  2F8D               	goto	u6431
  6454     1F8C  2F8E               	goto	u6430
  6455     1F8D                     u6431:
  6456     1F8D  2F71               	goto	l4588
  6457     1F8E                     u6430:
  6458     1F8E                     l4596:
  6459     1F8E  0875               	movf	___awmod@sign,w
  6460     1F8F  1903               	btfsc	3,2
  6461     1F90  2F92               	goto	u6441
  6462     1F91  2F93               	goto	u6440
  6463     1F92                     u6441:
  6464     1F92  2F98               	goto	l4600
  6465     1F93                     u6440:
  6466     1F93                     l4598:
  6467     1F93  09F2               	comf	___awmod@dividend,f
  6468     1F94  09F3               	comf	___awmod@dividend+1,f
  6469     1F95  0AF2               	incf	___awmod@dividend,f
  6470     1F96  1903               	skipnz
  6471     1F97  0AF3               	incf	___awmod@dividend+1,f
  6472     1F98                     l4600:
  6473     1F98  0873               	movf	___awmod@dividend+1,w
  6474     1F99  00F1               	movwf	?___awmod+1
  6475     1F9A  0872               	movf	___awmod@dividend,w
  6476     1F9B  00F0               	movwf	?___awmod
  6477     1F9C                     l552:
  6478     1F9C  0008               	return
  6479     1F9D                     __end_of___awmod:
  6480                           
  6481                           	psect	text16
  6482     1F9D                     __ptext16:	
  6483 ;; *************** function ___awdiv *****************
  6484 ;; Defined at:
  6485 ;;		line 5 in file "C:\Program Files\Microchip\xc8\v3.10\pic\sources\c99\common\awdiv.c"
  6486 ;; Parameters:    Size  Location     Type
  6487 ;;  divisor         2    0[COMMON] int 
  6488 ;;  dividend        2    2[COMMON] int 
  6489 ;; Auto vars:     Size  Location     Type
  6490 ;;  quotient        2    6[COMMON] int 
  6491 ;;  sign            1    5[COMMON] unsigned char 
  6492 ;;  counter         1    4[COMMON] unsigned char 
  6493 ;; Return value:  Size  Location     Type
  6494 ;;                  2    0[COMMON] int 
  6495 ;; Registers used:
  6496 ;;		wreg, status,2, status,0
  6497 ;; Tracked objects:
  6498 ;;		On entry : 0/0
  6499 ;;		On exit  : 0/0
  6500 ;;		Unchanged: 0/0
  6501 ;; Data sizes:     COMMON   BANK0   BANK1   BANK3   BANK2
  6502 ;;      Params:         4       0       0       0       0
  6503 ;;      Locals:         4       0       0       0       0
  6504 ;;      Temps:          0       0       0       0       0
  6505 ;;      Totals:         8       0       0       0       0
  6506 ;;Total ram usage:        8 bytes
  6507 ;; Hardware stack levels used: 1
  6508 ;; This function calls:
  6509 ;;		Nothing
  6510 ;; This function is called by:
  6511 ;;		_dtoa
  6512 ;; This function uses a non-reentrant model
  6513 ;;
  6514                           
  6515     1F9D                     ___awdiv:	
  6516                           ;psect for function ___awdiv
  6517                           
  6518     1F9D                     l4522:	
  6519                           ;incstack = 0
  6520                           ; Regs used in ___awdiv: [wreg+status,2+status,0]
  6521                           
  6522     1F9D  01F5               	clrf	___awdiv@sign
  6523     1F9E                     l4524:
  6524     1F9E  1FF1               	btfss	___awdiv@divisor+1,7
  6525     1F9F  2FA1               	goto	u6261
  6526     1FA0  2FA2               	goto	u6260
  6527     1FA1                     u6261:
  6528     1FA1  2FA9               	goto	l4530
  6529     1FA2                     u6260:
  6530     1FA2                     l4526:
  6531     1FA2  09F0               	comf	___awdiv@divisor,f
  6532     1FA3  09F1               	comf	___awdiv@divisor+1,f
  6533     1FA4  0AF0               	incf	___awdiv@divisor,f
  6534     1FA5  1903               	skipnz
  6535     1FA6  0AF1               	incf	___awdiv@divisor+1,f
  6536     1FA7                     l4528:
  6537     1FA7  3001               	movlw	1
  6538     1FA8  00F5               	movwf	___awdiv@sign
  6539     1FA9                     l4530:
  6540     1FA9  1FF3               	btfss	___awdiv@dividend+1,7
  6541     1FAA  2FAC               	goto	u6271
  6542     1FAB  2FAD               	goto	u6270
  6543     1FAC                     u6271:
  6544     1FAC  2FB4               	goto	l4536
  6545     1FAD                     u6270:
  6546     1FAD                     l4532:
  6547     1FAD  09F2               	comf	___awdiv@dividend,f
  6548     1FAE  09F3               	comf	___awdiv@dividend+1,f
  6549     1FAF  0AF2               	incf	___awdiv@dividend,f
  6550     1FB0  1903               	skipnz
  6551     1FB1  0AF3               	incf	___awdiv@dividend+1,f
  6552     1FB2                     l4534:
  6553     1FB2  3001               	movlw	1
  6554     1FB3  06F5               	xorwf	___awdiv@sign,f
  6555     1FB4                     l4536:
  6556     1FB4  01F6               	clrf	___awdiv@quotient
  6557     1FB5  01F7               	clrf	___awdiv@quotient+1
  6558     1FB6                     l4538:
  6559     1FB6  0870               	movf	___awdiv@divisor,w
  6560     1FB7  0471               	iorwf	___awdiv@divisor+1,w
  6561     1FB8  1903               	btfsc	3,2
  6562     1FB9  2FBB               	goto	u6281
  6563     1FBA  2FBC               	goto	u6280
  6564     1FBB                     u6281:
  6565     1FBB  2FF1               	goto	l4558
  6566     1FBC                     u6280:
  6567     1FBC                     l4540:
  6568     1FBC  3001               	movlw	1
  6569     1FBD  00F4               	movwf	___awdiv@counter
  6570     1FBE  2FC8               	goto	l4546
  6571     1FBF                     l4542:
  6572     1FBF  3001               	movlw	1
  6573     1FC0                     u6295:
  6574     1FC0  1003               	clrc
  6575     1FC1  0DF0               	rlf	___awdiv@divisor,f
  6576     1FC2  0DF1               	rlf	___awdiv@divisor+1,f
  6577     1FC3  3EFF               	addlw	-1
  6578     1FC4  1D03               	skipz
  6579     1FC5  2FC0               	goto	u6295
  6580     1FC6                     l4544:
  6581     1FC6  3001               	movlw	1
  6582     1FC7  07F4               	addwf	___awdiv@counter,f
  6583     1FC8                     l4546:
  6584     1FC8  1FF1               	btfss	___awdiv@divisor+1,7
  6585     1FC9  2FCB               	goto	u6301
  6586     1FCA  2FCC               	goto	u6300
  6587     1FCB                     u6301:
  6588     1FCB  2FBF               	goto	l4542
  6589     1FCC                     u6300:
  6590     1FCC                     l4548:
  6591     1FCC  3001               	movlw	1
  6592     1FCD                     u6315:
  6593     1FCD  1003               	clrc
  6594     1FCE  0DF6               	rlf	___awdiv@quotient,f
  6595     1FCF  0DF7               	rlf	___awdiv@quotient+1,f
  6596     1FD0  3EFF               	addlw	-1
  6597     1FD1  1D03               	skipz
  6598     1FD2  2FCD               	goto	u6315
  6599     1FD3  0871               	movf	___awdiv@divisor+1,w
  6600     1FD4  0273               	subwf	___awdiv@dividend+1,w
  6601     1FD5  1D03               	skipz
  6602     1FD6  2FD9               	goto	u6325
  6603     1FD7  0870               	movf	___awdiv@divisor,w
  6604     1FD8  0272               	subwf	___awdiv@dividend,w
  6605     1FD9                     u6325:
  6606     1FD9  1C03               	skipc
  6607     1FDA  2FDC               	goto	u6321
  6608     1FDB  2FDD               	goto	u6320
  6609     1FDC                     u6321:
  6610     1FDC  2FE4               	goto	l4554
  6611     1FDD                     u6320:
  6612     1FDD                     l4550:
  6613     1FDD  0870               	movf	___awdiv@divisor,w
  6614     1FDE  02F2               	subwf	___awdiv@dividend,f
  6615     1FDF  0871               	movf	___awdiv@divisor+1,w
  6616     1FE0  1C03               	skipc
  6617     1FE1  03F3               	decf	___awdiv@dividend+1,f
  6618     1FE2  02F3               	subwf	___awdiv@dividend+1,f
  6619     1FE3                     l4552:
  6620     1FE3  1476               	bsf	___awdiv@quotient,0
  6621     1FE4                     l4554:
  6622     1FE4  3001               	movlw	1
  6623     1FE5                     u6335:
  6624     1FE5  1003               	clrc
  6625     1FE6  0CF1               	rrf	___awdiv@divisor+1,f
  6626     1FE7  0CF0               	rrf	___awdiv@divisor,f
  6627     1FE8  3EFF               	addlw	-1
  6628     1FE9  1D03               	skipz
  6629     1FEA  2FE5               	goto	u6335
  6630     1FEB                     l4556:
  6631     1FEB  3001               	movlw	1
  6632     1FEC  02F4               	subwf	___awdiv@counter,f
  6633     1FED  1D03               	btfss	3,2
  6634     1FEE  2FF0               	goto	u6341
  6635     1FEF  2FF1               	goto	u6340
  6636     1FF0                     u6341:
  6637     1FF0  2FCC               	goto	l4548
  6638     1FF1                     u6340:
  6639     1FF1                     l4558:
  6640     1FF1  0875               	movf	___awdiv@sign,w
  6641     1FF2  1903               	btfsc	3,2
  6642     1FF3  2FF5               	goto	u6351
  6643     1FF4  2FF6               	goto	u6350
  6644     1FF5                     u6351:
  6645     1FF5  2FFB               	goto	l4562
  6646     1FF6                     u6350:
  6647     1FF6                     l4560:
  6648     1FF6  09F6               	comf	___awdiv@quotient,f
  6649     1FF7  09F7               	comf	___awdiv@quotient+1,f
  6650     1FF8  0AF6               	incf	___awdiv@quotient,f
  6651     1FF9  1903               	skipnz
  6652     1FFA  0AF7               	incf	___awdiv@quotient+1,f
  6653     1FFB                     l4562:
  6654     1FFB  0877               	movf	___awdiv@quotient+1,w
  6655     1FFC  00F1               	movwf	?___awdiv+1
  6656     1FFD  0876               	movf	___awdiv@quotient,w
  6657     1FFE  00F0               	movwf	?___awdiv
  6658     1FFF                     l539:
  6659     1FFF  0008               	return
  6660     2000                     __end_of___awdiv:
  6661                           
  6662                           	psect	text17
  6663     1102                     __ptext17:	
  6664 ;; *************** function ___fltol *****************
  6665 ;; Defined at:
  6666 ;;		line 43 in file "C:\Program Files\Microchip\xc8\v3.10\pic\sources\c99\common\fltol.c"
  6667 ;; Parameters:    Size  Location     Type
  6668 ;;  f1              4    8[BANK0 ] int 
  6669 ;; Auto vars:     Size  Location     Type
  6670 ;;  exp1            1   13[COMMON] unsigned char 
  6671 ;;  sign1           1   12[COMMON] unsigned char 
  6672 ;; Return value:  Size  Location     Type
  6673 ;;                  4    8[BANK0 ] long 
  6674 ;; Registers used:
  6675 ;;		wreg, status,2, status,0
  6676 ;; Tracked objects:
  6677 ;;		On entry : 0/0
  6678 ;;		On exit  : 0/0
  6679 ;;		Unchanged: 0/0
  6680 ;; Data sizes:     COMMON   BANK0   BANK1   BANK3   BANK2
  6681 ;;      Params:         0       4       0       0       0
  6682 ;;      Locals:         2       0       0       0       0
  6683 ;;      Temps:          0       4       0       0       0
  6684 ;;      Totals:         2       8       0       0       0
  6685 ;;Total ram usage:       10 bytes
  6686 ;; Hardware stack levels used: 1
  6687 ;; This function calls:
  6688 ;;		Nothing
  6689 ;; This function is called by:
  6690 ;;		_main
  6691 ;; This function uses a non-reentrant model
  6692 ;;
  6693                           
  6694     1102                     ___fltol:	
  6695                           ;psect for function ___fltol
  6696                           
  6697     1102                     l5716:	
  6698                           ;incstack = 0
  6699                           ; Regs used in ___fltol: [wreg+status,2+status,0]
  6700                           
  6701     1102  1003               	clrc
  6702     1103  1283               	bcf	3,5	;RP0=0, select bank0
  6703     1104  1303               	bcf	3,6	;RP1=0, select bank0
  6704     1105  0D2A               	rlf	___fltol@f1+2,w
  6705     1106  0D2B               	rlf	___fltol@f1+3,w
  6706     1107  00FD               	movwf	___fltol@exp1
  6707     1108  087D               	movf	___fltol@exp1,w
  6708     1109  1D03               	btfss	3,2
  6709     110A  290C               	goto	u8401
  6710     110B  290D               	goto	u8400
  6711     110C                     u8401:
  6712     110C  2916               	goto	l5722
  6713     110D                     u8400:
  6714     110D                     l5718:
  6715     110D  3000               	movlw	0
  6716     110E  00AB               	movwf	?___fltol+3
  6717     110F  3000               	movlw	0
  6718     1110  00AA               	movwf	?___fltol+2
  6719     1111  3000               	movlw	0
  6720     1112  00A9               	movwf	?___fltol+1
  6721     1113  3000               	movlw	0
  6722     1114  00A8               	movwf	?___fltol
  6723     1115  2977               	goto	l580
  6724     1116                     l5722:
  6725     1116  0828               	movf	___fltol@f1,w
  6726     1117  00AC               	movwf	??___fltol
  6727     1118  0829               	movf	___fltol@f1+1,w
  6728     1119  00AD               	movwf	??___fltol+1
  6729     111A  082A               	movf	___fltol@f1+2,w
  6730     111B  00AE               	movwf	??___fltol+2
  6731     111C  082B               	movf	___fltol@f1+3,w
  6732     111D  00AF               	movwf	??___fltol+3
  6733     111E  301F               	movlw	31
  6734     111F                     u8415:
  6735     111F  1003               	clrc
  6736     1120  0CAF               	rrf	??___fltol+3,f
  6737     1121  0CAE               	rrf	??___fltol+2,f
  6738     1122  0CAD               	rrf	??___fltol+1,f
  6739     1123  0CAC               	rrf	??___fltol,f
  6740     1124                     u8410:
  6741     1124  3EFF               	addlw	-1
  6742     1125  1D03               	skipz
  6743     1126  291F               	goto	u8415
  6744     1127  082C               	movf	??___fltol,w
  6745     1128  00FC               	movwf	___fltol@sign1
  6746     1129                     l5724:
  6747     1129  17AA               	bsf	___fltol@f1+2,7
  6748     112A                     l5726:
  6749     112A  30FF               	movlw	255
  6750     112B  05A8               	andwf	___fltol@f1,f
  6751     112C  30FF               	movlw	255
  6752     112D  05A9               	andwf	___fltol@f1+1,f
  6753     112E  30FF               	movlw	255
  6754     112F  05AA               	andwf	___fltol@f1+2,f
  6755     1130  3000               	movlw	0
  6756     1131  05AB               	andwf	___fltol@f1+3,f
  6757     1132                     l5728:
  6758     1132  3096               	movlw	150
  6759     1133  02FD               	subwf	___fltol@exp1,f
  6760     1134                     l5730:
  6761     1134  1FFD               	btfss	___fltol@exp1,7
  6762     1135  2937               	goto	u8421
  6763     1136  2938               	goto	u8420
  6764     1137                     u8421:
  6765     1137  2950               	goto	l5740
  6766     1138                     u8420:
  6767     1138                     l5732:
  6768     1138  087D               	movf	___fltol@exp1,w
  6769     1139  3A80               	xorlw	128
  6770     113A  3E97               	addlw	151
  6771     113B  1803               	skipnc
  6772     113C  293E               	goto	u8431
  6773     113D  293F               	goto	u8430
  6774     113E                     u8431:
  6775     113E  2940               	goto	l5738
  6776     113F                     u8430:
  6777     113F  290D               	goto	l5718
  6778     1140                     l5738:
  6779     1140  3001               	movlw	1
  6780     1141                     u8445:
  6781     1141  1003               	clrc
  6782     1142  0CAB               	rrf	___fltol@f1+3,f
  6783     1143  0CAA               	rrf	___fltol@f1+2,f
  6784     1144  0CA9               	rrf	___fltol@f1+1,f
  6785     1145  0CA8               	rrf	___fltol@f1,f
  6786     1146  3EFF               	addlw	-1
  6787     1147  1D03               	skipz
  6788     1148  2941               	goto	u8445
  6789     1149  3001               	movlw	1
  6790     114A  07FD               	addwf	___fltol@exp1,f
  6791     114B  1D03               	btfss	3,2
  6792     114C  294E               	goto	u8451
  6793     114D  294F               	goto	u8450
  6794     114E                     u8451:
  6795     114E  2940               	goto	l5738
  6796     114F                     u8450:
  6797     114F  2967               	goto	l5748
  6798     1150                     l5740:
  6799     1150  3020               	movlw	32
  6800     1151  027D               	subwf	___fltol@exp1,w
  6801     1152  1C03               	skipc
  6802     1153  2955               	goto	u8461
  6803     1154  2956               	goto	u8460
  6804     1155                     u8461:
  6805     1155  2962               	goto	l587
  6806     1156                     u8460:
  6807     1156  290D               	goto	l5718
  6808     1157                     l5746:
  6809     1157  3001               	movlw	1
  6810     1158  00AC               	movwf	??___fltol
  6811     1159                     u8475:
  6812     1159  1003               	clrc
  6813     115A  0DA8               	rlf	___fltol@f1,f
  6814     115B  0DA9               	rlf	___fltol@f1+1,f
  6815     115C  0DAA               	rlf	___fltol@f1+2,f
  6816     115D  0DAB               	rlf	___fltol@f1+3,f
  6817     115E  0BAC               	decfsz	??___fltol,f
  6818     115F  2959               	goto	u8475
  6819     1160  3001               	movlw	1
  6820     1161  02FD               	subwf	___fltol@exp1,f
  6821     1162                     l587:
  6822     1162  087D               	movf	___fltol@exp1,w
  6823     1163  1D03               	btfss	3,2
  6824     1164  2966               	goto	u8481
  6825     1165  2967               	goto	u8480
  6826     1166                     u8481:
  6827     1166  2957               	goto	l5746
  6828     1167                     u8480:
  6829     1167                     l5748:
  6830     1167  087C               	movf	___fltol@sign1,w
  6831     1168  1903               	btfsc	3,2
  6832     1169  296B               	goto	u8491
  6833     116A  296C               	goto	u8490
  6834     116B                     u8491:
  6835     116B  2977               	goto	l590
  6836     116C                     u8490:
  6837     116C                     l5750:
  6838     116C  09A8               	comf	___fltol@f1,f
  6839     116D  09A9               	comf	___fltol@f1+1,f
  6840     116E  09AA               	comf	___fltol@f1+2,f
  6841     116F  09AB               	comf	___fltol@f1+3,f
  6842     1170  0AA8               	incf	___fltol@f1,f
  6843     1171  1903               	skipnz
  6844     1172  0AA9               	incf	___fltol@f1+1,f
  6845     1173  1903               	skipnz
  6846     1174  0AAA               	incf	___fltol@f1+2,f
  6847     1175  1903               	skipnz
  6848     1176  0AAB               	incf	___fltol@f1+3,f
  6849     1177                     l590:
  6850     1177                     l580:
  6851     1177  0008               	return
  6852     1178                     __end_of___fltol:
  6853                           
  6854                           	psect	text18
  6855     0A62                     __ptext18:	
  6856 ;; *************** function ___fladd *****************
  6857 ;; Defined at:
  6858 ;;		line 10 in file "C:\Program Files\Microchip\xc8\v3.10\pic\sources\c99\common\sprcadd.c"
  6859 ;; Parameters:    Size  Location     Type
  6860 ;;  b               4    0[COMMON] long 
  6861 ;;  a               4    4[COMMON] long 
  6862 ;; Auto vars:     Size  Location     Type
  6863 ;;  grs             1   11[COMMON] unsigned char 
  6864 ;;  bexp            1   10[COMMON] unsigned char 
  6865 ;;  aexp            1    9[COMMON] unsigned char 
  6866 ;;  signs           1    8[COMMON] unsigned char 
  6867 ;; Return value:  Size  Location     Type
  6868 ;;                  4    0[COMMON] unsigned char 
  6869 ;; Registers used:
  6870 ;;		wreg, status,2, status,0, btemp1
  6871 ;; Tracked objects:
  6872 ;;		On entry : 0/0
  6873 ;;		On exit  : 0/0
  6874 ;;		Unchanged: 0/0
  6875 ;; Data sizes:     COMMON   BANK0   BANK1   BANK3   BANK2
  6876 ;;      Params:         8       0       0       0       0
  6877 ;;      Locals:         4       0       0       0       0
  6878 ;;      Temps:          0       8       0       0       0
  6879 ;;      Totals:        12       8       0       0       0
  6880 ;;Total ram usage:       20 bytes
  6881 ;; Hardware stack levels used: 1
  6882 ;; This function calls:
  6883 ;;		Nothing
  6884 ;; This function is called by:
  6885 ;;		_main
  6886 ;; This function uses a non-reentrant model
  6887 ;;
  6888                           
  6889     0A62                     ___fladd:	
  6890                           ;psect for function ___fladd
  6891                           
  6892     0A62                     l5752:	
  6893                           ;incstack = 0
  6894                           ; Regs used in ___fladd: [wreg+status,2+status,0+btemp1]
  6895                           
  6896     0A62  0873               	movf	___fladd@b+3,w
  6897     0A63  00F8               	movwf	___fladd@signs
  6898     0A64                     l5754:
  6899     0A64  3080               	movlw	128
  6900     0A65  05F8               	andwf	___fladd@signs,f
  6901     0A66                     l5756:
  6902     0A66  0873               	movf	___fladd@b+3,w
  6903     0A67  1283               	bcf	3,5	;RP0=0, select bank0
  6904     0A68  1303               	bcf	3,6	;RP1=0, select bank0
  6905     0A69  00A0               	movwf	??___fladd
  6906     0A6A  0720               	addwf	??___fladd,w
  6907     0A6B  00FA               	movwf	___fladd@bexp
  6908     0A6C                     l5758:
  6909     0A6C  1FF2               	btfss	___fladd@b+2,7
  6910     0A6D  2A6F               	goto	u8501
  6911     0A6E  2A70               	goto	u8500
  6912     0A6F                     u8501:
  6913     0A6F  2A71               	goto	l5762
  6914     0A70                     u8500:
  6915     0A70                     l5760:
  6916     0A70  147A               	bsf	___fladd@bexp,0
  6917     0A71                     l5762:
  6918     0A71  087A               	movf	___fladd@bexp,w
  6919     0A72  1903               	btfsc	3,2
  6920     0A73  2A75               	goto	u8511
  6921     0A74  2A76               	goto	u8510
  6922     0A75                     u8511:
  6923     0A75  2A86               	goto	l5772
  6924     0A76                     u8510:
  6925     0A76                     l5764:
  6926     0A76  0A7A               	incf	___fladd@bexp,w
  6927     0A77  1D03               	btfss	3,2
  6928     0A78  2A7A               	goto	u8521
  6929     0A79  2A7B               	goto	u8520
  6930     0A7A                     u8521:
  6931     0A7A  2A83               	goto	l5768
  6932     0A7B                     u8520:
  6933     0A7B                     l5766:
  6934     0A7B  3000               	movlw	0
  6935     0A7C  00F3               	movwf	___fladd@b+3
  6936     0A7D  3000               	movlw	0
  6937     0A7E  00F2               	movwf	___fladd@b+2
  6938     0A7F  3000               	movlw	0
  6939     0A80  00F1               	movwf	___fladd@b+1
  6940     0A81  3000               	movlw	0
  6941     0A82  00F0               	movwf	___fladd@b
  6942     0A83                     l5768:
  6943     0A83  17F2               	bsf	___fladd@b+2,7
  6944     0A84                     l5770:
  6945     0A84  01F3               	clrf	___fladd@b+3
  6946     0A85  2A8E               	goto	l682
  6947     0A86                     l5772:
  6948     0A86  3000               	movlw	0
  6949     0A87  00F3               	movwf	___fladd@b+3
  6950     0A88  3000               	movlw	0
  6951     0A89  00F2               	movwf	___fladd@b+2
  6952     0A8A  3000               	movlw	0
  6953     0A8B  00F1               	movwf	___fladd@b+1
  6954     0A8C  3000               	movlw	0
  6955     0A8D  00F0               	movwf	___fladd@b
  6956     0A8E                     l682:
  6957     0A8E  0877               	movf	___fladd@a+3,w
  6958     0A8F  00F9               	movwf	___fladd@aexp
  6959     0A90                     l5774:
  6960     0A90  3080               	movlw	128
  6961     0A91  05F9               	andwf	___fladd@aexp,f
  6962     0A92                     l5776:
  6963     0A92  0879               	movf	___fladd@aexp,w
  6964     0A93  0678               	xorwf	___fladd@signs,w
  6965     0A94  1903               	skipnz
  6966     0A95  2A97               	goto	u8531
  6967     0A96  2A98               	goto	u8530
  6968     0A97                     u8531:
  6969     0A97  2A99               	goto	l5780
  6970     0A98                     u8530:
  6971     0A98                     l5778:
  6972     0A98  1778               	bsf	___fladd@signs,6
  6973     0A99                     l5780:
  6974     0A99  0877               	movf	___fladd@a+3,w
  6975     0A9A  00A0               	movwf	??___fladd
  6976     0A9B  0720               	addwf	??___fladd,w
  6977     0A9C  00F9               	movwf	___fladd@aexp
  6978     0A9D                     l5782:
  6979     0A9D  1FF6               	btfss	___fladd@a+2,7
  6980     0A9E  2AA0               	goto	u8541
  6981     0A9F  2AA1               	goto	u8540
  6982     0AA0                     u8541:
  6983     0AA0  2AA2               	goto	l5786
  6984     0AA1                     u8540:
  6985     0AA1                     l5784:
  6986     0AA1  1479               	bsf	___fladd@aexp,0
  6987     0AA2                     l5786:
  6988     0AA2  0879               	movf	___fladd@aexp,w
  6989     0AA3  1903               	btfsc	3,2
  6990     0AA4  2AA6               	goto	u8551
  6991     0AA5  2AA7               	goto	u8550
  6992     0AA6                     u8551:
  6993     0AA6  2AB7               	goto	l5796
  6994     0AA7                     u8550:
  6995     0AA7                     l5788:
  6996     0AA7  0A79               	incf	___fladd@aexp,w
  6997     0AA8  1D03               	btfss	3,2
  6998     0AA9  2AAB               	goto	u8561
  6999     0AAA  2AAC               	goto	u8560
  7000     0AAB                     u8561:
  7001     0AAB  2AB4               	goto	l5792
  7002     0AAC                     u8560:
  7003     0AAC                     l5790:
  7004     0AAC  3000               	movlw	0
  7005     0AAD  00F7               	movwf	___fladd@a+3
  7006     0AAE  3000               	movlw	0
  7007     0AAF  00F6               	movwf	___fladd@a+2
  7008     0AB0  3000               	movlw	0
  7009     0AB1  00F5               	movwf	___fladd@a+1
  7010     0AB2  3000               	movlw	0
  7011     0AB3  00F4               	movwf	___fladd@a
  7012     0AB4                     l5792:
  7013     0AB4  17F6               	bsf	___fladd@a+2,7
  7014     0AB5                     l5794:
  7015     0AB5  01F7               	clrf	___fladd@a+3
  7016     0AB6  2ABF               	goto	l687
  7017     0AB7                     l5796:
  7018     0AB7  3000               	movlw	0
  7019     0AB8  00F7               	movwf	___fladd@a+3
  7020     0AB9  3000               	movlw	0
  7021     0ABA  00F6               	movwf	___fladd@a+2
  7022     0ABB  3000               	movlw	0
  7023     0ABC  00F5               	movwf	___fladd@a+1
  7024     0ABD  3000               	movlw	0
  7025     0ABE  00F4               	movwf	___fladd@a
  7026     0ABF                     l687:
  7027     0ABF  087A               	movf	___fladd@bexp,w
  7028     0AC0  0279               	subwf	___fladd@aexp,w
  7029     0AC1  1803               	skipnc
  7030     0AC2  2AC4               	goto	u8571
  7031     0AC3  2AC5               	goto	u8570
  7032     0AC4                     u8571:
  7033     0AC4  2AE9               	goto	l5832
  7034     0AC5                     u8570:
  7035     0AC5                     l5798:
  7036     0AC5  1F78               	btfss	___fladd@signs,6
  7037     0AC6  2AC8               	goto	u8581
  7038     0AC7  2AC9               	goto	u8580
  7039     0AC8                     u8581:
  7040     0AC8  2ACB               	goto	l5802
  7041     0AC9                     u8580:
  7042     0AC9                     l5800:
  7043     0AC9  3080               	movlw	128
  7044     0ACA  06F8               	xorwf	___fladd@signs,f
  7045     0ACB                     l5802:
  7046     0ACB  087A               	movf	___fladd@bexp,w
  7047     0ACC  00FB               	movwf	___fladd@grs
  7048     0ACD                     l5804:
  7049     0ACD  0879               	movf	___fladd@aexp,w
  7050     0ACE  00FA               	movwf	___fladd@bexp
  7051     0ACF                     l5806:
  7052     0ACF  087B               	movf	___fladd@grs,w
  7053     0AD0  00F9               	movwf	___fladd@aexp
  7054     0AD1                     l5808:
  7055     0AD1  0870               	movf	___fladd@b,w
  7056     0AD2  00FB               	movwf	___fladd@grs
  7057     0AD3                     l5810:
  7058     0AD3  0874               	movf	___fladd@a,w
  7059     0AD4  00F0               	movwf	___fladd@b
  7060     0AD5                     l5812:
  7061     0AD5  087B               	movf	___fladd@grs,w
  7062     0AD6  00F4               	movwf	___fladd@a
  7063     0AD7                     l5814:
  7064     0AD7  0871               	movf	___fladd@b+1,w
  7065     0AD8  00FB               	movwf	___fladd@grs
  7066     0AD9                     l5816:
  7067     0AD9  0875               	movf	___fladd@a+1,w
  7068     0ADA  00F1               	movwf	___fladd@b+1
  7069     0ADB                     l5818:
  7070     0ADB  087B               	movf	___fladd@grs,w
  7071     0ADC  00F5               	movwf	___fladd@a+1
  7072     0ADD                     l5820:
  7073     0ADD  0872               	movf	___fladd@b+2,w
  7074     0ADE  00FB               	movwf	___fladd@grs
  7075     0ADF                     l5822:
  7076     0ADF  0876               	movf	___fladd@a+2,w
  7077     0AE0  00F2               	movwf	___fladd@b+2
  7078     0AE1                     l5824:
  7079     0AE1  087B               	movf	___fladd@grs,w
  7080     0AE2  00F6               	movwf	___fladd@a+2
  7081     0AE3                     l5826:
  7082     0AE3  0873               	movf	___fladd@b+3,w
  7083     0AE4  00FB               	movwf	___fladd@grs
  7084     0AE5                     l5828:
  7085     0AE5  0877               	movf	___fladd@a+3,w
  7086     0AE6  00F3               	movwf	___fladd@b+3
  7087     0AE7                     l5830:
  7088     0AE7  087B               	movf	___fladd@grs,w
  7089     0AE8  00F7               	movwf	___fladd@a+3
  7090     0AE9                     l5832:
  7091     0AE9  01FB               	clrf	___fladd@grs
  7092     0AEA                     l5834:
  7093     0AEA  0879               	movf	___fladd@aexp,w
  7094     0AEB  00A0               	movwf	??___fladd
  7095     0AEC  01A1               	clrf	??___fladd+1
  7096     0AED  0821               	movf	??___fladd+1,w
  7097     0AEE  00A3               	movwf	??___fladd+3
  7098     0AEF  087A               	movf	___fladd@bexp,w
  7099     0AF0  0220               	subwf	??___fladd,w
  7100     0AF1  00A2               	movwf	??___fladd+2
  7101     0AF2  1C03               	skipc
  7102     0AF3  03A3               	decf	??___fladd+3,f
  7103     0AF4  0823               	movf	??___fladd+3,w
  7104     0AF5  3A80               	xorlw	128
  7105     0AF6  00FF               	movwf	btemp1
  7106     0AF7  3080               	movlw	128
  7107     0AF8  027F               	subwf	btemp1,w
  7108     0AF9  1D03               	skipz
  7109     0AFA  2AFD               	goto	u8595
  7110     0AFB  301A               	movlw	26
  7111     0AFC  0222               	subwf	??___fladd+2,w
  7112     0AFD                     u8595:
  7113     0AFD  1C03               	skipc
  7114     0AFE  2B00               	goto	u8591
  7115     0AFF  2B01               	goto	u8590
  7116     0B00                     u8591:
  7117     0B00  2B38               	goto	l5850
  7118     0B01                     u8590:
  7119     0B01                     l5836:
  7120     0B01  0873               	movf	___fladd@b+3,w
  7121     0B02  0472               	iorwf	___fladd@b+2,w
  7122     0B03  0471               	iorwf	___fladd@b+1,w
  7123     0B04  0470               	iorwf	___fladd@b,w
  7124     0B05  1D03               	skipz
  7125     0B06  2B08               	goto	u8601
  7126     0B07  2B0A               	goto	u8600
  7127     0B08                     u8601:
  7128     0B08  3001               	movlw	1
  7129     0B09  2B0B               	goto	u8610
  7130     0B0A                     u8600:
  7131     0B0A  3000               	movlw	0
  7132     0B0B                     u8610:
  7133     0B0B  00FB               	movwf	___fladd@grs
  7134     0B0C  3000               	movlw	0
  7135     0B0D  00F3               	movwf	___fladd@b+3
  7136     0B0E  3000               	movlw	0
  7137     0B0F  00F2               	movwf	___fladd@b+2
  7138     0B10  3000               	movlw	0
  7139     0B11  00F1               	movwf	___fladd@b+1
  7140     0B12  3000               	movlw	0
  7141     0B13  00F0               	movwf	___fladd@b
  7142     0B14  0879               	movf	___fladd@aexp,w
  7143     0B15  00FA               	movwf	___fladd@bexp
  7144     0B16  2B3E               	goto	l691
  7145     0B17                     l693:
  7146     0B17  1C7B               	btfss	___fladd@grs,0
  7147     0B18  2B1A               	goto	u8621
  7148     0B19  2B1B               	goto	u8620
  7149     0B1A                     u8621:
  7150     0B1A  2B24               	goto	l5840
  7151     0B1B                     u8620:
  7152     0B1B                     l5838:
  7153     0B1B  087B               	movf	___fladd@grs,w
  7154     0B1C  1283               	bcf	3,5	;RP0=0, select bank0
  7155     0B1D  1303               	bcf	3,6	;RP1=0, select bank0
  7156     0B1E  00A0               	movwf	??___fladd
  7157     0B1F  1003               	clrc
  7158     0B20  0C20               	rrf	??___fladd,w
  7159     0B21  3801               	iorlw	1
  7160     0B22  00FB               	movwf	___fladd@grs
  7161     0B23  2B26               	goto	l5842
  7162     0B24                     l5840:
  7163     0B24  1003               	clrc
  7164     0B25  0CFB               	rrf	___fladd@grs,f
  7165     0B26                     l5842:
  7166     0B26  1C70               	btfss	___fladd@b,0
  7167     0B27  2B29               	goto	u8631
  7168     0B28  2B2A               	goto	u8630
  7169     0B29                     u8631:
  7170     0B29  2B2B               	goto	l5846
  7171     0B2A                     u8630:
  7172     0B2A                     l5844:
  7173     0B2A  17FB               	bsf	___fladd@grs,7
  7174     0B2B                     l5846:
  7175     0B2B  3001               	movlw	1
  7176     0B2C  1283               	bcf	3,5	;RP0=0, select bank0
  7177     0B2D  1303               	bcf	3,6	;RP1=0, select bank0
  7178     0B2E  00A0               	movwf	??___fladd
  7179     0B2F                     u8645:
  7180     0B2F  0D73               	rlf	___fladd@b+3,w
  7181     0B30  0CF3               	rrf	___fladd@b+3,f
  7182     0B31  0CF2               	rrf	___fladd@b+2,f
  7183     0B32  0CF1               	rrf	___fladd@b+1,f
  7184     0B33  0CF0               	rrf	___fladd@b,f
  7185     0B34  0BA0               	decfsz	??___fladd& (0+127),f
  7186     0B35  2B2F               	goto	u8645
  7187     0B36                     l5848:
  7188     0B36  3001               	movlw	1
  7189     0B37  07FA               	addwf	___fladd@bexp,f
  7190     0B38                     l5850:
  7191     0B38  0879               	movf	___fladd@aexp,w
  7192     0B39  027A               	subwf	___fladd@bexp,w
  7193     0B3A  1C03               	skipc
  7194     0B3B  2B3D               	goto	u8651
  7195     0B3C  2B3E               	goto	u8650
  7196     0B3D                     u8651:
  7197     0B3D  2B17               	goto	l693
  7198     0B3E                     u8650:
  7199     0B3E                     l691:
  7200     0B3E  1B78               	btfsc	___fladd@signs,6
  7201     0B3F  2B41               	goto	u8661
  7202     0B40  2B42               	goto	u8660
  7203     0B41                     u8661:
  7204     0B41  2B8D               	goto	l5876
  7205     0B42                     u8660:
  7206     0B42                     l5852:
  7207     0B42  087A               	movf	___fladd@bexp,w
  7208     0B43  1D03               	btfss	3,2
  7209     0B44  2B46               	goto	u8671
  7210     0B45  2B47               	goto	u8670
  7211     0B46                     u8671:
  7212     0B46  2B50               	goto	l5858
  7213     0B47                     u8670:
  7214     0B47                     l5854:
  7215     0B47  3000               	movlw	0
  7216     0B48  00F3               	movwf	?___fladd+3
  7217     0B49  3000               	movlw	0
  7218     0B4A  00F2               	movwf	?___fladd+2
  7219     0B4B  3000               	movlw	0
  7220     0B4C  00F1               	movwf	?___fladd+1
  7221     0B4D  3000               	movlw	0
  7222     0B4E  00F0               	movwf	?___fladd
  7223     0B4F  2CBD               	goto	l700
  7224     0B50                     l5858:
  7225     0B50  0874               	movf	___fladd@a,w
  7226     0B51  07F0               	addwf	___fladd@b,f
  7227     0B52  0875               	movf	___fladd@a+1,w
  7228     0B53  1103               	clrz
  7229     0B54  1803               	skipnc
  7230     0B55  3E01               	addlw	1
  7231     0B56  1903               	skipnz
  7232     0B57  2B59               	goto	u8681
  7233     0B58  07F1               	addwf	___fladd@b+1,f
  7234     0B59                     u8681:
  7235     0B59  0876               	movf	___fladd@a+2,w
  7236     0B5A  1103               	clrz
  7237     0B5B  1803               	skipnc
  7238     0B5C  3E01               	addlw	1
  7239     0B5D  1903               	skipnz
  7240     0B5E  2B60               	goto	u8682
  7241     0B5F  07F2               	addwf	___fladd@b+2,f
  7242     0B60                     u8682:
  7243     0B60  0877               	movf	___fladd@a+3,w
  7244     0B61  1103               	clrz
  7245     0B62  1803               	skipnc
  7246     0B63  3E01               	addlw	1
  7247     0B64  1903               	skipnz
  7248     0B65  2B67               	goto	u8683
  7249     0B66  07F3               	addwf	___fladd@b+3,f
  7250     0B67                     u8683:
  7251     0B67                     l5860:
  7252     0B67  1C73               	btfss	___fladd@b+3,0
  7253     0B68  2B6A               	goto	u8691
  7254     0B69  2B6B               	goto	u8690
  7255     0B6A                     u8691:
  7256     0B6A  2C45               	goto	l5912
  7257     0B6B                     u8690:
  7258     0B6B                     l5862:
  7259     0B6B  1C7B               	btfss	___fladd@grs,0
  7260     0B6C  2B6E               	goto	u8701
  7261     0B6D  2B6F               	goto	u8700
  7262     0B6E                     u8701:
  7263     0B6E  2B78               	goto	l5866
  7264     0B6F                     u8700:
  7265     0B6F                     l5864:
  7266     0B6F  087B               	movf	___fladd@grs,w
  7267     0B70  1283               	bcf	3,5	;RP0=0, select bank0
  7268     0B71  1303               	bcf	3,6	;RP1=0, select bank0
  7269     0B72  00A0               	movwf	??___fladd
  7270     0B73  1003               	clrc
  7271     0B74  0C20               	rrf	??___fladd,w
  7272     0B75  3801               	iorlw	1
  7273     0B76  00FB               	movwf	___fladd@grs
  7274     0B77  2B7A               	goto	l5868
  7275     0B78                     l5866:
  7276     0B78  1003               	clrc
  7277     0B79  0CFB               	rrf	___fladd@grs,f
  7278     0B7A                     l5868:
  7279     0B7A  1C70               	btfss	___fladd@b,0
  7280     0B7B  2B7D               	goto	u8711
  7281     0B7C  2B7E               	goto	u8710
  7282     0B7D                     u8711:
  7283     0B7D  2B7F               	goto	l5872
  7284     0B7E                     u8710:
  7285     0B7E                     l5870:
  7286     0B7E  17FB               	bsf	___fladd@grs,7
  7287     0B7F                     l5872:
  7288     0B7F  3001               	movlw	1
  7289     0B80  1283               	bcf	3,5	;RP0=0, select bank0
  7290     0B81  1303               	bcf	3,6	;RP1=0, select bank0
  7291     0B82  00A0               	movwf	??___fladd
  7292     0B83                     u8725:
  7293     0B83  0D73               	rlf	___fladd@b+3,w
  7294     0B84  0CF3               	rrf	___fladd@b+3,f
  7295     0B85  0CF2               	rrf	___fladd@b+2,f
  7296     0B86  0CF1               	rrf	___fladd@b+1,f
  7297     0B87  0CF0               	rrf	___fladd@b,f
  7298     0B88  0BA0               	decfsz	??___fladd& (0+127),f
  7299     0B89  2B83               	goto	u8725
  7300     0B8A                     l5874:
  7301     0B8A  3001               	movlw	1
  7302     0B8B  07FA               	addwf	___fladd@bexp,f
  7303     0B8C  2C45               	goto	l5912
  7304     0B8D                     l5876:
  7305     0B8D  0873               	movf	___fladd@b+3,w
  7306     0B8E  3A80               	xorlw	128
  7307     0B8F  00FF               	movwf	btemp1
  7308     0B90  0877               	movf	___fladd@a+3,w
  7309     0B91  3A80               	xorlw	128
  7310     0B92  027F               	subwf	btemp1,w
  7311     0B93  1D03               	skipz
  7312     0B94  2B9F               	goto	u8733
  7313     0B95  0876               	movf	___fladd@a+2,w
  7314     0B96  0272               	subwf	___fladd@b+2,w
  7315     0B97  1D03               	skipz
  7316     0B98  2B9F               	goto	u8733
  7317     0B99  0875               	movf	___fladd@a+1,w
  7318     0B9A  0271               	subwf	___fladd@b+1,w
  7319     0B9B  1D03               	skipz
  7320     0B9C  2B9F               	goto	u8733
  7321     0B9D  0874               	movf	___fladd@a,w
  7322     0B9E  0270               	subwf	___fladd@b,w
  7323     0B9F                     u8733:
  7324     0B9F  1803               	skipnc
  7325     0BA0  2BA2               	goto	u8731
  7326     0BA1  2BA3               	goto	u8730
  7327     0BA2                     u8731:
  7328     0BA2  2BFC               	goto	l5888
  7329     0BA3                     u8730:
  7330     0BA3                     l5878:
  7331     0BA3  30FF               	movlw	255
  7332     0BA4  1283               	bcf	3,5	;RP0=0, select bank0
  7333     0BA5  1303               	bcf	3,6	;RP1=0, select bank0
  7334     0BA6  00A0               	movwf	??___fladd
  7335     0BA7  30FF               	movlw	255
  7336     0BA8  00A1               	movwf	??___fladd+1
  7337     0BA9  30FF               	movlw	255
  7338     0BAA  00A2               	movwf	??___fladd+2
  7339     0BAB  30FF               	movlw	255
  7340     0BAC  00A3               	movwf	??___fladd+3
  7341     0BAD  0874               	movf	___fladd@a,w
  7342     0BAE  00A4               	movwf	??___fladd+4
  7343     0BAF  0875               	movf	___fladd@a+1,w
  7344     0BB0  00A5               	movwf	??___fladd+5
  7345     0BB1  0876               	movf	___fladd@a+2,w
  7346     0BB2  00A6               	movwf	??___fladd+6
  7347     0BB3  0877               	movf	___fladd@a+3,w
  7348     0BB4  00A7               	movwf	??___fladd+7
  7349     0BB5  0870               	movf	___fladd@b,w
  7350     0BB6  02A4               	subwf	??___fladd+4,f
  7351     0BB7  0871               	movf	___fladd@b+1,w
  7352     0BB8  1C03               	skipc
  7353     0BB9  0F71               	incfsz	___fladd@b+1,w
  7354     0BBA  2BBC               	goto	u8741
  7355     0BBB  2BBD               	goto	u8742
  7356     0BBC                     u8741:
  7357     0BBC  02A5               	subwf	??___fladd+5,f
  7358     0BBD                     u8742:
  7359     0BBD  0872               	movf	___fladd@b+2,w
  7360     0BBE  1C03               	skipc
  7361     0BBF  0F72               	incfsz	___fladd@b+2,w
  7362     0BC0  2BC2               	goto	u8743
  7363     0BC1  2BC3               	goto	u8744
  7364     0BC2                     u8743:
  7365     0BC2  02A6               	subwf	??___fladd+6,f
  7366     0BC3                     u8744:
  7367     0BC3  0873               	movf	___fladd@b+3,w
  7368     0BC4  1C03               	skipc
  7369     0BC5  0F73               	incfsz	___fladd@b+3,w
  7370     0BC6  2BC8               	goto	u8745
  7371     0BC7  2BC9               	goto	u8746
  7372     0BC8                     u8745:
  7373     0BC8  02A7               	subwf	??___fladd+7,f
  7374     0BC9                     u8746:
  7375     0BC9  0824               	movf	??___fladd+4,w
  7376     0BCA  07A0               	addwf	??___fladd,f
  7377     0BCB  0825               	movf	??___fladd+5,w
  7378     0BCC  1803               	skipnc
  7379     0BCD  0F25               	incfsz	??___fladd+5,w
  7380     0BCE  2BD0               	goto	u8750
  7381     0BCF  2BD1               	goto	u8751
  7382     0BD0                     u8750:
  7383     0BD0  07A1               	addwf	??___fladd+1,f
  7384     0BD1                     u8751:
  7385     0BD1  0826               	movf	??___fladd+6,w
  7386     0BD2  1803               	skipnc
  7387     0BD3  0F26               	incfsz	??___fladd+6,w
  7388     0BD4  2BD6               	goto	u8752
  7389     0BD5  2BD7               	goto	u8753
  7390     0BD6                     u8752:
  7391     0BD6  07A2               	addwf	??___fladd+2,f
  7392     0BD7                     u8753:
  7393     0BD7  0827               	movf	??___fladd+7,w
  7394     0BD8  1803               	skipnc
  7395     0BD9  0A27               	incf	??___fladd+7,w
  7396     0BDA  07A3               	addwf	??___fladd+3,f
  7397     0BDB  0823               	movf	??___fladd+3,w
  7398     0BDC  00F3               	movwf	___fladd@b+3
  7399     0BDD  0822               	movf	??___fladd+2,w
  7400     0BDE  00F2               	movwf	___fladd@b+2
  7401     0BDF  0821               	movf	??___fladd+1,w
  7402     0BE0  00F1               	movwf	___fladd@b+1
  7403     0BE1  0820               	movf	??___fladd,w
  7404     0BE2  00F0               	movwf	___fladd@b
  7405     0BE3                     l5880:
  7406     0BE3  3080               	movlw	128
  7407     0BE4  06F8               	xorwf	___fladd@signs,f
  7408     0BE5                     l5882:
  7409     0BE5  037B               	decf	___fladd@grs,w
  7410     0BE6  3AFF               	xorlw	255
  7411     0BE7  00FB               	movwf	___fladd@grs
  7412     0BE8                     l5884:
  7413     0BE8  087B               	movf	___fladd@grs,w
  7414     0BE9  1D03               	btfss	3,2
  7415     0BEA  2BEC               	goto	u8761
  7416     0BEB  2BED               	goto	u8760
  7417     0BEC                     u8761:
  7418     0BEC  2C0A               	goto	l708
  7419     0BED                     u8760:
  7420     0BED                     l5886:
  7421     0BED  3001               	movlw	1
  7422     0BEE  07F0               	addwf	___fladd@b,f
  7423     0BEF  3000               	movlw	0
  7424     0BF0  1803               	skipnc
  7425     0BF1  3001               	movlw	1
  7426     0BF2  07F1               	addwf	___fladd@b+1,f
  7427     0BF3  3000               	movlw	0
  7428     0BF4  1803               	skipnc
  7429     0BF5  3001               	movlw	1
  7430     0BF6  07F2               	addwf	___fladd@b+2,f
  7431     0BF7  3000               	movlw	0
  7432     0BF8  1803               	skipnc
  7433     0BF9  3001               	movlw	1
  7434     0BFA  07F3               	addwf	___fladd@b+3,f
  7435     0BFB  2C0A               	goto	l708
  7436     0BFC                     l5888:
  7437     0BFC  0874               	movf	___fladd@a,w
  7438     0BFD  02F0               	subwf	___fladd@b,f
  7439     0BFE  0875               	movf	___fladd@a+1,w
  7440     0BFF  1C03               	skipc
  7441     0C00  0F75               	incfsz	___fladd@a+1,w
  7442     0C01  02F1               	subwf	___fladd@b+1,f
  7443     0C02  0876               	movf	___fladd@a+2,w
  7444     0C03  1C03               	skipc
  7445     0C04  0F76               	incfsz	___fladd@a+2,w
  7446     0C05  02F2               	subwf	___fladd@b+2,f
  7447     0C06  0877               	movf	___fladd@a+3,w
  7448     0C07  1C03               	skipc
  7449     0C08  0F77               	incfsz	___fladd@a+3,w
  7450     0C09  02F3               	subwf	___fladd@b+3,f
  7451     0C0A                     l708:
  7452     0C0A  0873               	movf	___fladd@b+3,w
  7453     0C0B  0472               	iorwf	___fladd@b+2,w
  7454     0C0C  0471               	iorwf	___fladd@b+1,w
  7455     0C0D  0470               	iorwf	___fladd@b,w
  7456     0C0E  1D03               	skipz
  7457     0C0F  2C11               	goto	u8771
  7458     0C10  2C12               	goto	u8770
  7459     0C11                     u8771:
  7460     0C11  2C41               	goto	l5910
  7461     0C12                     u8770:
  7462     0C12                     l5890:
  7463     0C12  087B               	movf	___fladd@grs,w
  7464     0C13  1D03               	btfss	3,2
  7465     0C14  2C16               	goto	u8781
  7466     0C15  2C17               	goto	u8780
  7467     0C16                     u8781:
  7468     0C16  2C41               	goto	l5910
  7469     0C17                     u8780:
  7470     0C17                     l5892:
  7471     0C17  3000               	movlw	0
  7472     0C18  00F3               	movwf	?___fladd+3
  7473     0C19  3000               	movlw	0
  7474     0C1A  00F2               	movwf	?___fladd+2
  7475     0C1B  3000               	movlw	0
  7476     0C1C  00F1               	movwf	?___fladd+1
  7477     0C1D  3000               	movlw	0
  7478     0C1E  00F0               	movwf	?___fladd
  7479     0C1F  2CBD               	goto	l700
  7480     0C20                     l5896:
  7481     0C20  3001               	movlw	1
  7482     0C21  1283               	bcf	3,5	;RP0=0, select bank0
  7483     0C22  1303               	bcf	3,6	;RP1=0, select bank0
  7484     0C23  00A0               	movwf	??___fladd
  7485     0C24                     u8795:
  7486     0C24  1003               	clrc
  7487     0C25  0DF0               	rlf	___fladd@b,f
  7488     0C26  0DF1               	rlf	___fladd@b+1,f
  7489     0C27  0DF2               	rlf	___fladd@b+2,f
  7490     0C28  0DF3               	rlf	___fladd@b+3,f
  7491     0C29  0BA0               	decfsz	??___fladd,f
  7492     0C2A  2C24               	goto	u8795
  7493     0C2B                     l5898:
  7494     0C2B  1FFB               	btfss	___fladd@grs,7
  7495     0C2C  2C2E               	goto	u8801
  7496     0C2D  2C2F               	goto	u8800
  7497     0C2E                     u8801:
  7498     0C2E  2C30               	goto	l712
  7499     0C2F                     u8800:
  7500     0C2F                     l5900:
  7501     0C2F  1470               	bsf	___fladd@b,0
  7502     0C30                     l712:
  7503     0C30  1C7B               	btfss	___fladd@grs,0
  7504     0C31  2C33               	goto	u8811
  7505     0C32  2C34               	goto	u8810
  7506     0C33                     u8811:
  7507     0C33  2C38               	goto	l5904
  7508     0C34                     u8810:
  7509     0C34                     l5902:
  7510     0C34  1403               	setc
  7511     0C35  0D7B               	rlf	___fladd@grs,w
  7512     0C36  00FB               	movwf	___fladd@grs
  7513     0C37  2C3A               	goto	l5906
  7514     0C38                     l5904:
  7515     0C38  1003               	clrc
  7516     0C39  0DFB               	rlf	___fladd@grs,f
  7517     0C3A                     l5906:
  7518     0C3A  087A               	movf	___fladd@bexp,w
  7519     0C3B  1903               	btfsc	3,2
  7520     0C3C  2C3E               	goto	u8821
  7521     0C3D  2C3F               	goto	u8820
  7522     0C3E                     u8821:
  7523     0C3E  2C41               	goto	l5910
  7524     0C3F                     u8820:
  7525     0C3F                     l5908:
  7526     0C3F  3001               	movlw	1
  7527     0C40  02FA               	subwf	___fladd@bexp,f
  7528     0C41                     l5910:
  7529     0C41  1FF2               	btfss	___fladd@b+2,7
  7530     0C42  2C44               	goto	u8831
  7531     0C43  2C45               	goto	u8830
  7532     0C44                     u8831:
  7533     0C44  2C20               	goto	l5896
  7534     0C45                     u8830:
  7535     0C45                     l5912:
  7536     0C45  01F9               	clrf	___fladd@aexp
  7537     0C46                     l5914:
  7538     0C46  1FFB               	btfss	___fladd@grs,7
  7539     0C47  2C49               	goto	u8841
  7540     0C48  2C4A               	goto	u8840
  7541     0C49                     u8841:
  7542     0C49  2C58               	goto	l5922
  7543     0C4A                     u8840:
  7544     0C4A                     l5916:
  7545     0C4A  087B               	movf	___fladd@grs,w
  7546     0C4B  397F               	andlw	127
  7547     0C4C  1903               	btfsc	3,2
  7548     0C4D  2C4F               	goto	u8851
  7549     0C4E  2C50               	goto	u8850
  7550     0C4F                     u8851:
  7551     0C4F  2C53               	goto	l718
  7552     0C50                     u8850:
  7553     0C50                     l5918:
  7554     0C50  3001               	movlw	1
  7555     0C51  00F9               	movwf	___fladd@aexp
  7556     0C52  2C58               	goto	l5922
  7557     0C53                     l718:
  7558     0C53  1C70               	btfss	___fladd@b,0
  7559     0C54  2C56               	goto	u8861
  7560     0C55  2C57               	goto	u8860
  7561     0C56                     u8861:
  7562     0C56  2C58               	goto	l5922
  7563     0C57                     u8860:
  7564     0C57  2C50               	goto	l5918
  7565     0C58                     l5922:
  7566     0C58  0879               	movf	___fladd@aexp,w
  7567     0C59  1903               	btfsc	3,2
  7568     0C5A  2C5C               	goto	u8871
  7569     0C5B  2C5D               	goto	u8870
  7570     0C5C                     u8871:
  7571     0C5C  2C91               	goto	l721
  7572     0C5D                     u8870:
  7573     0C5D                     l5924:
  7574     0C5D  3001               	movlw	1
  7575     0C5E  07F0               	addwf	___fladd@b,f
  7576     0C5F  3000               	movlw	0
  7577     0C60  1803               	skipnc
  7578     0C61  3001               	movlw	1
  7579     0C62  07F1               	addwf	___fladd@b+1,f
  7580     0C63  3000               	movlw	0
  7581     0C64  1803               	skipnc
  7582     0C65  3001               	movlw	1
  7583     0C66  07F2               	addwf	___fladd@b+2,f
  7584     0C67  3000               	movlw	0
  7585     0C68  1803               	skipnc
  7586     0C69  3001               	movlw	1
  7587     0C6A  07F3               	addwf	___fladd@b+3,f
  7588     0C6B                     l5926:
  7589     0C6B  1C73               	btfss	___fladd@b+3,0
  7590     0C6C  2C6E               	goto	u8881
  7591     0C6D  2C6F               	goto	u8880
  7592     0C6E                     u8881:
  7593     0C6E  2C91               	goto	l721
  7594     0C6F                     u8880:
  7595     0C6F                     l5928:
  7596     0C6F  0870               	movf	___fladd@b,w
  7597     0C70  1283               	bcf	3,5	;RP0=0, select bank0
  7598     0C71  1303               	bcf	3,6	;RP1=0, select bank0
  7599     0C72  00A0               	movwf	??___fladd
  7600     0C73  0871               	movf	___fladd@b+1,w
  7601     0C74  00A1               	movwf	??___fladd+1
  7602     0C75  0872               	movf	___fladd@b+2,w
  7603     0C76  00A2               	movwf	??___fladd+2
  7604     0C77  0873               	movf	___fladd@b+3,w
  7605     0C78  00A3               	movwf	??___fladd+3
  7606     0C79  3001               	movlw	1
  7607     0C7A  00A4               	movwf	??___fladd+4
  7608     0C7B                     u8895:
  7609     0C7B  0D23               	rlf	??___fladd+3,w
  7610     0C7C  0CA3               	rrf	??___fladd+3,f
  7611     0C7D  0CA2               	rrf	??___fladd+2,f
  7612     0C7E  0CA1               	rrf	??___fladd+1,f
  7613     0C7F  0CA0               	rrf	??___fladd,f
  7614     0C80                     u8890:
  7615     0C80  0BA4               	decfsz	??___fladd+4,f
  7616     0C81  2C7B               	goto	u8895
  7617     0C82  0823               	movf	??___fladd+3,w
  7618     0C83  00F3               	movwf	___fladd@b+3
  7619     0C84  0822               	movf	??___fladd+2,w
  7620     0C85  00F2               	movwf	___fladd@b+2
  7621     0C86  0821               	movf	??___fladd+1,w
  7622     0C87  00F1               	movwf	___fladd@b+1
  7623     0C88  0820               	movf	??___fladd,w
  7624     0C89  00F0               	movwf	___fladd@b
  7625     0C8A  0A7A               	incf	___fladd@bexp,w
  7626     0C8B  1903               	btfsc	3,2
  7627     0C8C  2C8E               	goto	u8901
  7628     0C8D  2C8F               	goto	u8900
  7629     0C8E                     u8901:
  7630     0C8E  2C91               	goto	l721
  7631     0C8F                     u8900:
  7632     0C8F                     l5930:
  7633     0C8F  3001               	movlw	1
  7634     0C90  07FA               	addwf	___fladd@bexp,f
  7635     0C91                     l721:
  7636     0C91  0A7A               	incf	___fladd@bexp,w
  7637     0C92  1903               	btfsc	3,2
  7638     0C93  2C95               	goto	u8911
  7639     0C94  2C96               	goto	u8910
  7640     0C95                     u8911:
  7641     0C95  2C9B               	goto	l5934
  7642     0C96                     u8910:
  7643     0C96                     l5932:
  7644     0C96  087A               	movf	___fladd@bexp,w
  7645     0C97  1D03               	btfss	3,2
  7646     0C98  2C9A               	goto	u8921
  7647     0C99  2C9B               	goto	u8920
  7648     0C9A                     u8921:
  7649     0C9A  2CA9               	goto	l5940
  7650     0C9B                     u8920:
  7651     0C9B                     l5934:
  7652     0C9B  3000               	movlw	0
  7653     0C9C  00F3               	movwf	___fladd@b+3
  7654     0C9D  3000               	movlw	0
  7655     0C9E  00F2               	movwf	___fladd@b+2
  7656     0C9F  3000               	movlw	0
  7657     0CA0  00F1               	movwf	___fladd@b+1
  7658     0CA1  3000               	movlw	0
  7659     0CA2  00F0               	movwf	___fladd@b
  7660     0CA3                     l5936:
  7661     0CA3  087A               	movf	___fladd@bexp,w
  7662     0CA4  1D03               	btfss	3,2
  7663     0CA5  2CA7               	goto	u8931
  7664     0CA6  2CA8               	goto	u8930
  7665     0CA7                     u8931:
  7666     0CA7  2CA9               	goto	l5940
  7667     0CA8                     u8930:
  7668     0CA8                     l5938:
  7669     0CA8  01F8               	clrf	___fladd@signs
  7670     0CA9                     l5940:
  7671     0CA9  1C7A               	btfss	___fladd@bexp,0
  7672     0CAA  2CAC               	goto	u8941
  7673     0CAB  2CAD               	goto	u8940
  7674     0CAC                     u8941:
  7675     0CAC  2CAF               	goto	l5944
  7676     0CAD                     u8940:
  7677     0CAD                     l5942:
  7678     0CAD  17F2               	bsf	___fladd@b+2,7
  7679     0CAE  2CB1               	goto	l729
  7680     0CAF                     l5944:
  7681     0CAF  307F               	movlw	127
  7682     0CB0  05F2               	andwf	___fladd@b+2,f
  7683     0CB1                     l729:
  7684     0CB1  087A               	movf	___fladd@bexp,w
  7685     0CB2  1283               	bcf	3,5	;RP0=0, select bank0
  7686     0CB3  1303               	bcf	3,6	;RP1=0, select bank0
  7687     0CB4  00A0               	movwf	??___fladd
  7688     0CB5  1003               	clrc
  7689     0CB6  0C20               	rrf	??___fladd,w
  7690     0CB7  00F3               	movwf	___fladd@b+3
  7691     0CB8                     l5946:
  7692     0CB8  1FF8               	btfss	___fladd@signs,7
  7693     0CB9  2CBB               	goto	u8951
  7694     0CBA  2CBC               	goto	u8950
  7695     0CBB                     u8951:
  7696     0CBB  2CBD               	goto	l730
  7697     0CBC                     u8950:
  7698     0CBC                     l5948:
  7699     0CBC  17F3               	bsf	___fladd@b+3,7
  7700     0CBD                     l730:
  7701     0CBD                     l700:
  7702     0CBD  0008               	return
  7703     0CBE                     __end_of___fladd:
  7704                           
  7705                           	psect	text19
  7706     1409                     __ptext19:	
  7707 ;; *************** function _SD_Init *****************
  7708 ;; Defined at:
  7709 ;;		line 63 in file "SD_SPI.c"
  7710 ;; Parameters:    Size  Location     Type
  7711 ;;		None
  7712 ;; Auto vars:     Size  Location     Type
  7713 ;;  retry           2    8[BANK0 ] unsigned short 
  7714 ;;  i               1    7[BANK0 ] unsigned char 
  7715 ;;  r               1    6[BANK0 ] unsigned char 
  7716 ;; Return value:  Size  Location     Type
  7717 ;;                  1    wreg      unsigned char 
  7718 ;; Registers used:
  7719 ;;		wreg, status,2, status,0, pclath, btemp1, cstack
  7720 ;; Tracked objects:
  7721 ;;		On entry : 0/0
  7722 ;;		On exit  : 0/0
  7723 ;;		Unchanged: 0/0
  7724 ;; Data sizes:     COMMON   BANK0   BANK1   BANK3   BANK2
  7725 ;;      Params:         0       0       0       0       0
  7726 ;;      Locals:         0       4       0       0       0
  7727 ;;      Temps:          0       2       0       0       0
  7728 ;;      Totals:         0       6       0       0       0
  7729 ;;Total ram usage:        6 bytes
  7730 ;; Hardware stack levels used: 1
  7731 ;; Hardware stack levels required when called: 1
  7732 ;; This function calls:
  7733 ;;		_SD_Cmd
  7734 ;;		_SD_SPI_Init
  7735 ;;		_SD_SPI_Transfer
  7736 ;; This function is called by:
  7737 ;;		_main
  7738 ;; This function uses a non-reentrant model
  7739 ;;
  7740                           
  7741     1409                     _SD_Init:	
  7742                           ;psect for function _SD_Init
  7743                           
  7744     1409                     l5398:	
  7745                           ;incstack = 0
  7746                           ; Regs used in _SD_Init: [wreg+status,2+status,0+pclath+btemp1+cstack]
  7747                           
  7748                           
  7749                           ;SD_SPI.c: 64:     uint8_t i, r;;SD_SPI.c: 65:     uint16_t retry;;SD_SPI.c: 66:     SD_
      +                          SPI_Init();
  7750     1409  160A  158A  2342  160A  118A  	fcall	_SD_SPI_Init
  7751     140E                     l5400:
  7752                           
  7753                           ;SD_SPI.c: 67:     PORTBbits.RB5 = 1;
  7754     140E  1283               	bcf	3,5	;RP0=0, select bank0
  7755     140F  1303               	bcf	3,6	;RP1=0, select bank0
  7756     1410  1686               	bsf	6,5	;volatile
  7757     1411                     l5402:
  7758                           
  7759                           ;SD_SPI.c: 68:     for(i = 0; i < 10; i++) SD_SPI_Transfer(0xFF);
  7760     1411  01A7               	clrf	SD_Init@i
  7761     1412                     l5408:
  7762     1412  30FF               	movlw	255
  7763     1413  160A  158A  2501  160A  118A  	fcall	_SD_SPI_Transfer
  7764     1418                     l5410:
  7765     1418  3001               	movlw	1
  7766     1419  1283               	bcf	3,5	;RP0=0, select bank0
  7767     141A  1303               	bcf	3,6	;RP1=0, select bank0
  7768     141B  07A7               	addwf	SD_Init@i,f
  7769     141C                     l5412:
  7770     141C  300A               	movlw	10
  7771     141D  0227               	subwf	SD_Init@i,w
  7772     141E  1C03               	skipc
  7773     141F  2C21               	goto	u8051
  7774     1420  2C22               	goto	u8050
  7775     1421                     u8051:
  7776     1421  2C12               	goto	l5408
  7777     1422                     u8050:
  7778     1422                     l273:
  7779                           
  7780                           ;SD_SPI.c: 69:     PORTBbits.RB5 = 0;
  7781     1422  1286               	bcf	6,5	;volatile
  7782     1423                     l5414:
  7783                           
  7784                           ;SD_SPI.c: 70:     _delay((unsigned long)((2)*(20000000/4000.0)));
  7785     1423  300D               	movlw	13
  7786     1424  1283               	bcf	3,5	;RP0=0, select bank0
  7787     1425  1303               	bcf	3,6	;RP1=0, select bank0
  7788     1426  00A5               	movwf	??_SD_Init+1
  7789     1427  30FB               	movlw	251
  7790     1428  00A4               	movwf	??_SD_Init
  7791     1429                     u9397:
  7792     1429  0BA4               	decfsz	??_SD_Init,f
  7793     142A  2C29               	goto	u9397
  7794     142B  0BA5               	decfsz	??_SD_Init+1,f
  7795     142C  2C29               	goto	u9397
  7796     142D                     l5416:
  7797                           
  7798                           ;SD_SPI.c: 71:     for(retry = 0; retry < 200; retry++){
  7799     142D  1283               	bcf	3,5	;RP0=0, select bank0
  7800     142E  1303               	bcf	3,6	;RP1=0, select bank0
  7801     142F  01A8               	clrf	SD_Init@retry
  7802     1430  01A9               	clrf	SD_Init@retry+1
  7803     1431                     l5422:
  7804                           
  7805                           ;SD_SPI.c: 72:         if(SD_Cmd(0x00, 0) == 0x01) break;
  7806     1431  3000               	movlw	0
  7807     1432  00F8               	movwf	SD_Cmd@arg+3
  7808     1433  3000               	movlw	0
  7809     1434  00F7               	movwf	SD_Cmd@arg+2
  7810     1435  3000               	movlw	0
  7811     1436  00F6               	movwf	SD_Cmd@arg+1
  7812     1437  3000               	movlw	0
  7813     1438  00F5               	movwf	SD_Cmd@arg
  7814     1439  3000               	movlw	0
  7815     143A  120A  158A  2006  160A  118A  	fcall	_SD_Cmd
  7816     143F  3A01               	xorlw	1
  7817     1440  1D03               	skipz
  7818     1441  2C43               	goto	u8061
  7819     1442  2C44               	goto	u8060
  7820     1443                     u8061:
  7821     1443  2C45               	goto	l5426
  7822     1444                     u8060:
  7823     1444  2C61               	goto	l5428
  7824     1445                     l5426:
  7825                           
  7826                           ;SD_SPI.c: 73:         _delay((unsigned long)((10)*(20000000/4000.0)));
  7827     1445  3041               	movlw	65
  7828     1446  1283               	bcf	3,5	;RP0=0, select bank0
  7829     1447  1303               	bcf	3,6	;RP1=0, select bank0
  7830     1448  00A5               	movwf	??_SD_Init+1
  7831     1449  30ED               	movlw	237
  7832     144A  00A4               	movwf	??_SD_Init
  7833     144B                     u9407:
  7834     144B  0BA4               	decfsz	??_SD_Init,f
  7835     144C  2C4B               	goto	u9407
  7836     144D  0BA5               	decfsz	??_SD_Init+1,f
  7837     144E  2C4B               	goto	u9407
  7838     144F  2C50               	nop2
  7839                           
  7840                           ;SD_SPI.c: 74:     }
  7841     1450  3001               	movlw	1
  7842     1451  1283               	bcf	3,5	;RP0=0, select bank0
  7843     1452  1303               	bcf	3,6	;RP1=0, select bank0
  7844     1453  07A8               	addwf	SD_Init@retry,f
  7845     1454  1803               	skipnc
  7846     1455  0AA9               	incf	SD_Init@retry+1,f
  7847     1456  3000               	movlw	0
  7848     1457  07A9               	addwf	SD_Init@retry+1,f
  7849     1458  3000               	movlw	0
  7850     1459  0229               	subwf	SD_Init@retry+1,w
  7851     145A  30C8               	movlw	200
  7852     145B  1903               	skipnz
  7853     145C  0228               	subwf	SD_Init@retry,w
  7854     145D  1C03               	skipc
  7855     145E  2C60               	goto	u8071
  7856     145F  2C61               	goto	u8070
  7857     1460                     u8071:
  7858     1460  2C31               	goto	l5422
  7859     1461                     u8070:
  7860     1461                     l5428:
  7861                           
  7862                           ;SD_SPI.c: 75:     if(retry >= 200){ PORTBbits.RB5 = 1; return 0; }
  7863     1461  3000               	movlw	0
  7864     1462  1283               	bcf	3,5	;RP0=0, select bank0
  7865     1463  1303               	bcf	3,6	;RP1=0, select bank0
  7866     1464  0229               	subwf	SD_Init@retry+1,w
  7867     1465  30C8               	movlw	200
  7868     1466  1903               	skipnz
  7869     1467  0228               	subwf	SD_Init@retry,w
  7870     1468  1C03               	skipc
  7871     1469  2C6B               	goto	u8081
  7872     146A  2C6C               	goto	u8080
  7873     146B                     u8081:
  7874     146B  2C6F               	goto	l5436
  7875     146C                     u8080:
  7876     146C                     l5430:
  7877     146C  1686               	bsf	6,5	;volatile
  7878     146D                     l5432:
  7879     146D  3000               	movlw	0
  7880     146E  2D12               	goto	l278
  7881     146F                     l5436:
  7882                           
  7883                           ;SD_SPI.c: 76:     r = SD_Cmd(0x08, 0x000001AA);
  7884     146F  3000               	movlw	0
  7885     1470  00F8               	movwf	SD_Cmd@arg+3
  7886     1471  3000               	movlw	0
  7887     1472  00F7               	movwf	SD_Cmd@arg+2
  7888     1473  3001               	movlw	1
  7889     1474  00F6               	movwf	SD_Cmd@arg+1
  7890     1475  30AA               	movlw	170
  7891     1476  00F5               	movwf	SD_Cmd@arg
  7892     1477  3008               	movlw	8
  7893     1478  120A  158A  2006  160A  118A  	fcall	_SD_Cmd
  7894     147D  1283               	bcf	3,5	;RP0=0, select bank0
  7895     147E  1303               	bcf	3,6	;RP1=0, select bank0
  7896     147F  00A6               	movwf	SD_Init@r
  7897     1480                     l5438:
  7898                           
  7899                           ;SD_SPI.c: 77:     if(r == 0x01){
  7900     1480  0326               	decf	SD_Init@r,w
  7901     1481  1D03               	btfss	3,2
  7902     1482  2C84               	goto	u8091
  7903     1483  2C85               	goto	u8090
  7904     1484                     u8091:
  7905     1484  2C96               	goto	l5452
  7906     1485                     u8090:
  7907     1485                     l5440:
  7908                           
  7909                           ;SD_SPI.c: 78:         for(i = 0; i < 4; i++) SD_SPI_Transfer(0xFF);
  7910     1485  01A7               	clrf	SD_Init@i
  7911     1486                     l5446:
  7912     1486  30FF               	movlw	255
  7913     1487  160A  158A  2501  160A  118A  	fcall	_SD_SPI_Transfer
  7914     148C                     l5448:
  7915     148C  3001               	movlw	1
  7916     148D  1283               	bcf	3,5	;RP0=0, select bank0
  7917     148E  1303               	bcf	3,6	;RP1=0, select bank0
  7918     148F  07A7               	addwf	SD_Init@i,f
  7919     1490                     l5450:
  7920     1490  3004               	movlw	4
  7921     1491  0227               	subwf	SD_Init@i,w
  7922     1492  1C03               	skipc
  7923     1493  2C95               	goto	u8101
  7924     1494  2C96               	goto	u8100
  7925     1495                     u8101:
  7926     1495  2C86               	goto	l5446
  7927     1496                     u8100:
  7928     1496                     l5452:
  7929                           
  7930                           ;SD_SPI.c: 80:     for(retry = 0; retry < 1000; retry++){
  7931     1496  01A8               	clrf	SD_Init@retry
  7932     1497  01A9               	clrf	SD_Init@retry+1
  7933     1498                     l5458:
  7934                           
  7935                           ;SD_SPI.c: 81:         SD_Cmd(0x37, 0);
  7936     1498  3000               	movlw	0
  7937     1499  00F8               	movwf	SD_Cmd@arg+3
  7938     149A  3000               	movlw	0
  7939     149B  00F7               	movwf	SD_Cmd@arg+2
  7940     149C  3000               	movlw	0
  7941     149D  00F6               	movwf	SD_Cmd@arg+1
  7942     149E  3000               	movlw	0
  7943     149F  00F5               	movwf	SD_Cmd@arg
  7944     14A0  3037               	movlw	55
  7945     14A1  120A  158A  2006  160A  118A  	fcall	_SD_Cmd
  7946                           
  7947                           ;SD_SPI.c: 82:         if(SD_Cmd(0x29, 0x40000000) == 0x00) break;
  7948     14A6  3040               	movlw	64
  7949     14A7  00F8               	movwf	SD_Cmd@arg+3
  7950     14A8  3000               	movlw	0
  7951     14A9  00F7               	movwf	SD_Cmd@arg+2
  7952     14AA  3000               	movlw	0
  7953     14AB  00F6               	movwf	SD_Cmd@arg+1
  7954     14AC  3000               	movlw	0
  7955     14AD  00F5               	movwf	SD_Cmd@arg
  7956     14AE  3029               	movlw	41
  7957     14AF  120A  158A  2006  160A  118A  	fcall	_SD_Cmd
  7958     14B4  3A00               	xorlw	0
  7959     14B5  1D03               	skipz
  7960     14B6  2CB8               	goto	u8111
  7961     14B7  2CB9               	goto	u8110
  7962     14B8                     u8111:
  7963     14B8  2CBA               	goto	l5462
  7964     14B9                     u8110:
  7965     14B9  2CD6               	goto	l5464
  7966     14BA                     l5462:
  7967                           
  7968                           ;SD_SPI.c: 83:         _delay((unsigned long)((10)*(20000000/4000.0)));
  7969     14BA  3041               	movlw	65
  7970     14BB  1283               	bcf	3,5	;RP0=0, select bank0
  7971     14BC  1303               	bcf	3,6	;RP1=0, select bank0
  7972     14BD  00A5               	movwf	??_SD_Init+1
  7973     14BE  30ED               	movlw	237
  7974     14BF  00A4               	movwf	??_SD_Init
  7975     14C0                     u9417:
  7976     14C0  0BA4               	decfsz	??_SD_Init,f
  7977     14C1  2CC0               	goto	u9417
  7978     14C2  0BA5               	decfsz	??_SD_Init+1,f
  7979     14C3  2CC0               	goto	u9417
  7980     14C4  2CC5               	nop2
  7981                           
  7982                           ;SD_SPI.c: 84:     }
  7983     14C5  3001               	movlw	1
  7984     14C6  1283               	bcf	3,5	;RP0=0, select bank0
  7985     14C7  1303               	bcf	3,6	;RP1=0, select bank0
  7986     14C8  07A8               	addwf	SD_Init@retry,f
  7987     14C9  1803               	skipnc
  7988     14CA  0AA9               	incf	SD_Init@retry+1,f
  7989     14CB  3000               	movlw	0
  7990     14CC  07A9               	addwf	SD_Init@retry+1,f
  7991     14CD  3003               	movlw	3
  7992     14CE  0229               	subwf	SD_Init@retry+1,w
  7993     14CF  30E8               	movlw	232
  7994     14D0  1903               	skipnz
  7995     14D1  0228               	subwf	SD_Init@retry,w
  7996     14D2  1C03               	skipc
  7997     14D3  2CD5               	goto	u8121
  7998     14D4  2CD6               	goto	u8120
  7999     14D5                     u8121:
  8000     14D5  2C98               	goto	l5458
  8001     14D6                     u8120:
  8002     14D6                     l5464:
  8003                           
  8004                           ;SD_SPI.c: 85:     if(retry >= 1000){ PORTBbits.RB5 = 1; return 0; }
  8005     14D6  3003               	movlw	3
  8006     14D7  1283               	bcf	3,5	;RP0=0, select bank0
  8007     14D8  1303               	bcf	3,6	;RP1=0, select bank0
  8008     14D9  0229               	subwf	SD_Init@retry+1,w
  8009     14DA  30E8               	movlw	232
  8010     14DB  1903               	skipnz
  8011     14DC  0228               	subwf	SD_Init@retry,w
  8012     14DD  1C03               	skipc
  8013     14DE  2CE0               	goto	u8131
  8014     14DF  2CE1               	goto	u8130
  8015     14E0                     u8131:
  8016     14E0  2CE3               	goto	l5472
  8017     14E1                     u8130:
  8018     14E1                     l5466:
  8019     14E1  1686               	bsf	6,5	;volatile
  8020     14E2  2C6D               	goto	l5432
  8021     14E3                     l5472:
  8022                           
  8023                           ;SD_SPI.c: 86:     if(SD_Cmd(0x10, 512) != 0x00){ PORTBbits.RB5 = 1; return 0; }
  8024     14E3  3000               	movlw	0
  8025     14E4  00F8               	movwf	SD_Cmd@arg+3
  8026     14E5  3000               	movlw	0
  8027     14E6  00F7               	movwf	SD_Cmd@arg+2
  8028     14E7  3002               	movlw	2
  8029     14E8  00F6               	movwf	SD_Cmd@arg+1
  8030     14E9  3000               	movlw	0
  8031     14EA  00F5               	movwf	SD_Cmd@arg
  8032     14EB  3010               	movlw	16
  8033     14EC  120A  158A  2006  160A  118A  	fcall	_SD_Cmd
  8034     14F1  3A00               	xorlw	0
  8035     14F2  1903               	skipnz
  8036     14F3  2CF5               	goto	u8141
  8037     14F4  2CF6               	goto	u8140
  8038     14F5                     u8141:
  8039     14F5  2CFA               	goto	l286
  8040     14F6                     u8140:
  8041     14F6                     l5474:
  8042     14F6  1283               	bcf	3,5	;RP0=0, select bank0
  8043     14F7  1303               	bcf	3,6	;RP1=0, select bank0
  8044     14F8  1686               	bsf	6,5	;volatile
  8045     14F9  2C6D               	goto	l5432
  8046     14FA                     l286:
  8047                           
  8048                           ;SD_SPI.c: 87:     PORTBbits.RB5 = 1;
  8049     14FA  1283               	bcf	3,5	;RP0=0, select bank0
  8050     14FB  1303               	bcf	3,6	;RP1=0, select bank0
  8051     14FC  1686               	bsf	6,5	;volatile
  8052     14FD                     l5480:
  8053                           
  8054                           ;SD_SPI.c: 88:     SD_SPI_Transfer(0xFF);
  8055     14FD  30FF               	movlw	255
  8056     14FE  160A  158A  2501  160A  118A  	fcall	_SD_SPI_Transfer
  8057     1503                     l5482:
  8058                           
  8059                           ;SD_SPI.c: 89:     current_sector = 100;
  8060     1503  3000               	movlw	0
  8061     1504  1683               	bsf	3,5	;RP0=1, select bank3
  8062     1505  1703               	bsf	3,6	;RP1=1, select bank3
  8063     1506  00E2               	movwf	(_current_sector+3)^(0+384)
  8064     1507  3000               	movlw	0
  8065     1508  00E1               	movwf	(_current_sector+2)^(0+384)
  8066     1509  3000               	movlw	0
  8067     150A  00E0               	movwf	(_current_sector+1)^(0+384)
  8068     150B  3064               	movlw	100
  8069     150C  00DF               	movwf	_current_sector^(0+384)
  8070     150D                     l5484:
  8071                           
  8072                           ;SD_SPI.c: 90:     current_offset = 0;
  8073     150D  1283               	bcf	3,5	;RP0=0, select bank0
  8074     150E  1303               	bcf	3,6	;RP1=0, select bank0
  8075     150F  01ED               	clrf	_current_offset
  8076     1510  01EE               	clrf	_current_offset+1
  8077     1511                     l5486:
  8078                           
  8079                           ;SD_SPI.c: 91:     return 1;
  8080     1511  3001               	movlw	1
  8081     1512                     l278:
  8082     1512  0008               	return
  8083     1513                     __end_of_SD_Init:
  8084                           
  8085                           	psect	text20
  8086     1B42                     __ptext20:	
  8087 ;; *************** function _SD_SPI_Init *****************
  8088 ;; Defined at:
  8089 ;;		line 10 in file "SD_SPI.c"
  8090 ;; Parameters:    Size  Location     Type
  8091 ;;		None
  8092 ;; Auto vars:     Size  Location     Type
  8093 ;;		None
  8094 ;; Return value:  Size  Location     Type
  8095 ;;                  1    wreg      void 
  8096 ;; Registers used:
  8097 ;;		None
  8098 ;; Tracked objects:
  8099 ;;		On entry : 0/0
  8100 ;;		On exit  : 0/0
  8101 ;;		Unchanged: 0/0
  8102 ;; Data sizes:     COMMON   BANK0   BANK1   BANK3   BANK2
  8103 ;;      Params:         0       0       0       0       0
  8104 ;;      Locals:         0       0       0       0       0
  8105 ;;      Temps:          0       0       0       0       0
  8106 ;;      Totals:         0       0       0       0       0
  8107 ;;Total ram usage:        0 bytes
  8108 ;; Hardware stack levels used: 1
  8109 ;; This function calls:
  8110 ;;		Nothing
  8111 ;; This function is called by:
  8112 ;;		_SD_Init
  8113 ;; This function uses a non-reentrant model
  8114 ;;
  8115                           
  8116     1B42                     _SD_SPI_Init:	
  8117                           ;psect for function _SD_SPI_Init
  8118                           
  8119     1B42                     l4956:	
  8120                           ;incstack = 0
  8121                           ; Regs used in _SD_SPI_Init: []
  8122                           
  8123                           
  8124                           ;SD_SPI.c: 11:     TRISBbits.TRISB5 = 0;
  8125     1B42  1683               	bsf	3,5	;RP0=1, select bank1
  8126     1B43  1303               	bcf	3,6	;RP1=0, select bank1
  8127     1B44  1286               	bcf	6,5	;volatile
  8128                           
  8129                           ;SD_SPI.c: 12:     TRISBbits.TRISB4 = 0;
  8130     1B45  1206               	bcf	6,4	;volatile
  8131                           
  8132                           ;SD_SPI.c: 13:     TRISBbits.TRISB3 = 0;
  8133     1B46  1186               	bcf	6,3	;volatile
  8134                           
  8135                           ;SD_SPI.c: 14:     TRISBbits.TRISB2 = 1;
  8136     1B47  1506               	bsf	6,2	;volatile
  8137                           
  8138                           ;SD_SPI.c: 15:     PORTBbits.RB5 = 1;
  8139     1B48  1283               	bcf	3,5	;RP0=0, select bank0
  8140     1B49  1303               	bcf	3,6	;RP1=0, select bank0
  8141     1B4A  1686               	bsf	6,5	;volatile
  8142                           
  8143                           ;SD_SPI.c: 16:     PORTBbits.RB4 = 0;
  8144     1B4B  1206               	bcf	6,4	;volatile
  8145                           
  8146                           ;SD_SPI.c: 17:     PORTBbits.RB3 = 1;
  8147     1B4C  1586               	bsf	6,3	;volatile
  8148     1B4D                     l252:
  8149     1B4D  0008               	return
  8150     1B4E                     __end_of_SD_SPI_Init:
  8151                           
  8152                           	psect	text21
  8153     1513                     __ptext21:	
  8154 ;; *************** function _SD_AppendText *****************
  8155 ;; Defined at:
  8156 ;;		line 94 in file "SD_SPI.c"
  8157 ;; Parameters:    Size  Location     Type
  8158 ;;  text            2    4[BANK0 ] PTR const unsigned char 
  8159 ;;		 -> main@line(45), STR_5(26), 
  8160 ;; Auto vars:     Size  Location     Type
  8161 ;;  i               2   14[BANK0 ] unsigned short 
  8162 ;;  len             2   11[BANK0 ] unsigned short 
  8163 ;;  j               2    9[BANK0 ] unsigned short 
  8164 ;;  resp            1   13[BANK0 ] unsigned char 
  8165 ;; Return value:  Size  Location     Type
  8166 ;;                  1    wreg      void 
  8167 ;; Registers used:
  8168 ;;		wreg, fsr0l, fsr0h, status,2, status,0, pclath, btemp1, cstack
  8169 ;; Tracked objects:
  8170 ;;		On entry : 0/0
  8171 ;;		On exit  : 0/0
  8172 ;;		Unchanged: 0/0
  8173 ;; Data sizes:     COMMON   BANK0   BANK1   BANK3   BANK2
  8174 ;;      Params:         0       2       0       0       0
  8175 ;;      Locals:         0       7       0       0       0
  8176 ;;      Temps:          0       3       0       0       0
  8177 ;;      Totals:         0      12       0       0       0
  8178 ;;Total ram usage:       12 bytes
  8179 ;; Hardware stack levels used: 1
  8180 ;; Hardware stack levels required when called: 2
  8181 ;; This function calls:
  8182 ;;		_SD_Cmd
  8183 ;;		_SD_SPI_Transfer
  8184 ;;		_strlen
  8185 ;; This function is called by:
  8186 ;;		_main
  8187 ;; This function uses a non-reentrant model
  8188 ;;
  8189                           
  8190     1513                     _SD_AppendText:	
  8191                           ;psect for function _SD_AppendText
  8192                           
  8193     1513                     l5490:	
  8194                           ;incstack = 0
  8195                           ; Regs used in _SD_AppendText: [wreg-fsr0h+status,2+status,0+pclath+btemp1+cstack]
  8196                           
  8197                           
  8198                           ;SD_SPI.c: 95:     uint16_t len = strlen(text);
  8199     1513  1283               	bcf	3,5	;RP0=0, select bank0
  8200     1514  1303               	bcf	3,6	;RP1=0, select bank0
  8201     1515  0824               	movf	SD_AppendText@text,w
  8202     1516  00F0               	movwf	strlen@s
  8203     1517  0825               	movf	SD_AppendText@text+1,w
  8204     1518  00F1               	movwf	strlen@s+1
  8205     1519  160A  158A  240C  160A  118A  	fcall	_strlen
  8206     151E  0871               	movf	?_strlen+1,w
  8207     151F  1283               	bcf	3,5	;RP0=0, select bank0
  8208     1520  1303               	bcf	3,6	;RP1=0, select bank0
  8209     1521  00AC               	movwf	SD_AppendText@len+1
  8210     1522  0870               	movf	?_strlen,w
  8211     1523  00AB               	movwf	SD_AppendText@len
  8212     1524                     l5492:
  8213                           
  8214                           ;SD_SPI.c: 96:     uint16_t i, j;;SD_SPI.c: 97:     uint8_t resp;;SD_SPI.c: 99:     if(c
      +                          urrent_offset + len > 512){
  8215     1524  082B               	movf	SD_AppendText@len,w
  8216     1525  076D               	addwf	_current_offset,w
  8217     1526  00A6               	movwf	??_SD_AppendText
  8218     1527  082C               	movf	SD_AppendText@len+1,w
  8219     1528  1803               	skipnc
  8220     1529  0A2C               	incf	SD_AppendText@len+1,w
  8221     152A  076E               	addwf	_current_offset+1,w
  8222     152B  00A7               	movwf	??_SD_AppendText+1
  8223     152C  3002               	movlw	2
  8224     152D  0227               	subwf	??_SD_AppendText+1,w
  8225     152E  3001               	movlw	1
  8226     152F  1903               	skipnz
  8227     1530  0226               	subwf	??_SD_AppendText,w
  8228     1531  1C03               	skipc
  8229     1532  2D34               	goto	u8151
  8230     1533  2D35               	goto	u8150
  8231     1534                     u8151:
  8232     1534  2D49               	goto	l5498
  8233     1535                     u8150:
  8234     1535                     l5494:
  8235                           
  8236                           ;SD_SPI.c: 100:         current_sector++;
  8237     1535  3001               	movlw	1
  8238     1536  1683               	bsf	3,5	;RP0=1, select bank3
  8239     1537  1703               	bsf	3,6	;RP1=1, select bank3
  8240     1538  07DF               	addwf	_current_sector^(0+384),f
  8241     1539  3000               	movlw	0
  8242     153A  1803               	skipnc
  8243     153B  3001               	movlw	1
  8244     153C  07E0               	addwf	(_current_sector+1)^(0+384),f
  8245     153D  3000               	movlw	0
  8246     153E  1803               	skipnc
  8247     153F  3001               	movlw	1
  8248     1540  07E1               	addwf	(_current_sector+2)^(0+384),f
  8249     1541  3000               	movlw	0
  8250     1542  1803               	skipnc
  8251     1543  3001               	movlw	1
  8252     1544  07E2               	addwf	(_current_sector+3)^(0+384),f
  8253     1545                     l5496:
  8254                           
  8255                           ;SD_SPI.c: 101:         current_offset = 0;
  8256     1545  1283               	bcf	3,5	;RP0=0, select bank0
  8257     1546  1303               	bcf	3,6	;RP1=0, select bank0
  8258     1547  01ED               	clrf	_current_offset
  8259     1548  01EE               	clrf	_current_offset+1
  8260     1549                     l5498:
  8261                           
  8262                           ;SD_SPI.c: 104:     PORTBbits.RB5 = 1;
  8263     1549  1686               	bsf	6,5	;volatile
  8264     154A                     l5500:
  8265                           
  8266                           ;SD_SPI.c: 105:     SD_SPI_Transfer(0xFF);
  8267     154A  30FF               	movlw	255
  8268     154B  160A  158A  2501  160A  118A  	fcall	_SD_SPI_Transfer
  8269     1550                     l5502:
  8270                           
  8271                           ;SD_SPI.c: 106:     _delay((unsigned long)((2)*(20000000/4000.0)));
  8272     1550  300D               	movlw	13
  8273     1551  1283               	bcf	3,5	;RP0=0, select bank0
  8274     1552  1303               	bcf	3,6	;RP1=0, select bank0
  8275     1553  00A7               	movwf	??_SD_AppendText+1
  8276     1554  30FB               	movlw	251
  8277     1555  00A6               	movwf	??_SD_AppendText
  8278     1556                     u9427:
  8279     1556  0BA6               	decfsz	??_SD_AppendText,f
  8280     1557  2D56               	goto	u9427
  8281     1558  0BA7               	decfsz	??_SD_AppendText+1,f
  8282     1559  2D56               	goto	u9427
  8283     155A                     l5504:
  8284                           
  8285                           ;SD_SPI.c: 107:     PORTBbits.RB5 = 0;
  8286     155A  1283               	bcf	3,5	;RP0=0, select bank0
  8287     155B  1303               	bcf	3,6	;RP1=0, select bank0
  8288     155C  1286               	bcf	6,5	;volatile
  8289     155D                     l5506:
  8290                           
  8291                           ;SD_SPI.c: 108:     _delay((unsigned long)((2)*(20000000/4000.0)));
  8292     155D  300D               	movlw	13
  8293     155E  1283               	bcf	3,5	;RP0=0, select bank0
  8294     155F  1303               	bcf	3,6	;RP1=0, select bank0
  8295     1560  00A7               	movwf	??_SD_AppendText+1
  8296     1561  30FB               	movlw	251
  8297     1562  00A6               	movwf	??_SD_AppendText
  8298     1563                     u9437:
  8299     1563  0BA6               	decfsz	??_SD_AppendText,f
  8300     1564  2D63               	goto	u9437
  8301     1565  0BA7               	decfsz	??_SD_AppendText+1,f
  8302     1566  2D63               	goto	u9437
  8303     1567                     l5508:
  8304                           
  8305                           ;SD_SPI.c: 110:     resp = SD_Cmd(0x18, current_sector);
  8306     1567  1683               	bsf	3,5	;RP0=1, select bank3
  8307     1568  1703               	bsf	3,6	;RP1=1, select bank3
  8308     1569  0862               	movf	(_current_sector+3)^(0+384),w
  8309     156A  00F8               	movwf	SD_Cmd@arg+3
  8310     156B  0861               	movf	(_current_sector+2)^(0+384),w
  8311     156C  00F7               	movwf	SD_Cmd@arg+2
  8312     156D  0860               	movf	(_current_sector+1)^(0+384),w
  8313     156E  00F6               	movwf	SD_Cmd@arg+1
  8314     156F  085F               	movf	_current_sector^(0+384),w
  8315     1570  00F5               	movwf	SD_Cmd@arg
  8316     1571  3018               	movlw	24
  8317     1572  120A  158A  2006  160A  118A  	fcall	_SD_Cmd
  8318     1577  1283               	bcf	3,5	;RP0=0, select bank0
  8319     1578  1303               	bcf	3,6	;RP1=0, select bank0
  8320     1579  00AD               	movwf	SD_AppendText@resp
  8321     157A                     l5510:
  8322                           
  8323                           ;SD_SPI.c: 111:     if(resp != 0x00){ PORTBbits.RB5 = 1; return; }
  8324     157A  082D               	movf	SD_AppendText@resp,w
  8325     157B  1903               	btfsc	3,2
  8326     157C  2D7E               	goto	u8161
  8327     157D  2D7F               	goto	u8160
  8328     157E                     u8161:
  8329     157E  2D81               	goto	l5514
  8330     157F                     u8160:
  8331     157F                     l5512:
  8332     157F  1686               	bsf	6,5	;volatile
  8333     1580  2E3F               	goto	l291
  8334     1581                     l5514:
  8335                           
  8336                           ;SD_SPI.c: 113:     _delay((unsigned long)((2)*(20000000/4000.0)));
  8337     1581  300D               	movlw	13
  8338     1582  1283               	bcf	3,5	;RP0=0, select bank0
  8339     1583  1303               	bcf	3,6	;RP1=0, select bank0
  8340     1584  00A7               	movwf	??_SD_AppendText+1
  8341     1585  30FB               	movlw	251
  8342     1586  00A6               	movwf	??_SD_AppendText
  8343     1587                     u9447:
  8344     1587  0BA6               	decfsz	??_SD_AppendText,f
  8345     1588  2D87               	goto	u9447
  8346     1589  0BA7               	decfsz	??_SD_AppendText+1,f
  8347     158A  2D87               	goto	u9447
  8348     158B                     l5516:
  8349                           
  8350                           ;SD_SPI.c: 114:     SD_SPI_Transfer(0xFE);
  8351     158B  30FE               	movlw	254
  8352     158C  160A  158A  2501  160A  118A  	fcall	_SD_SPI_Transfer
  8353     1591                     l5518:
  8354                           
  8355                           ;SD_SPI.c: 116:     for(i = 0; i < 512; i++){
  8356     1591  1283               	bcf	3,5	;RP0=0, select bank0
  8357     1592  1303               	bcf	3,6	;RP1=0, select bank0
  8358     1593  01AE               	clrf	SD_AppendText@i
  8359     1594  01AF               	clrf	SD_AppendText@i+1
  8360     1595                     l5524:
  8361                           
  8362                           ;SD_SPI.c: 117:         if(i >= current_offset && i < current_offset + len){
  8363     1595  086E               	movf	_current_offset+1,w
  8364     1596  022F               	subwf	SD_AppendText@i+1,w
  8365     1597  1D03               	skipz
  8366     1598  2D9B               	goto	u8175
  8367     1599  086D               	movf	_current_offset,w
  8368     159A  022E               	subwf	SD_AppendText@i,w
  8369     159B                     u8175:
  8370     159B  1C03               	skipc
  8371     159C  2D9E               	goto	u8171
  8372     159D  2D9F               	goto	u8170
  8373     159E                     u8171:
  8374     159E  2DCA               	goto	l5530
  8375     159F                     u8170:
  8376     159F                     l5526:
  8377     159F  082B               	movf	SD_AppendText@len,w
  8378     15A0  076D               	addwf	_current_offset,w
  8379     15A1  00A6               	movwf	??_SD_AppendText
  8380     15A2  082C               	movf	SD_AppendText@len+1,w
  8381     15A3  1803               	skipnc
  8382     15A4  0A2C               	incf	SD_AppendText@len+1,w
  8383     15A5  076E               	addwf	_current_offset+1,w
  8384     15A6  00A7               	movwf	??_SD_AppendText+1
  8385     15A7  0827               	movf	??_SD_AppendText+1,w
  8386     15A8  022F               	subwf	SD_AppendText@i+1,w
  8387     15A9  1D03               	skipz
  8388     15AA  2DAD               	goto	u8185
  8389     15AB  0826               	movf	??_SD_AppendText,w
  8390     15AC  022E               	subwf	SD_AppendText@i,w
  8391     15AD                     u8185:
  8392     15AD  1803               	skipnc
  8393     15AE  2DB0               	goto	u8181
  8394     15AF  2DB1               	goto	u8180
  8395     15B0                     u8181:
  8396     15B0  2DCA               	goto	l5530
  8397     15B1                     u8180:
  8398     15B1                     l5528:
  8399                           
  8400                           ;SD_SPI.c: 118:             SD_SPI_Transfer(text[i - current_offset]);
  8401     15B1  0825               	movf	SD_AppendText@text+1,w
  8402     15B2  00A7               	movwf	??_SD_AppendText+1
  8403     15B3  086D               	movf	_current_offset,w
  8404     15B4  0224               	subwf	SD_AppendText@text,w
  8405     15B5  00A6               	movwf	??_SD_AppendText
  8406     15B6  1C03               	skipc
  8407     15B7  03A7               	decf	??_SD_AppendText+1,f
  8408     15B8  082E               	movf	SD_AppendText@i,w
  8409     15B9  0726               	addwf	??_SD_AppendText,w
  8410     15BA  0084               	movwf	4
  8411     15BB  0827               	movf	??_SD_AppendText+1,w
  8412     15BC  1803               	skipnc
  8413     15BD  0A27               	incf	??_SD_AppendText+1,w
  8414     15BE  00FF               	movwf	btemp1
  8415     15BF  160A  158A  215F  160A  118A  	fcall	stringtab
  8416     15C4  160A  158A  2501  160A  118A  	fcall	_SD_SPI_Transfer
  8417                           
  8418                           ;SD_SPI.c: 119:         } else {
  8419     15C9  2DD0               	goto	l5532
  8420     15CA                     l5530:
  8421                           
  8422                           ;SD_SPI.c: 120:             SD_SPI_Transfer(0x00);
  8423     15CA  3000               	movlw	0
  8424     15CB  160A  158A  2501  160A  118A  	fcall	_SD_SPI_Transfer
  8425     15D0                     l5532:
  8426                           
  8427                           ;SD_SPI.c: 122:     }
  8428     15D0  3001               	movlw	1
  8429     15D1  1283               	bcf	3,5	;RP0=0, select bank0
  8430     15D2  1303               	bcf	3,6	;RP1=0, select bank0
  8431     15D3  07AE               	addwf	SD_AppendText@i,f
  8432     15D4  1803               	skipnc
  8433     15D5  0AAF               	incf	SD_AppendText@i+1,f
  8434     15D6  3000               	movlw	0
  8435     15D7  07AF               	addwf	SD_AppendText@i+1,f
  8436     15D8                     l5534:
  8437     15D8  3002               	movlw	2
  8438     15D9  022F               	subwf	SD_AppendText@i+1,w
  8439     15DA  3000               	movlw	0
  8440     15DB  1903               	skipnz
  8441     15DC  022E               	subwf	SD_AppendText@i,w
  8442     15DD  1C03               	skipc
  8443     15DE  2DE0               	goto	u8191
  8444     15DF  2DE1               	goto	u8190
  8445     15E0                     u8191:
  8446     15E0  2D95               	goto	l5524
  8447     15E1                     u8190:
  8448     15E1                     l5536:
  8449                           
  8450                           ;SD_SPI.c: 124:     SD_SPI_Transfer(0xFF);
  8451     15E1  30FF               	movlw	255
  8452     15E2  160A  158A  2501  160A  118A  	fcall	_SD_SPI_Transfer
  8453                           
  8454                           ;SD_SPI.c: 125:     SD_SPI_Transfer(0xFF);
  8455     15E7  30FF               	movlw	255
  8456     15E8  160A  158A  2501  160A  118A  	fcall	_SD_SPI_Transfer
  8457                           
  8458                           ;SD_SPI.c: 126:     resp = SD_SPI_Transfer(0xFF);
  8459     15ED  30FF               	movlw	255
  8460     15EE  160A  158A  2501  160A  118A  	fcall	_SD_SPI_Transfer
  8461     15F3  1283               	bcf	3,5	;RP0=0, select bank0
  8462     15F4  1303               	bcf	3,6	;RP1=0, select bank0
  8463     15F5  00AD               	movwf	SD_AppendText@resp
  8464     15F6                     l5538:
  8465                           
  8466                           ;SD_SPI.c: 127:     if((resp & 0x1F) != 0x05){ PORTBbits.RB5 = 1; return; }
  8467     15F6  301F               	movlw	31
  8468     15F7  052D               	andwf	SD_AppendText@resp,w
  8469     15F8  00A6               	movwf	??_SD_AppendText
  8470     15F9  3005               	movlw	5
  8471     15FA  0626               	xorwf	??_SD_AppendText,w
  8472     15FB  1903               	btfsc	3,2
  8473     15FC  2DFE               	goto	u8201
  8474     15FD  2DFF               	goto	u8200
  8475     15FE                     u8201:
  8476     15FE  2E01               	goto	l5542
  8477     15FF                     u8200:
  8478     15FF                     l5540:
  8479     15FF  1686               	bsf	6,5	;volatile
  8480     1600  2E3F               	goto	l291
  8481     1601                     l5542:
  8482                           
  8483                           ;SD_SPI.c: 129:     j = 0;
  8484     1601  01A9               	clrf	SD_AppendText@j
  8485     1602  01AA               	clrf	SD_AppendText@j+1
  8486                           
  8487                           ;SD_SPI.c: 130:     while(j < 65000){
  8488     1603  2E19               	goto	l297
  8489     1604                     l5544:
  8490                           
  8491                           ;SD_SPI.c: 131:         resp = SD_SPI_Transfer(0xFF);
  8492     1604  30FF               	movlw	255
  8493     1605  160A  158A  2501  160A  118A  	fcall	_SD_SPI_Transfer
  8494     160A  1283               	bcf	3,5	;RP0=0, select bank0
  8495     160B  1303               	bcf	3,6	;RP1=0, select bank0
  8496     160C  00AD               	movwf	SD_AppendText@resp
  8497     160D                     l5546:
  8498                           
  8499                           ;SD_SPI.c: 132:         if(resp == 0xFF) break;
  8500     160D  0A2D               	incf	SD_AppendText@resp,w
  8501     160E  1D03               	btfss	3,2
  8502     160F  2E11               	goto	u8211
  8503     1610  2E12               	goto	u8210
  8504     1611                     u8211:
  8505     1611  2E13               	goto	l5550
  8506     1612                     u8210:
  8507     1612  2E22               	goto	l300
  8508     1613                     l5550:
  8509                           
  8510                           ;SD_SPI.c: 133:         j++;
  8511     1613  3001               	movlw	1
  8512     1614  07A9               	addwf	SD_AppendText@j,f
  8513     1615  1803               	skipnc
  8514     1616  0AAA               	incf	SD_AppendText@j+1,f
  8515     1617  3000               	movlw	0
  8516     1618  07AA               	addwf	SD_AppendText@j+1,f
  8517     1619                     l297:	
  8518                           ;SD_SPI.c: 134:     }
  8519                           
  8520                           
  8521                           ;SD_SPI.c: 130:     while(j < 65000){
  8522     1619  30FD               	movlw	253
  8523     161A  022A               	subwf	SD_AppendText@j+1,w
  8524     161B  30E8               	movlw	232
  8525     161C  1903               	skipnz
  8526     161D  0229               	subwf	SD_AppendText@j,w
  8527     161E  1C03               	skipc
  8528     161F  2E21               	goto	u8221
  8529     1620  2E22               	goto	u8220
  8530     1621                     u8221:
  8531     1621  2E04               	goto	l5544
  8532     1622                     u8220:
  8533     1622                     l300:
  8534                           
  8535                           ;SD_SPI.c: 136:     PORTBbits.RB5 = 1;
  8536     1622  1686               	bsf	6,5	;volatile
  8537     1623                     l5552:
  8538                           
  8539                           ;SD_SPI.c: 137:     SD_SPI_Transfer(0xFF);
  8540     1623  30FF               	movlw	255
  8541     1624  160A  158A  2501  160A  118A  	fcall	_SD_SPI_Transfer
  8542     1629                     l5554:
  8543                           
  8544                           ;SD_SPI.c: 138:     _delay((unsigned long)((50)*(20000000/4000.0)));
  8545     1629  3002               	movlw	2
  8546     162A  1283               	bcf	3,5	;RP0=0, select bank0
  8547     162B  1303               	bcf	3,6	;RP1=0, select bank0
  8548     162C  00A8               	movwf	??_SD_AppendText+2
  8549     162D  3045               	movlw	69
  8550     162E  00A7               	movwf	??_SD_AppendText+1
  8551     162F  30A9               	movlw	169
  8552     1630  00A6               	movwf	??_SD_AppendText
  8553     1631                     u9457:
  8554     1631  0BA6               	decfsz	??_SD_AppendText,f
  8555     1632  2E31               	goto	u9457
  8556     1633  0BA7               	decfsz	??_SD_AppendText+1,f
  8557     1634  2E31               	goto	u9457
  8558     1635  0BA8               	decfsz	??_SD_AppendText+2,f
  8559     1636  2E31               	goto	u9457
  8560     1637                     l5556:
  8561                           
  8562                           ;SD_SPI.c: 140:     current_offset += len;
  8563     1637  1283               	bcf	3,5	;RP0=0, select bank0
  8564     1638  1303               	bcf	3,6	;RP1=0, select bank0
  8565     1639  082B               	movf	SD_AppendText@len,w
  8566     163A  07ED               	addwf	_current_offset,f
  8567     163B  1803               	skipnc
  8568     163C  0AEE               	incf	_current_offset+1,f
  8569     163D  082C               	movf	SD_AppendText@len+1,w
  8570     163E  07EE               	addwf	_current_offset+1,f
  8571     163F                     l291:
  8572     163F  0008               	return
  8573     1640                     __end_of_SD_AppendText:
  8574                           
  8575                           	psect	text22
  8576     1C0C                     __ptext22:	
  8577 ;; *************** function _strlen *****************
  8578 ;; Defined at:
  8579 ;;		line 5 in file "C:\Program Files\Microchip\xc8\v3.10\pic\sources\c99\common\strlen.c"
  8580 ;; Parameters:    Size  Location     Type
  8581 ;;  s               2    0[COMMON] PTR const unsigned char 
  8582 ;;		 -> main@line(45), STR_5(26), 
  8583 ;; Auto vars:     Size  Location     Type
  8584 ;;  a               2    2[COMMON] PTR const unsigned char 
  8585 ;;		 -> main@line(45), STR_5(26), 
  8586 ;; Return value:  Size  Location     Type
  8587 ;;                  2    0[COMMON] unsigned int 
  8588 ;; Registers used:
  8589 ;;		wreg, fsr0l, fsr0h, status,2, status,0, pclath, btemp1
  8590 ;; Tracked objects:
  8591 ;;		On entry : 0/0
  8592 ;;		On exit  : 0/0
  8593 ;;		Unchanged: 0/0
  8594 ;; Data sizes:     COMMON   BANK0   BANK1   BANK3   BANK2
  8595 ;;      Params:         2       0       0       0       0
  8596 ;;      Locals:         2       0       0       0       0
  8597 ;;      Temps:          0       0       0       0       0
  8598 ;;      Totals:         4       0       0       0       0
  8599 ;;Total ram usage:        4 bytes
  8600 ;; Hardware stack levels used: 2
  8601 ;; This function calls:
  8602 ;;		Nothing
  8603 ;; This function is called by:
  8604 ;;		_SD_AppendText
  8605 ;; This function uses a non-reentrant model
  8606 ;;
  8607                           
  8608     1C0C                     _strlen:	
  8609                           ;psect for function _strlen
  8610                           
  8611     1C0C                     l4992:	
  8612                           ;incstack = 0
  8613                           ; Regs used in _strlen: [wreg-fsr0h+status,2+status,0+pclath+btemp1]
  8614                           
  8615     1C0C  0870               	movf	strlen@s,w
  8616     1C0D  00F2               	movwf	strlen@a
  8617     1C0E  0871               	movf	strlen@s+1,w
  8618     1C0F  00F3               	movwf	strlen@a+1
  8619     1C10  2C17               	goto	l4996
  8620     1C11                     l4994:
  8621     1C11  3001               	movlw	1
  8622     1C12  07F0               	addwf	strlen@s,f
  8623     1C13  1803               	skipnc
  8624     1C14  0AF1               	incf	strlen@s+1,f
  8625     1C15  3000               	movlw	0
  8626     1C16  07F1               	addwf	strlen@s+1,f
  8627     1C17                     l4996:
  8628     1C17  0871               	movf	strlen@s+1,w
  8629     1C18  1283               	bcf	3,5	;RP0=0, select bank0
  8630     1C19  1303               	bcf	3,6	;RP1=0, select bank0
  8631     1C1A  00FF               	movwf	btemp1
  8632     1C1B  0870               	movf	strlen@s,w
  8633     1C1C  0084               	movwf	4
  8634     1C1D  160A  158A  215F  160A  158A  	fcall	stringtab
  8635     1C22  3A00               	xorlw	0
  8636     1C23  1D03               	skipz
  8637     1C24  2C26               	goto	u7221
  8638     1C25  2C27               	goto	u7220
  8639     1C26                     u7221:
  8640     1C26  2C11               	goto	l4994
  8641     1C27                     u7220:
  8642     1C27                     l4998:
  8643     1C27  0872               	movf	strlen@a,w
  8644     1C28  0270               	subwf	strlen@s,w
  8645     1C29  00F0               	movwf	?_strlen
  8646     1C2A  0873               	movf	strlen@a+1,w
  8647     1C2B  1C03               	skipc
  8648     1C2C  0A73               	incf	strlen@a+1,w
  8649     1C2D  0271               	subwf	strlen@s+1,w
  8650     1C2E  00F1               	movwf	?_strlen+1
  8651     1C2F                     l972:
  8652     1C2F  0008               	return
  8653     1C30                     __end_of_strlen:
  8654                           
  8655                           	psect	text23
  8656     0806                     __ptext23:	
  8657 ;; *************** function _SD_Cmd *****************
  8658 ;; Defined at:
  8659 ;;		line 34 in file "SD_SPI.c"
  8660 ;; Parameters:    Size  Location     Type
  8661 ;;  cmd             1    wreg     unsigned char 
  8662 ;;  arg             4    5[COMMON] unsigned long 
  8663 ;; Auto vars:     Size  Location     Type
  8664 ;;  cmd             1    3[BANK0 ] unsigned char 
  8665 ;;  i               1    2[BANK0 ] unsigned char 
  8666 ;;  r               1    1[BANK0 ] unsigned char 
  8667 ;;  crc             1    0[BANK0 ] unsigned char 
  8668 ;; Return value:  Size  Location     Type
  8669 ;;                  1    wreg      unsigned char 
  8670 ;; Registers used:
  8671 ;;		wreg, status,2, status,0, pclath, btemp1, cstack
  8672 ;; Tracked objects:
  8673 ;;		On entry : 0/0
  8674 ;;		On exit  : 0/0
  8675 ;;		Unchanged: 0/0
  8676 ;; Data sizes:     COMMON   BANK0   BANK1   BANK3   BANK2
  8677 ;;      Params:         4       0       0       0       0
  8678 ;;      Locals:         0       4       0       0       0
  8679 ;;      Temps:          4       0       0       0       0
  8680 ;;      Totals:         8       4       0       0       0
  8681 ;;Total ram usage:       12 bytes
  8682 ;; Hardware stack levels used: 1
  8683 ;; This function calls:
  8684 ;;		_SD_SPI_Transfer
  8685 ;; This function is called by:
  8686 ;;		_SD_Init
  8687 ;;		_SD_AppendText
  8688 ;;		_SD_CheckPresent
  8689 ;; This function uses a non-reentrant model
  8690 ;;
  8691                           
  8692     0806                     _SD_Cmd:	
  8693                           ;psect for function _SD_Cmd
  8694                           
  8695                           
  8696                           ;incstack = 0
  8697                           ; Regs used in _SD_Cmd: [wreg+status,2+status,0+pclath+btemp1+cstack]
  8698                           ;SD_Cmd@cmd stored from wreg
  8699     0806  1283               	bcf	3,5	;RP0=0, select bank0
  8700     0807  1303               	bcf	3,6	;RP1=0, select bank0
  8701     0808  00A3               	movwf	SD_Cmd@cmd
  8702     0809                     l4958:
  8703                           
  8704                           ;SD_SPI.c: 35:     uint8_t r, i, crc = 0xFF;
  8705     0809  30FF               	movlw	255
  8706     080A  00A0               	movwf	SD_Cmd@crc
  8707     080B                     l4960:
  8708                           
  8709                           ;SD_SPI.c: 36:     if(cmd == 0x00) crc = 0x95;
  8710     080B  0823               	movf	SD_Cmd@cmd,w
  8711     080C  1D03               	btfss	3,2
  8712     080D  280F               	goto	u7151
  8713     080E  2810               	goto	u7150
  8714     080F                     u7151:
  8715     080F  2812               	goto	l4964
  8716     0810                     u7150:
  8717     0810                     l4962:
  8718     0810  3095               	movlw	149
  8719     0811  00A0               	movwf	SD_Cmd@crc
  8720     0812                     l4964:
  8721                           
  8722                           ;SD_SPI.c: 37:     if(cmd == 0x08) crc = 0x87;
  8723     0812  3008               	movlw	8
  8724     0813  0623               	xorwf	SD_Cmd@cmd,w
  8725     0814  1D03               	btfss	3,2
  8726     0815  2817               	goto	u7161
  8727     0816  2818               	goto	u7160
  8728     0817                     u7161:
  8729     0817  281A               	goto	l4968
  8730     0818                     u7160:
  8731     0818                     l4966:
  8732     0818  3087               	movlw	135
  8733     0819  00A0               	movwf	SD_Cmd@crc
  8734     081A                     l4968:
  8735                           
  8736                           ;SD_SPI.c: 38:     SD_SPI_Transfer(0xFF);
  8737     081A  30FF               	movlw	255
  8738     081B  160A  158A  2501  120A  158A  	fcall	_SD_SPI_Transfer
  8739                           
  8740                           ;SD_SPI.c: 39:     SD_SPI_Transfer(cmd | 0x40);
  8741     0820  1283               	bcf	3,5	;RP0=0, select bank0
  8742     0821  1303               	bcf	3,6	;RP1=0, select bank0
  8743     0822  0823               	movf	SD_Cmd@cmd,w
  8744     0823  3840               	iorlw	64
  8745     0824  160A  158A  2501  120A  158A  	fcall	_SD_SPI_Transfer
  8746                           
  8747                           ;SD_SPI.c: 40:     SD_SPI_Transfer((uint8_t)(arg >> 24));
  8748     0829  0875               	movf	SD_Cmd@arg,w
  8749     082A  00F9               	movwf	??_SD_Cmd
  8750     082B  0876               	movf	SD_Cmd@arg+1,w
  8751     082C  00FA               	movwf	??_SD_Cmd+1
  8752     082D  0877               	movf	SD_Cmd@arg+2,w
  8753     082E  00FB               	movwf	??_SD_Cmd+2
  8754     082F  0878               	movf	SD_Cmd@arg+3,w
  8755     0830  00FC               	movwf	??_SD_Cmd+3
  8756     0831  3018               	movlw	24
  8757     0832                     u7175:
  8758     0832  1003               	clrc
  8759     0833  0CFC               	rrf	??_SD_Cmd+3,f
  8760     0834  0CFB               	rrf	??_SD_Cmd+2,f
  8761     0835  0CFA               	rrf	??_SD_Cmd+1,f
  8762     0836  0CF9               	rrf	??_SD_Cmd,f
  8763     0837                     u7170:
  8764     0837  3EFF               	addlw	-1
  8765     0838  1D03               	skipz
  8766     0839  2832               	goto	u7175
  8767     083A  0879               	movf	??_SD_Cmd,w
  8768     083B  160A  158A  2501  120A  158A  	fcall	_SD_SPI_Transfer
  8769                           
  8770                           ;SD_SPI.c: 41:     SD_SPI_Transfer((uint8_t)(arg >> 16));
  8771     0840  0875               	movf	SD_Cmd@arg,w
  8772     0841  00F9               	movwf	??_SD_Cmd
  8773     0842  0876               	movf	SD_Cmd@arg+1,w
  8774     0843  00FA               	movwf	??_SD_Cmd+1
  8775     0844  0877               	movf	SD_Cmd@arg+2,w
  8776     0845  00FB               	movwf	??_SD_Cmd+2
  8777     0846  0878               	movf	SD_Cmd@arg+3,w
  8778     0847  00FC               	movwf	??_SD_Cmd+3
  8779     0848  3010               	movlw	16
  8780     0849                     u7185:
  8781     0849  1003               	clrc
  8782     084A  0CFC               	rrf	??_SD_Cmd+3,f
  8783     084B  0CFB               	rrf	??_SD_Cmd+2,f
  8784     084C  0CFA               	rrf	??_SD_Cmd+1,f
  8785     084D  0CF9               	rrf	??_SD_Cmd,f
  8786     084E                     u7180:
  8787     084E  3EFF               	addlw	-1
  8788     084F  1D03               	skipz
  8789     0850  2849               	goto	u7185
  8790     0851  0879               	movf	??_SD_Cmd,w
  8791     0852  160A  158A  2501  120A  158A  	fcall	_SD_SPI_Transfer
  8792                           
  8793                           ;SD_SPI.c: 42:     SD_SPI_Transfer((uint8_t)(arg >> 8));
  8794     0857  0875               	movf	SD_Cmd@arg,w
  8795     0858  00F9               	movwf	??_SD_Cmd
  8796     0859  0876               	movf	SD_Cmd@arg+1,w
  8797     085A  00FA               	movwf	??_SD_Cmd+1
  8798     085B  0877               	movf	SD_Cmd@arg+2,w
  8799     085C  00FB               	movwf	??_SD_Cmd+2
  8800     085D  0878               	movf	SD_Cmd@arg+3,w
  8801     085E  00FC               	movwf	??_SD_Cmd+3
  8802     085F  3008               	movlw	8
  8803     0860                     u7195:
  8804     0860  1003               	clrc
  8805     0861  0CFC               	rrf	??_SD_Cmd+3,f
  8806     0862  0CFB               	rrf	??_SD_Cmd+2,f
  8807     0863  0CFA               	rrf	??_SD_Cmd+1,f
  8808     0864  0CF9               	rrf	??_SD_Cmd,f
  8809     0865                     u7190:
  8810     0865  3EFF               	addlw	-1
  8811     0866  1D03               	skipz
  8812     0867  2860               	goto	u7195
  8813     0868  0879               	movf	??_SD_Cmd,w
  8814     0869  160A  158A  2501  120A  158A  	fcall	_SD_SPI_Transfer
  8815                           
  8816                           ;SD_SPI.c: 43:     SD_SPI_Transfer((uint8_t)arg);
  8817     086E  0875               	movf	SD_Cmd@arg,w
  8818     086F  160A  158A  2501  120A  158A  	fcall	_SD_SPI_Transfer
  8819                           
  8820                           ;SD_SPI.c: 44:     SD_SPI_Transfer(crc);
  8821     0874  1283               	bcf	3,5	;RP0=0, select bank0
  8822     0875  1303               	bcf	3,6	;RP1=0, select bank0
  8823     0876  0820               	movf	SD_Cmd@crc,w
  8824     0877  160A  158A  2501  120A  158A  	fcall	_SD_SPI_Transfer
  8825     087C                     l4970:
  8826                           
  8827                           ;SD_SPI.c: 45:     for(i = 0; i < 10; i++){
  8828     087C  1283               	bcf	3,5	;RP0=0, select bank0
  8829     087D  1303               	bcf	3,6	;RP1=0, select bank0
  8830     087E  01A2               	clrf	SD_Cmd@i
  8831     087F                     l4976:
  8832                           
  8833                           ;SD_SPI.c: 46:         r = SD_SPI_Transfer(0xFF);
  8834     087F  30FF               	movlw	255
  8835     0880  160A  158A  2501  120A  158A  	fcall	_SD_SPI_Transfer
  8836     0885  1283               	bcf	3,5	;RP0=0, select bank0
  8837     0886  1303               	bcf	3,6	;RP1=0, select bank0
  8838     0887  00A1               	movwf	SD_Cmd@r
  8839     0888                     l4978:
  8840                           
  8841                           ;SD_SPI.c: 47:         if(!(r & 0x80)) return r;
  8842     0888  1BA1               	btfsc	SD_Cmd@r,7
  8843     0889  288B               	goto	u7201
  8844     088A  288C               	goto	u7200
  8845     088B                     u7201:
  8846     088B  288E               	goto	l4984
  8847     088C                     u7200:
  8848     088C                     l4980:
  8849     088C  0821               	movf	SD_Cmd@r,w
  8850     088D  2897               	goto	l266
  8851     088E                     l4984:
  8852                           
  8853                           ;SD_SPI.c: 48:     }
  8854     088E  3001               	movlw	1
  8855     088F  07A2               	addwf	SD_Cmd@i,f
  8856     0890                     l4986:
  8857     0890  300A               	movlw	10
  8858     0891  0222               	subwf	SD_Cmd@i,w
  8859     0892  1C03               	skipc
  8860     0893  2895               	goto	u7211
  8861     0894  2896               	goto	u7210
  8862     0895                     u7211:
  8863     0895  287F               	goto	l4976
  8864     0896                     u7210:
  8865     0896                     l4988:
  8866                           
  8867                           ;SD_SPI.c: 49:     return 0xFF;
  8868     0896  30FF               	movlw	255
  8869     0897                     l266:
  8870     0897  0008               	return
  8871     0898                     __end_of_SD_Cmd:
  8872                           
  8873                           	psect	text24
  8874     1D01                     __ptext24:	
  8875 ;; *************** function _SD_SPI_Transfer *****************
  8876 ;; Defined at:
  8877 ;;		line 20 in file "SD_SPI.c"
  8878 ;; Parameters:    Size  Location     Type
  8879 ;;  data            1    wreg     unsigned char 
  8880 ;; Auto vars:     Size  Location     Type
  8881 ;;  data            1    2[COMMON] unsigned char 
  8882 ;;  i               1    4[COMMON] unsigned char 
  8883 ;;  result          1    3[COMMON] unsigned char 
  8884 ;; Return value:  Size  Location     Type
  8885 ;;                  1    wreg      unsigned char 
  8886 ;; Registers used:
  8887 ;;		wreg, status,2, status,0, btemp1
  8888 ;; Tracked objects:
  8889 ;;		On entry : 0/0
  8890 ;;		On exit  : 0/0
  8891 ;;		Unchanged: 0/0
  8892 ;; Data sizes:     COMMON   BANK0   BANK1   BANK3   BANK2
  8893 ;;      Params:         0       0       0       0       0
  8894 ;;      Locals:         3       0       0       0       0
  8895 ;;      Temps:          2       0       0       0       0
  8896 ;;      Totals:         5       0       0       0       0
  8897 ;;Total ram usage:        5 bytes
  8898 ;; Hardware stack levels used: 1
  8899 ;; This function calls:
  8900 ;;		Nothing
  8901 ;; This function is called by:
  8902 ;;		_SD_Cmd
  8903 ;;		_SD_Init
  8904 ;;		_SD_AppendText
  8905 ;;		_SD_CheckPresent
  8906 ;; This function uses a non-reentrant model
  8907 ;;
  8908                           
  8909     1D01                     _SD_SPI_Transfer:	
  8910                           ;psect for function _SD_SPI_Transfer
  8911                           
  8912                           
  8913                           ;incstack = 0
  8914                           ; Regs used in _SD_SPI_Transfer: [wreg+status,2+status,0+btemp1]
  8915                           ;SD_SPI_Transfer@data stored from wreg
  8916     1D01  00F2               	movwf	SD_SPI_Transfer@data
  8917     1D02                     l4788:
  8918                           
  8919                           ;SD_SPI.c: 21:     uint8_t i, result = 0;
  8920     1D02  01F3               	clrf	SD_SPI_Transfer@result
  8921                           
  8922                           ;SD_SPI.c: 22:     for(i = 0; i < 8; i++){
  8923     1D03  01F4               	clrf	SD_SPI_Transfer@i
  8924     1D04                     l255:
  8925                           
  8926                           ;SD_SPI.c: 23:         PORTBbits.RB3 = (data & 0x80) ? 1 : 0;
  8927     1D04  1BF2               	btfsc	SD_SPI_Transfer@data,7
  8928     1D05  2D07               	goto	u6931
  8929     1D06  2D0B               	goto	u6930
  8930     1D07                     u6931:
  8931     1D07  1283               	bcf	3,5	;RP0=0, select bank0
  8932     1D08  1303               	bcf	3,6	;RP1=0, select bank0
  8933     1D09  1586               	bsf	6,3	;volatile
  8934     1D0A  2D0E               	goto	u6944
  8935     1D0B                     u6930:
  8936     1D0B  1283               	bcf	3,5	;RP0=0, select bank0
  8937     1D0C  1303               	bcf	3,6	;RP1=0, select bank0
  8938     1D0D  1186               	bcf	6,3	;volatile
  8939     1D0E                     u6944:
  8940     1D0E                     l4794:
  8941                           
  8942                           ;SD_SPI.c: 24:         data <<= 1;
  8943     1D0E  1003               	clrc
  8944     1D0F  0DF2               	rlf	SD_SPI_Transfer@data,f
  8945     1D10                     l4796:
  8946                           
  8947                           ;SD_SPI.c: 25:         PORTBbits.RB4 = 1;
  8948     1D10  1606               	bsf	6,4	;volatile
  8949                           
  8950                           ;SD_SPI.c: 26:         _delay((unsigned long)((2)*(20000000/4000000.0)));
  8951     1D11  3003               	movlw	3
  8952     1D12  00F0               	movwf	??_SD_SPI_Transfer
  8953     1D13                     u9467:
  8954     1D13  0BF0               	decfsz	??_SD_SPI_Transfer,f
  8955     1D14  2D13               	goto	u9467
  8956     1D15                     l4798:
  8957                           
  8958                           ;SD_SPI.c: 27:         if(PORTBbits.RB2) result |= (0x80 >> i);
  8959     1D15  1283               	bcf	3,5	;RP0=0, select bank0
  8960     1D16  1303               	bcf	3,6	;RP1=0, select bank0
  8961     1D17  1D06               	btfss	6,2	;volatile
  8962     1D18  2D1A               	goto	u6951
  8963     1D19  2D1B               	goto	u6950
  8964     1D1A                     u6951:
  8965     1D1A  2D29               	goto	l4802
  8966     1D1B                     u6950:
  8967     1D1B                     l4800:
  8968     1D1B  0A74               	incf	SD_SPI_Transfer@i,w
  8969     1D1C  00FF               	movwf	btemp1
  8970     1D1D  3080               	movlw	128
  8971     1D1E  00F0               	movwf	??_SD_SPI_Transfer
  8972     1D1F  3000               	movlw	0
  8973     1D20  00F1               	movwf	??_SD_SPI_Transfer+1
  8974     1D21  2D25               	goto	u6964
  8975     1D22                     u6965:
  8976     1D22  0D71               	rlf	??_SD_SPI_Transfer+1,w
  8977     1D23  0CF1               	rrf	??_SD_SPI_Transfer+1,f
  8978     1D24  0CF0               	rrf	??_SD_SPI_Transfer,f
  8979     1D25                     u6964:
  8980     1D25  0BFF               	decfsz	btemp1,f
  8981     1D26  2D22               	goto	u6965
  8982     1D27  0870               	movf	??_SD_SPI_Transfer,w
  8983     1D28  04F3               	iorwf	SD_SPI_Transfer@result,f
  8984     1D29                     l4802:
  8985                           
  8986                           ;SD_SPI.c: 28:         PORTBbits.RB4 = 0;
  8987     1D29  1283               	bcf	3,5	;RP0=0, select bank0
  8988     1D2A  1303               	bcf	3,6	;RP1=0, select bank0
  8989     1D2B  1206               	bcf	6,4	;volatile
  8990     1D2C                     l4804:
  8991                           
  8992                           ;SD_SPI.c: 29:         _delay((unsigned long)((2)*(20000000/4000000.0)));
  8993     1D2C  3003               	movlw	3
  8994     1D2D  00F0               	movwf	??_SD_SPI_Transfer
  8995     1D2E                     u9477:
  8996     1D2E  0BF0               	decfsz	??_SD_SPI_Transfer,f
  8997     1D2F  2D2E               	goto	u9477
  8998     1D30                     l4806:
  8999                           
  9000                           ;SD_SPI.c: 30:     }
  9001     1D30  3001               	movlw	1
  9002     1D31  07F4               	addwf	SD_SPI_Transfer@i,f
  9003     1D32                     l4808:
  9004     1D32  3008               	movlw	8
  9005     1D33  0274               	subwf	SD_SPI_Transfer@i,w
  9006     1D34  1C03               	skipc
  9007     1D35  2D37               	goto	u6971
  9008     1D36  2D38               	goto	u6970
  9009     1D37                     u6971:
  9010     1D37  2D04               	goto	l255
  9011     1D38                     u6970:
  9012     1D38                     l4810:
  9013                           
  9014                           ;SD_SPI.c: 31:     return result;
  9015     1D38  0873               	movf	SD_SPI_Transfer@result,w
  9016     1D39                     l258:
  9017     1D39  0008               	return
  9018     1D3A                     __end_of_SD_SPI_Transfer:
  9019                           
  9020                           	psect	text25
  9021     1C55                     __ptext25:	
  9022 ;; *************** function _LCD_print *****************
  9023 ;; Defined at:
  9024 ;;		line 69 in file "lcd.c"
  9025 ;; Parameters:    Size  Location     Type
  9026 ;;  s               2    5[COMMON] PTR const unsigned char 
  9027 ;;		 -> STR_19(16), STR_16(16), STR_15(17), STR_14(17), 
  9028 ;;		 -> STR_12(16), main@buf(17), STR_8(11), STR_7(13), 
  9029 ;;		 -> STR_6(10), STR_4(7), STR_3(16), STR_2(14), 
  9030 ;;		 -> STR_1(17), 
  9031 ;; Auto vars:     Size  Location     Type
  9032 ;;		None
  9033 ;; Return value:  Size  Location     Type
  9034 ;;                  1    wreg      void 
  9035 ;; Registers used:
  9036 ;;		wreg, fsr0l, fsr0h, status,2, status,0, pclath, btemp1, cstack
  9037 ;; Tracked objects:
  9038 ;;		On entry : 0/0
  9039 ;;		On exit  : 0/0
  9040 ;;		Unchanged: 0/0
  9041 ;; Data sizes:     COMMON   BANK0   BANK1   BANK3   BANK2
  9042 ;;      Params:         2       0       0       0       0
  9043 ;;      Locals:         0       0       0       0       0
  9044 ;;      Temps:          0       0       0       0       0
  9045 ;;      Totals:         2       0       0       0       0
  9046 ;;Total ram usage:        2 bytes
  9047 ;; Hardware stack levels used: 1
  9048 ;; Hardware stack levels required when called: 2
  9049 ;; This function calls:
  9050 ;;		_LCD_data
  9051 ;; This function is called by:
  9052 ;;		_main
  9053 ;; This function uses a non-reentrant model
  9054 ;;
  9055                           
  9056     1C55                     _LCD_print:	
  9057                           ;psect for function _LCD_print
  9058                           
  9059     1C55                     l5390:	
  9060                           ;incstack = 0
  9061                           ; Regs used in _LCD_print: [wreg-fsr0h+status,2+status,0+pclath+btemp1+cstack]
  9062                           
  9063                           
  9064                           ;lcd.c: 70:     while(*s) LCD_data(*s++);
  9065     1C55  2C6A               	goto	l5396
  9066     1C56                     l5392:
  9067     1C56  0876               	movf	LCD_print@s+1,w
  9068     1C57  00FF               	movwf	btemp1
  9069     1C58  0875               	movf	LCD_print@s,w
  9070     1C59  0084               	movwf	4
  9071     1C5A  160A  158A  215F  160A  158A  	fcall	stringtab
  9072     1C5F  160A  158A  23C5  160A  158A  	fcall	_LCD_data
  9073     1C64                     l5394:
  9074     1C64  3001               	movlw	1
  9075     1C65  07F5               	addwf	LCD_print@s,f
  9076     1C66  1803               	skipnc
  9077     1C67  0AF6               	incf	LCD_print@s+1,f
  9078     1C68  3000               	movlw	0
  9079     1C69  07F6               	addwf	LCD_print@s+1,f
  9080     1C6A                     l5396:
  9081     1C6A  0876               	movf	LCD_print@s+1,w
  9082     1C6B  1283               	bcf	3,5	;RP0=0, select bank0
  9083     1C6C  1303               	bcf	3,6	;RP1=0, select bank0
  9084     1C6D  00FF               	movwf	btemp1
  9085     1C6E  0875               	movf	LCD_print@s,w
  9086     1C6F  0084               	movwf	4
  9087     1C70  160A  158A  215F  160A  158A  	fcall	stringtab
  9088     1C75  3A00               	xorlw	0
  9089     1C76  1D03               	skipz
  9090     1C77  2C79               	goto	u8041
  9091     1C78  2C7A               	goto	u8040
  9092     1C79                     u8041:
  9093     1C79  2C56               	goto	l5392
  9094     1C7A                     u8040:
  9095     1C7A                     l132:
  9096     1C7A  0008               	return
  9097     1C7B                     __end_of_LCD_print:
  9098                           
  9099                           	psect	text26
  9100     1BC5                     __ptext26:	
  9101 ;; *************** function _LCD_data *****************
  9102 ;; Defined at:
  9103 ;;		line 33 in file "lcd.c"
  9104 ;; Parameters:    Size  Location     Type
  9105 ;;  data            1    wreg     unsigned char 
  9106 ;; Auto vars:     Size  Location     Type
  9107 ;;  data            1    4[COMMON] unsigned char 
  9108 ;; Return value:  Size  Location     Type
  9109 ;;                  1    wreg      void 
  9110 ;; Registers used:
  9111 ;;		wreg, status,2, status,0, pclath, cstack
  9112 ;; Tracked objects:
  9113 ;;		On entry : 0/0
  9114 ;;		On exit  : 0/0
  9115 ;;		Unchanged: 0/0
  9116 ;; Data sizes:     COMMON   BANK0   BANK1   BANK3   BANK2
  9117 ;;      Params:         0       0       0       0       0
  9118 ;;      Locals:         1       0       0       0       0
  9119 ;;      Temps:          2       0       0       0       0
  9120 ;;      Totals:         3       0       0       0       0
  9121 ;;Total ram usage:        3 bytes
  9122 ;; Hardware stack levels used: 1
  9123 ;; Hardware stack levels required when called: 1
  9124 ;; This function calls:
  9125 ;;		_LCD_nibble
  9126 ;; This function is called by:
  9127 ;;		_LCD_print
  9128 ;; This function uses a non-reentrant model
  9129 ;;
  9130                           
  9131     1BC5                     _LCD_data:	
  9132                           ;psect for function _LCD_data
  9133                           
  9134                           
  9135                           ;incstack = 0
  9136                           ; Regs used in _LCD_data: [wreg+status,2+status,0+pclath+cstack]
  9137                           ;LCD_data@data stored from wreg
  9138     1BC5  00F4               	movwf	LCD_data@data
  9139     1BC6                     l4920:
  9140                           
  9141                           ;lcd.c: 34:     RC5 = 1;
  9142     1BC6  1283               	bcf	3,5	;RP0=0, select bank0
  9143     1BC7  1303               	bcf	3,6	;RP1=0, select bank0
  9144     1BC8  1687               	bsf	7,5	;volatile
  9145     1BC9                     l4922:
  9146                           
  9147                           ;lcd.c: 35:     LCD_nibble(data >> 4);
  9148     1BC9  0874               	movf	LCD_data@data,w
  9149     1BCA  00F2               	movwf	??_LCD_data
  9150     1BCB  3004               	movlw	4
  9151     1BCC                     u7115:
  9152     1BCC  1003               	clrc
  9153     1BCD  0CF2               	rrf	??_LCD_data,f
  9154     1BCE  3EFF               	addlw	-1
  9155     1BCF  1D03               	skipz
  9156     1BD0  2BCC               	goto	u7115
  9157     1BD1  0872               	movf	??_LCD_data,w
  9158     1BD2  160A  158A  2607  160A  158A  	fcall	_LCD_nibble
  9159                           
  9160                           ;lcd.c: 36:     LCD_nibble(data & 0x0F);
  9161     1BD7  0874               	movf	LCD_data@data,w
  9162     1BD8  390F               	andlw	15
  9163     1BD9  160A  158A  2607  160A  158A  	fcall	_LCD_nibble
  9164     1BDE                     l4924:
  9165                           
  9166                           ;lcd.c: 37:     _delay((unsigned long)((2)*(20000000/4000.0)));
  9167     1BDE  300D               	movlw	13
  9168     1BDF  00F3               	movwf	??_LCD_data+1
  9169     1BE0  30FB               	movlw	251
  9170     1BE1  00F2               	movwf	??_LCD_data
  9171     1BE2                     u9487:
  9172     1BE2  0BF2               	decfsz	??_LCD_data,f
  9173     1BE3  2BE2               	goto	u9487
  9174     1BE4  0BF3               	decfsz	??_LCD_data+1,f
  9175     1BE5  2BE2               	goto	u9487
  9176     1BE6  2BE7               	nop2
  9177     1BE7                     l120:
  9178     1BE7  0008               	return
  9179     1BE8                     __end_of_LCD_data:
  9180                           
  9181                           	psect	text27
  9182     102B                     __ptext27:	
  9183 ;; *************** function _LCD_init *****************
  9184 ;; Defined at:
  9185 ;;		line 40 in file "lcd.c"
  9186 ;; Parameters:    Size  Location     Type
  9187 ;;		None
  9188 ;; Auto vars:     Size  Location     Type
  9189 ;;		None
  9190 ;; Return value:  Size  Location     Type
  9191 ;;                  1    wreg      void 
  9192 ;; Registers used:
  9193 ;;		wreg, status,2, status,0, pclath, cstack
  9194 ;; Tracked objects:
  9195 ;;		On entry : 0/0
  9196 ;;		On exit  : 0/0
  9197 ;;		Unchanged: 0/0
  9198 ;; Data sizes:     COMMON   BANK0   BANK1   BANK3   BANK2
  9199 ;;      Params:         0       0       0       0       0
  9200 ;;      Locals:         0       0       0       0       0
  9201 ;;      Temps:          2       0       0       0       0
  9202 ;;      Totals:         2       0       0       0       0
  9203 ;;Total ram usage:        2 bytes
  9204 ;; Hardware stack levels used: 1
  9205 ;; Hardware stack levels required when called: 1
  9206 ;; This function calls:
  9207 ;;		_LCD_cmd
  9208 ;;		_LCD_nibble
  9209 ;; This function is called by:
  9210 ;;		_main
  9211 ;; This function uses a non-reentrant model
  9212 ;;
  9213                           
  9214     102B                     _LCD_init:	
  9215                           ;psect for function _LCD_init
  9216                           
  9217     102B                     l5340:	
  9218                           ;incstack = 0
  9219                           ; Regs used in _LCD_init: [wreg+status,2+status,0+pclath+cstack]
  9220                           
  9221                           
  9222                           ;lcd.c: 42:     TRISCbits.TRISC5 = 0;
  9223     102B  1683               	bsf	3,5	;RP0=1, select bank1
  9224     102C  1303               	bcf	3,6	;RP1=0, select bank1
  9225     102D  1287               	bcf	7,5	;volatile
  9226                           
  9227                           ;lcd.c: 43:     TRISCbits.TRISC6 = 0;
  9228     102E  1307               	bcf	7,6	;volatile
  9229                           
  9230                           ;lcd.c: 44:     TRISDbits.TRISD4 = 0;
  9231     102F  1208               	bcf	8,4	;volatile
  9232                           
  9233                           ;lcd.c: 45:     TRISDbits.TRISD5 = 0;
  9234     1030  1288               	bcf	8,5	;volatile
  9235                           
  9236                           ;lcd.c: 46:     TRISDbits.TRISD6 = 0;
  9237     1031  1308               	bcf	8,6	;volatile
  9238                           
  9239                           ;lcd.c: 47:     TRISDbits.TRISD7 = 0;
  9240     1032  1388               	bcf	8,7	;volatile
  9241                           
  9242                           ;lcd.c: 49:     RC5 = 0;
  9243     1033  1283               	bcf	3,5	;RP0=0, select bank0
  9244     1034  1303               	bcf	3,6	;RP1=0, select bank0
  9245     1035  1287               	bcf	7,5	;volatile
  9246                           
  9247                           ;lcd.c: 50:     RC6 = 0;
  9248     1036  1307               	bcf	7,6	;volatile
  9249     1037                     l5342:
  9250                           
  9251                           ;lcd.c: 51:     _delay((unsigned long)((20)*(20000000/4000.0)));
  9252     1037  3082               	movlw	130
  9253     1038  00F6               	movwf	??_LCD_init+1
  9254     1039  30DD               	movlw	221
  9255     103A  00F5               	movwf	??_LCD_init
  9256     103B                     u9497:
  9257     103B  0BF5               	decfsz	??_LCD_init,f
  9258     103C  283B               	goto	u9497
  9259     103D  0BF6               	decfsz	??_LCD_init+1,f
  9260     103E  283B               	goto	u9497
  9261     103F  2840               	nop2
  9262     1040                     l5344:
  9263                           
  9264                           ;lcd.c: 53:     LCD_nibble(0x03); _delay((unsigned long)((5)*(20000000/4000.0)));
  9265     1040  3003               	movlw	3
  9266     1041  160A  158A  2607  160A  118A  	fcall	_LCD_nibble
  9267     1046                     l5346:
  9268     1046  3021               	movlw	33
  9269     1047  00F6               	movwf	??_LCD_init+1
  9270     1048  3076               	movlw	118
  9271     1049  00F5               	movwf	??_LCD_init
  9272     104A                     u9507:
  9273     104A  0BF5               	decfsz	??_LCD_init,f
  9274     104B  284A               	goto	u9507
  9275     104C  0BF6               	decfsz	??_LCD_init+1,f
  9276     104D  284A               	goto	u9507
  9277     104E  0000               	nop
  9278                           
  9279                           ;lcd.c: 54:     LCD_nibble(0x03); _delay((unsigned long)((5)*(20000000/4000.0)));
  9280     104F  3003               	movlw	3
  9281     1050  160A  158A  2607  160A  118A  	fcall	_LCD_nibble
  9282     1055                     l5348:
  9283     1055  3021               	movlw	33
  9284     1056  00F6               	movwf	??_LCD_init+1
  9285     1057  3076               	movlw	118
  9286     1058  00F5               	movwf	??_LCD_init
  9287     1059                     u9517:
  9288     1059  0BF5               	decfsz	??_LCD_init,f
  9289     105A  2859               	goto	u9517
  9290     105B  0BF6               	decfsz	??_LCD_init+1,f
  9291     105C  2859               	goto	u9517
  9292     105D  0000               	nop
  9293     105E                     l5350:
  9294                           
  9295                           ;lcd.c: 55:     LCD_nibble(0x03); _delay((unsigned long)((5)*(20000000/4000.0)));
  9296     105E  3003               	movlw	3
  9297     105F  160A  158A  2607  160A  118A  	fcall	_LCD_nibble
  9298     1064  3021               	movlw	33
  9299     1065  00F6               	movwf	??_LCD_init+1
  9300     1066  3076               	movlw	118
  9301     1067  00F5               	movwf	??_LCD_init
  9302     1068                     u9527:
  9303     1068  0BF5               	decfsz	??_LCD_init,f
  9304     1069  2868               	goto	u9527
  9305     106A  0BF6               	decfsz	??_LCD_init+1,f
  9306     106B  2868               	goto	u9527
  9307     106C  0000               	nop
  9308     106D                     l5352:
  9309                           
  9310                           ;lcd.c: 56:     LCD_nibble(0x02);
  9311     106D  3002               	movlw	2
  9312     106E  160A  158A  2607  160A  118A  	fcall	_LCD_nibble
  9313     1073                     l5354:
  9314                           
  9315                           ;lcd.c: 58:     LCD_cmd(0x28);
  9316     1073  3028               	movlw	40
  9317     1074  160A  158A  23A2  160A  118A  	fcall	_LCD_cmd
  9318     1079                     l5356:
  9319                           
  9320                           ;lcd.c: 59:     LCD_cmd(0x0C);
  9321     1079  300C               	movlw	12
  9322     107A  160A  158A  23A2  160A  118A  	fcall	_LCD_cmd
  9323     107F                     l5358:
  9324                           
  9325                           ;lcd.c: 60:     LCD_cmd(0x06);
  9326     107F  3006               	movlw	6
  9327     1080  160A  158A  23A2  160A  118A  	fcall	_LCD_cmd
  9328     1085                     l5360:
  9329                           
  9330                           ;lcd.c: 61:     LCD_cmd(0x01);
  9331     1085  3001               	movlw	1
  9332     1086  160A  158A  23A2  160A  118A  	fcall	_LCD_cmd
  9333     108B                     l5362:
  9334                           
  9335                           ;lcd.c: 62:     _delay((unsigned long)((2)*(20000000/4000.0)));
  9336     108B  300D               	movlw	13
  9337     108C  00F6               	movwf	??_LCD_init+1
  9338     108D  30FB               	movlw	251
  9339     108E  00F5               	movwf	??_LCD_init
  9340     108F                     u9537:
  9341     108F  0BF5               	decfsz	??_LCD_init,f
  9342     1090  288F               	goto	u9537
  9343     1091  0BF6               	decfsz	??_LCD_init+1,f
  9344     1092  288F               	goto	u9537
  9345     1093  2894               	nop2
  9346     1094                     l123:
  9347     1094  0008               	return
  9348     1095                     __end_of_LCD_init:
  9349                           
  9350                           	psect	text28
  9351     0004                     __ptext28:	
  9352 ;; *************** function _LCD_goto *****************
  9353 ;; Defined at:
  9354 ;;		line 65 in file "lcd.c"
  9355 ;; Parameters:    Size  Location     Type
  9356 ;;  pos             1    wreg     unsigned char 
  9357 ;; Auto vars:     Size  Location     Type
  9358 ;;  pos             1    5[COMMON] unsigned char 
  9359 ;; Return value:  Size  Location     Type
  9360 ;;                  1    wreg      void 
  9361 ;; Registers used:
  9362 ;;		wreg, status,2, status,0, pclath, cstack
  9363 ;; Tracked objects:
  9364 ;;		On entry : 0/0
  9365 ;;		On exit  : 0/0
  9366 ;;		Unchanged: 0/0
  9367 ;; Data sizes:     COMMON   BANK0   BANK1   BANK3   BANK2
  9368 ;;      Params:         0       0       0       0       0
  9369 ;;      Locals:         1       0       0       0       0
  9370 ;;      Temps:          0       0       0       0       0
  9371 ;;      Totals:         1       0       0       0       0
  9372 ;;Total ram usage:        1 bytes
  9373 ;; Hardware stack levels used: 1
  9374 ;; Hardware stack levels required when called: 1
  9375 ;; This function calls:
  9376 ;;		_LCD_cmd
  9377 ;; This function is called by:
  9378 ;;		_main
  9379 ;; This function uses a non-reentrant model
  9380 ;;
  9381                           
  9382     0004                     _LCD_goto:	
  9383                           ;psect for function _LCD_goto
  9384                           
  9385                           
  9386                           ;incstack = 0
  9387                           ; Regs used in _LCD_goto: [wreg+status,2+status,0+pclath+cstack]
  9388                           ;LCD_goto@pos stored from wreg
  9389     0004  00F5               	movwf	LCD_goto@pos
  9390     0005                     l5388:
  9391                           
  9392                           ;lcd.c: 66:     LCD_cmd(0x80 + pos);
  9393     0005  0875               	movf	LCD_goto@pos,w
  9394     0006  3E80               	addlw	128
  9395     0007  160A  158A  23A2  120A  118A  	fcall	_LCD_cmd
  9396     000C                     l126:
  9397     000C  0008               	return
  9398     000D                     __end_of_LCD_goto:
  9399                           
  9400                           	psect	text29
  9401     1BA2                     __ptext29:	
  9402 ;; *************** function _LCD_cmd *****************
  9403 ;; Defined at:
  9404 ;;		line 26 in file "lcd.c"
  9405 ;; Parameters:    Size  Location     Type
  9406 ;;  cmd             1    wreg     unsigned char 
  9407 ;; Auto vars:     Size  Location     Type
  9408 ;;  cmd             1    4[COMMON] unsigned char 
  9409 ;; Return value:  Size  Location     Type
  9410 ;;                  1    wreg      void 
  9411 ;; Registers used:
  9412 ;;		wreg, status,2, status,0, pclath, cstack
  9413 ;; Tracked objects:
  9414 ;;		On entry : 0/0
  9415 ;;		On exit  : 0/0
  9416 ;;		Unchanged: 0/0
  9417 ;; Data sizes:     COMMON   BANK0   BANK1   BANK3   BANK2
  9418 ;;      Params:         0       0       0       0       0
  9419 ;;      Locals:         1       0       0       0       0
  9420 ;;      Temps:          2       0       0       0       0
  9421 ;;      Totals:         3       0       0       0       0
  9422 ;;Total ram usage:        3 bytes
  9423 ;; Hardware stack levels used: 1
  9424 ;; This function calls:
  9425 ;;		_LCD_nibble
  9426 ;; This function is called by:
  9427 ;;		_main
  9428 ;;		_LCD_init
  9429 ;;		_LCD_goto
  9430 ;; This function uses a non-reentrant model
  9431 ;;
  9432                           
  9433     1BA2                     _LCD_cmd:	
  9434                           ;psect for function _LCD_cmd
  9435                           
  9436                           
  9437                           ;incstack = 0
  9438                           ; Regs used in _LCD_cmd: [wreg+status,2+status,0+pclath+cstack]
  9439                           ;LCD_cmd@cmd stored from wreg
  9440     1BA2  00F4               	movwf	LCD_cmd@cmd
  9441     1BA3                     l4914:
  9442                           
  9443                           ;lcd.c: 27:     RC5 = 0;
  9444     1BA3  1283               	bcf	3,5	;RP0=0, select bank0
  9445     1BA4  1303               	bcf	3,6	;RP1=0, select bank0
  9446     1BA5  1287               	bcf	7,5	;volatile
  9447     1BA6                     l4916:
  9448                           
  9449                           ;lcd.c: 28:     LCD_nibble(cmd >> 4);
  9450     1BA6  0874               	movf	LCD_cmd@cmd,w
  9451     1BA7  00F2               	movwf	??_LCD_cmd
  9452     1BA8  3004               	movlw	4
  9453     1BA9                     u7105:
  9454     1BA9  1003               	clrc
  9455     1BAA  0CF2               	rrf	??_LCD_cmd,f
  9456     1BAB  3EFF               	addlw	-1
  9457     1BAC  1D03               	skipz
  9458     1BAD  2BA9               	goto	u7105
  9459     1BAE  0872               	movf	??_LCD_cmd,w
  9460     1BAF  160A  158A  2607  160A  158A  	fcall	_LCD_nibble
  9461                           
  9462                           ;lcd.c: 29:     LCD_nibble(cmd & 0x0F);
  9463     1BB4  0874               	movf	LCD_cmd@cmd,w
  9464     1BB5  390F               	andlw	15
  9465     1BB6  160A  158A  2607  160A  158A  	fcall	_LCD_nibble
  9466     1BBB                     l4918:
  9467                           
  9468                           ;lcd.c: 30:     _delay((unsigned long)((2)*(20000000/4000.0)));
  9469     1BBB  300D               	movlw	13
  9470     1BBC  00F3               	movwf	??_LCD_cmd+1
  9471     1BBD  30FB               	movlw	251
  9472     1BBE  00F2               	movwf	??_LCD_cmd
  9473     1BBF                     u9547:
  9474     1BBF  0BF2               	decfsz	??_LCD_cmd,f
  9475     1BC0  2BBF               	goto	u9547
  9476     1BC1  0BF3               	decfsz	??_LCD_cmd+1,f
  9477     1BC2  2BBF               	goto	u9547
  9478     1BC3  2BC4               	nop2
  9479     1BC4                     l117:
  9480     1BC4  0008               	return
  9481     1BC5                     __end_of_LCD_cmd:
  9482                           
  9483                           	psect	text30
  9484     1E07                     __ptext30:	
  9485 ;; *************** function _LCD_nibble *****************
  9486 ;; Defined at:
  9487 ;;		line 14 in file "lcd.c"
  9488 ;; Parameters:    Size  Location     Type
  9489 ;;  nib             1    wreg     unsigned char 
  9490 ;; Auto vars:     Size  Location     Type
  9491 ;;  nib             1    1[COMMON] unsigned char 
  9492 ;; Return value:  Size  Location     Type
  9493 ;;                  1    wreg      void 
  9494 ;; Registers used:
  9495 ;;		wreg, status,2, status,0
  9496 ;; Tracked objects:
  9497 ;;		On entry : 0/0
  9498 ;;		On exit  : 0/0
  9499 ;;		Unchanged: 0/0
  9500 ;; Data sizes:     COMMON   BANK0   BANK1   BANK3   BANK2
  9501 ;;      Params:         0       0       0       0       0
  9502 ;;      Locals:         1       0       0       0       0
  9503 ;;      Temps:          1       0       0       0       0
  9504 ;;      Totals:         2       0       0       0       0
  9505 ;;Total ram usage:        2 bytes
  9506 ;; Hardware stack levels used: 1
  9507 ;; This function calls:
  9508 ;;		Nothing
  9509 ;; This function is called by:
  9510 ;;		_LCD_cmd
  9511 ;;		_LCD_data
  9512 ;;		_LCD_init
  9513 ;; This function uses a non-reentrant model
  9514 ;;
  9515                           
  9516     1E07                     _LCD_nibble:	
  9517                           ;psect for function _LCD_nibble
  9518                           
  9519                           
  9520                           ;incstack = 0
  9521                           ; Regs used in _LCD_nibble: [wreg+status,2+status,0]
  9522                           ;LCD_nibble@nib stored from wreg
  9523     1E07  00F1               	movwf	LCD_nibble@nib
  9524     1E08                     l4770:
  9525                           
  9526                           ;lcd.c: 15:     RD4 = (nib >> 0) & 1;
  9527     1E08  1871               	btfsc	LCD_nibble@nib,0
  9528     1E09  2E0B               	goto	u6801
  9529     1E0A  2E0F               	goto	u6800
  9530     1E0B                     u6801:
  9531     1E0B  1283               	bcf	3,5	;RP0=0, select bank0
  9532     1E0C  1303               	bcf	3,6	;RP1=0, select bank0
  9533     1E0D  1608               	bsf	8,4	;volatile
  9534     1E0E  2E12               	goto	u6814
  9535     1E0F                     u6800:
  9536     1E0F  1283               	bcf	3,5	;RP0=0, select bank0
  9537     1E10  1303               	bcf	3,6	;RP1=0, select bank0
  9538     1E11  1208               	bcf	8,4	;volatile
  9539     1E12                     u6814:
  9540     1E12                     l4772:
  9541                           
  9542                           ;lcd.c: 16:     RD5 = (nib >> 1) & 1;
  9543     1E12  0871               	movf	LCD_nibble@nib,w
  9544     1E13  00F0               	movwf	??_LCD_nibble
  9545     1E14  3001               	movlw	1
  9546     1E15                     u6825:
  9547     1E15  1003               	clrc
  9548     1E16  0CF0               	rrf	??_LCD_nibble,f
  9549     1E17  3EFF               	addlw	-1
  9550     1E18  1D03               	skipz
  9551     1E19  2E15               	goto	u6825
  9552     1E1A  1870               	btfsc	??_LCD_nibble,0
  9553     1E1B  2E1D               	goto	u6831
  9554     1E1C  2E21               	goto	u6830
  9555     1E1D                     u6831:
  9556     1E1D  1283               	bcf	3,5	;RP0=0, select bank0
  9557     1E1E  1303               	bcf	3,6	;RP1=0, select bank0
  9558     1E1F  1688               	bsf	8,5	;volatile
  9559     1E20  2E24               	goto	u6844
  9560     1E21                     u6830:
  9561     1E21  1283               	bcf	3,5	;RP0=0, select bank0
  9562     1E22  1303               	bcf	3,6	;RP1=0, select bank0
  9563     1E23  1288               	bcf	8,5	;volatile
  9564     1E24                     u6844:
  9565                           
  9566                           ;lcd.c: 17:     RD6 = (nib >> 2) & 1;
  9567     1E24  0871               	movf	LCD_nibble@nib,w
  9568     1E25  00F0               	movwf	??_LCD_nibble
  9569     1E26  3002               	movlw	2
  9570     1E27                     u6855:
  9571     1E27  1003               	clrc
  9572     1E28  0CF0               	rrf	??_LCD_nibble,f
  9573     1E29  3EFF               	addlw	-1
  9574     1E2A  1D03               	skipz
  9575     1E2B  2E27               	goto	u6855
  9576     1E2C  1870               	btfsc	??_LCD_nibble,0
  9577     1E2D  2E2F               	goto	u6861
  9578     1E2E  2E33               	goto	u6860
  9579     1E2F                     u6861:
  9580     1E2F  1283               	bcf	3,5	;RP0=0, select bank0
  9581     1E30  1303               	bcf	3,6	;RP1=0, select bank0
  9582     1E31  1708               	bsf	8,6	;volatile
  9583     1E32  2E36               	goto	u6874
  9584     1E33                     u6860:
  9585     1E33  1283               	bcf	3,5	;RP0=0, select bank0
  9586     1E34  1303               	bcf	3,6	;RP1=0, select bank0
  9587     1E35  1308               	bcf	8,6	;volatile
  9588     1E36                     u6874:
  9589                           
  9590                           ;lcd.c: 18:     RD7 = (nib >> 3) & 1;
  9591     1E36  0871               	movf	LCD_nibble@nib,w
  9592     1E37  00F0               	movwf	??_LCD_nibble
  9593     1E38  3003               	movlw	3
  9594     1E39                     u6885:
  9595     1E39  1003               	clrc
  9596     1E3A  0CF0               	rrf	??_LCD_nibble,f
  9597     1E3B  3EFF               	addlw	-1
  9598     1E3C  1D03               	skipz
  9599     1E3D  2E39               	goto	u6885
  9600     1E3E  1870               	btfsc	??_LCD_nibble,0
  9601     1E3F  2E41               	goto	u6891
  9602     1E40  2E45               	goto	u6890
  9603     1E41                     u6891:
  9604     1E41  1283               	bcf	3,5	;RP0=0, select bank0
  9605     1E42  1303               	bcf	3,6	;RP1=0, select bank0
  9606     1E43  1788               	bsf	8,7	;volatile
  9607     1E44  2E48               	goto	u6904
  9608     1E45                     u6890:
  9609     1E45  1283               	bcf	3,5	;RP0=0, select bank0
  9610     1E46  1303               	bcf	3,6	;RP1=0, select bank0
  9611     1E47  1388               	bcf	8,7	;volatile
  9612     1E48                     u6904:
  9613     1E48                     l4774:
  9614                           
  9615                           ;lcd.c: 20:     RC6 = 1;
  9616     1E48  1707               	bsf	7,6	;volatile
  9617     1E49                     l4776:
  9618                           
  9619                           ;lcd.c: 21:     _delay((unsigned long)((50)*(20000000/4000000.0)));
  9620     1E49  3053               	movlw	83
  9621     1E4A  00F0               	movwf	??_LCD_nibble
  9622     1E4B                     u9557:
  9623     1E4B  0BF0               	decfsz	??_LCD_nibble,f
  9624     1E4C  2E4B               	goto	u9557
  9625     1E4D                     l4778:
  9626                           
  9627                           ;lcd.c: 22:     RC6 = 0;
  9628     1E4D  1283               	bcf	3,5	;RP0=0, select bank0
  9629     1E4E  1303               	bcf	3,6	;RP1=0, select bank0
  9630     1E4F  1307               	bcf	7,6	;volatile
  9631     1E50                     l4780:
  9632                           
  9633                           ;lcd.c: 23:     _delay((unsigned long)((50)*(20000000/4000000.0)));
  9634     1E50  3053               	movlw	83
  9635     1E51  00F0               	movwf	??_LCD_nibble
  9636     1E52                     u9567:
  9637     1E52  0BF0               	decfsz	??_LCD_nibble,f
  9638     1E53  2E52               	goto	u9567
  9639     1E54                     l114:
  9640     1E54  0008               	return
  9641     1E55                     __end_of_LCD_nibble:
  9642                           
  9643                           	psect	text31
  9644     1B5B                     __ptext31:	
  9645 ;; *************** function _I2C_init *****************
  9646 ;; Defined at:
  9647 ;;		line 10 in file "i2c.c"
  9648 ;; Parameters:    Size  Location     Type
  9649 ;;		None
  9650 ;; Auto vars:     Size  Location     Type
  9651 ;;		None
  9652 ;; Return value:  Size  Location     Type
  9653 ;;                  1    wreg      void 
  9654 ;; Registers used:
  9655 ;;		status,2
  9656 ;; Tracked objects:
  9657 ;;		On entry : 0/0
  9658 ;;		On exit  : 0/0
  9659 ;;		Unchanged: 0/0
  9660 ;; Data sizes:     COMMON   BANK0   BANK1   BANK3   BANK2
  9661 ;;      Params:         0       0       0       0       0
  9662 ;;      Locals:         0       0       0       0       0
  9663 ;;      Temps:          0       0       0       0       0
  9664 ;;      Totals:         0       0       0       0       0
  9665 ;;Total ram usage:        0 bytes
  9666 ;; Hardware stack levels used: 1
  9667 ;; This function calls:
  9668 ;;		Nothing
  9669 ;; This function is called by:
  9670 ;;		_main
  9671 ;; This function uses a non-reentrant model
  9672 ;;
  9673                           
  9674     1B5B                     _I2C_init:	
  9675                           ;psect for function _I2C_init
  9676                           
  9677     1B5B                     l5364:	
  9678                           ;incstack = 0
  9679                           ; Regs used in _I2C_init: [status,2]
  9680                           
  9681                           
  9682                           ;i2c.c: 11:     TRISC3 = 1;
  9683     1B5B  1683               	bsf	3,5	;RP0=1, select bank1
  9684     1B5C  1303               	bcf	3,6	;RP1=0, select bank1
  9685     1B5D  1587               	bsf	7,3	;volatile
  9686                           
  9687                           ;i2c.c: 12:     TRISC4 = 1;
  9688     1B5E  1607               	bsf	7,4	;volatile
  9689                           
  9690                           ;i2c.c: 14:     SSPCON = 0b00101000;
  9691     1B5F  3028               	movlw	40
  9692     1B60  1283               	bcf	3,5	;RP0=0, select bank0
  9693     1B61  1303               	bcf	3,6	;RP1=0, select bank0
  9694     1B62  0094               	movwf	20	;volatile
  9695     1B63                     l5366:
  9696                           
  9697                           ;i2c.c: 15:     SSPCON2 = 0;
  9698     1B63  1683               	bsf	3,5	;RP0=1, select bank1
  9699     1B64  1303               	bcf	3,6	;RP1=0, select bank1
  9700     1B65  0191               	clrf	17	;volatile
  9701     1B66                     l5368:
  9702                           
  9703                           ;i2c.c: 16:     SSPADD = (20000000 / (4 * 100000)) - 1;
  9704     1B66  3031               	movlw	49
  9705     1B67  0093               	movwf	19	;volatile
  9706                           
  9707                           ;i2c.c: 17:     SSPSTAT = 0;
  9708     1B68  0194               	clrf	20	;volatile
  9709     1B69                     l165:
  9710     1B69  0008               	return
  9711     1B6A                     __end_of_I2C_init:
  9712                           
  9713                           	psect	text32
  9714     1DC0                     __ptext32:	
  9715 ;; *************** function _DS1307_startOscillator *****************
  9716 ;; Defined at:
  9717 ;;		line 9 in file "ds1307.c"
  9718 ;; Parameters:    Size  Location     Type
  9719 ;;		None
  9720 ;; Auto vars:     Size  Location     Type
  9721 ;;  sec             1    2[COMMON] unsigned char 
  9722 ;; Return value:  Size  Location     Type
  9723 ;;                  1    wreg      void 
  9724 ;; Registers used:
  9725 ;;		wreg, status,2, status,0, pclath, cstack
  9726 ;; Tracked objects:
  9727 ;;		On entry : 0/0
  9728 ;;		On exit  : 0/0
  9729 ;;		Unchanged: 0/0
  9730 ;; Data sizes:     COMMON   BANK0   BANK1   BANK3   BANK2
  9731 ;;      Params:         0       0       0       0       0
  9732 ;;      Locals:         1       0       0       0       0
  9733 ;;      Temps:          0       0       0       0       0
  9734 ;;      Totals:         1       0       0       0       0
  9735 ;;Total ram usage:        1 bytes
  9736 ;; Hardware stack levels used: 1
  9737 ;; Hardware stack levels required when called: 1
  9738 ;; This function calls:
  9739 ;;		_I2C_read
  9740 ;;		_I2C_start
  9741 ;;		_I2C_stop
  9742 ;;		_I2C_write
  9743 ;; This function is called by:
  9744 ;;		_main
  9745 ;; This function uses a non-reentrant model
  9746 ;;
  9747                           
  9748     1DC0                     _DS1307_startOscillator:	
  9749                           ;psect for function _DS1307_startOscillator
  9750                           
  9751     1DC0                     l5370:	
  9752                           ;incstack = 0
  9753                           ; Regs used in _DS1307_startOscillator: [wreg+status,2+status,0+pclath+cstack]
  9754                           
  9755                           
  9756                           ;ds1307.c: 10:     uint8_t sec;;ds1307.c: 12:     I2C_start(); I2C_write(0xD0); I2C_writ
      +                          e(0x00);
  9757     1DC0  160A  158A  2325  160A  158A  	fcall	_I2C_start
  9758     1DC5  30D0               	movlw	208
  9759     1DC6  160A  158A  2337  160A  158A  	fcall	_I2C_write
  9760     1DCB  3000               	movlw	0
  9761     1DCC  160A  158A  2337  160A  158A  	fcall	_I2C_write
  9762                           
  9763                           ;ds1307.c: 13:     I2C_start(); I2C_write(0xD1);
  9764     1DD1  160A  158A  2325  160A  158A  	fcall	_I2C_start
  9765     1DD6  30D1               	movlw	209
  9766     1DD7  160A  158A  2337  160A  158A  	fcall	_I2C_write
  9767                           
  9768                           ;ds1307.c: 14:     sec = I2C_read(1);
  9769     1DDC  3001               	movlw	1
  9770     1DDD  160A  158A  23E8  160A  158A  	fcall	_I2C_read
  9771     1DE2  00F2               	movwf	DS1307_startOscillator@sec
  9772                           
  9773                           ;ds1307.c: 15:     I2C_stop();
  9774     1DE3  160A  158A  232E  160A  158A  	fcall	_I2C_stop
  9775     1DE8                     l5372:
  9776                           
  9777                           ;ds1307.c: 17:     sec &= 0x7F;
  9778     1DE8  307F               	movlw	127
  9779     1DE9  05F2               	andwf	DS1307_startOscillator@sec,f
  9780     1DEA                     l5374:
  9781                           
  9782                           ;ds1307.c: 19:     I2C_start();
  9783     1DEA  160A  158A  2325  160A  158A  	fcall	_I2C_start
  9784     1DEF                     l5376:
  9785                           
  9786                           ;ds1307.c: 20:     I2C_write(0xD0);
  9787     1DEF  30D0               	movlw	208
  9788     1DF0  160A  158A  2337  160A  158A  	fcall	_I2C_write
  9789     1DF5                     l5378:
  9790                           
  9791                           ;ds1307.c: 21:     I2C_write(0x00);
  9792     1DF5  3000               	movlw	0
  9793     1DF6  160A  158A  2337  160A  158A  	fcall	_I2C_write
  9794     1DFB                     l5380:
  9795                           
  9796                           ;ds1307.c: 22:     I2C_write(sec);
  9797     1DFB  0872               	movf	DS1307_startOscillator@sec,w
  9798     1DFC  160A  158A  2337  160A  158A  	fcall	_I2C_write
  9799     1E01                     l5382:
  9800                           
  9801                           ;ds1307.c: 23:     I2C_stop();
  9802     1E01  160A  158A  232E  160A  158A  	fcall	_I2C_stop
  9803     1E06                     l191:
  9804     1E06  0008               	return
  9805     1E07                     __end_of_DS1307_startOscillator:
  9806                           
  9807                           	psect	text33
  9808     1EA4                     __ptext33:	
  9809 ;; *************** function _DS1307_getTime *****************
  9810 ;; Defined at:
  9811 ;;		line 26 in file "ds1307.c"
  9812 ;; Parameters:    Size  Location     Type
  9813 ;;  h               1    6[COMMON] PTR unsigned char 
  9814 ;;		 -> main@h(1), 
  9815 ;;  m               1    7[COMMON] PTR unsigned char 
  9816 ;;		 -> main@m(1), 
  9817 ;;  s               1    8[COMMON] PTR unsigned char 
  9818 ;;		 -> main@s(1), 
  9819 ;; Auto vars:     Size  Location     Type
  9820 ;;		None
  9821 ;; Return value:  Size  Location     Type
  9822 ;;                  1    wreg      void 
  9823 ;; Registers used:
  9824 ;;		wreg, fsr0l, fsr0h, status,2, status,0, pclath, cstack
  9825 ;; Tracked objects:
  9826 ;;		On entry : 0/0
  9827 ;;		On exit  : 0/0
  9828 ;;		Unchanged: 0/0
  9829 ;; Data sizes:     COMMON   BANK0   BANK1   BANK3   BANK2
  9830 ;;      Params:         3       0       0       0       0
  9831 ;;      Locals:         0       0       0       0       0
  9832 ;;      Temps:          0       0       0       0       0
  9833 ;;      Totals:         3       0       0       0       0
  9834 ;;Total ram usage:        3 bytes
  9835 ;; Hardware stack levels used: 1
  9836 ;; Hardware stack levels required when called: 1
  9837 ;; This function calls:
  9838 ;;		_BCD_to_dec
  9839 ;;		_I2C_read
  9840 ;;		_I2C_start
  9841 ;;		_I2C_stop
  9842 ;;		_I2C_write
  9843 ;; This function is called by:
  9844 ;;		_main
  9845 ;; This function uses a non-reentrant model
  9846 ;;
  9847                           
  9848     1EA4                     _DS1307_getTime:	
  9849                           ;psect for function _DS1307_getTime
  9850                           
  9851     1EA4                     l5558:	
  9852                           ;incstack = 0
  9853                           ; Regs used in _DS1307_getTime: [wreg-fsr0h+status,2+status,0+pclath+cstack]
  9854                           
  9855                           
  9856                           ;ds1307.c: 27:     I2C_start();
  9857     1EA4  160A  158A  2325  160A  158A  	fcall	_I2C_start
  9858                           
  9859                           ;ds1307.c: 28:     I2C_write(0xD0);
  9860     1EA9  30D0               	movlw	208
  9861     1EAA  160A  158A  2337  160A  158A  	fcall	_I2C_write
  9862                           
  9863                           ;ds1307.c: 29:     I2C_write(0x00);
  9864     1EAF  3000               	movlw	0
  9865     1EB0  160A  158A  2337  160A  158A  	fcall	_I2C_write
  9866                           
  9867                           ;ds1307.c: 31:     I2C_start();
  9868     1EB5  160A  158A  2325  160A  158A  	fcall	_I2C_start
  9869                           
  9870                           ;ds1307.c: 32:     I2C_write(0xD1);
  9871     1EBA  30D1               	movlw	209
  9872     1EBB  160A  158A  2337  160A  158A  	fcall	_I2C_write
  9873     1EC0                     l5560:
  9874                           
  9875                           ;ds1307.c: 34:     *s = BCD_to_dec(I2C_read(0));
  9876     1EC0  0878               	movf	DS1307_getTime@s,w
  9877     1EC1  0084               	movwf	4
  9878     1EC2  3000               	movlw	0
  9879     1EC3  160A  158A  23E8  160A  158A  	fcall	_I2C_read
  9880     1EC8  120A  118A  200D  160A  158A  	fcall	_BCD_to_dec
  9881     1ECD  1783               	bsf	3,7	;select IRP bank2
  9882     1ECE  0080               	movwf	0
  9883     1ECF                     l5562:
  9884                           
  9885                           ;ds1307.c: 35:     *m = BCD_to_dec(I2C_read(0));
  9886     1ECF  0877               	movf	DS1307_getTime@m,w
  9887     1ED0  0084               	movwf	4
  9888     1ED1  3000               	movlw	0
  9889     1ED2  160A  158A  23E8  160A  158A  	fcall	_I2C_read
  9890     1ED7  120A  118A  200D  160A  158A  	fcall	_BCD_to_dec
  9891     1EDC  1783               	bsf	3,7	;select IRP bank2
  9892     1EDD  0080               	movwf	0
  9893     1EDE                     l5564:
  9894                           
  9895                           ;ds1307.c: 36:     *h = BCD_to_dec(I2C_read(1));
  9896     1EDE  0876               	movf	DS1307_getTime@h,w
  9897     1EDF  0084               	movwf	4
  9898     1EE0  3001               	movlw	1
  9899     1EE1  160A  158A  23E8  160A  158A  	fcall	_I2C_read
  9900     1EE6  120A  118A  200D  160A  158A  	fcall	_BCD_to_dec
  9901     1EEB  1783               	bsf	3,7	;select IRP bank2
  9902     1EEC  0080               	movwf	0
  9903     1EED                     l5566:
  9904                           
  9905                           ;ds1307.c: 38:     I2C_stop();
  9906     1EED  160A  158A  232E  160A  158A  	fcall	_I2C_stop
  9907     1EF2                     l194:
  9908     1EF2  0008               	return
  9909     1EF3                     __end_of_DS1307_getTime:
  9910                           
  9911                           	psect	text34
  9912     1E55                     __ptext34:	
  9913 ;; *************** function _DS1307_getDate *****************
  9914 ;; Defined at:
  9915 ;;		line 41 in file "ds1307.c"
  9916 ;; Parameters:    Size  Location     Type
  9917 ;;  d               1    6[COMMON] PTR unsigned char 
  9918 ;;		 -> main@d(1), 
  9919 ;;  mo              1    7[COMMON] PTR unsigned char 
  9920 ;;		 -> main@mo(1), 
  9921 ;;  y               1    8[COMMON] PTR unsigned char 
  9922 ;;		 -> main@y(1), 
  9923 ;; Auto vars:     Size  Location     Type
  9924 ;;		None
  9925 ;; Return value:  Size  Location     Type
  9926 ;;                  1    wreg      void 
  9927 ;; Registers used:
  9928 ;;		wreg, fsr0l, fsr0h, status,2, status,0, pclath, cstack
  9929 ;; Tracked objects:
  9930 ;;		On entry : 0/0
  9931 ;;		On exit  : 0/0
  9932 ;;		Unchanged: 0/0
  9933 ;; Data sizes:     COMMON   BANK0   BANK1   BANK3   BANK2
  9934 ;;      Params:         3       0       0       0       0
  9935 ;;      Locals:         0       0       0       0       0
  9936 ;;      Temps:          0       0       0       0       0
  9937 ;;      Totals:         3       0       0       0       0
  9938 ;;Total ram usage:        3 bytes
  9939 ;; Hardware stack levels used: 1
  9940 ;; Hardware stack levels required when called: 2
  9941 ;; This function calls:
  9942 ;;		_BCD_to_dec
  9943 ;;		_I2C_read
  9944 ;;		_I2C_start
  9945 ;;		_I2C_stop
  9946 ;;		_I2C_write
  9947 ;; This function is called by:
  9948 ;;		_main
  9949 ;; This function uses a non-reentrant model
  9950 ;;
  9951                           
  9952     1E55                     _DS1307_getDate:	
  9953                           ;psect for function _DS1307_getDate
  9954                           
  9955     1E55                     l5568:	
  9956                           ;incstack = 0
  9957                           ; Regs used in _DS1307_getDate: [wreg-fsr0h+status,2+status,0+pclath+cstack]
  9958                           
  9959                           
  9960                           ;ds1307.c: 42:     I2C_start();
  9961     1E55  160A  158A  2325  160A  158A  	fcall	_I2C_start
  9962                           
  9963                           ;ds1307.c: 43:     I2C_write(0xD0);
  9964     1E5A  30D0               	movlw	208
  9965     1E5B  160A  158A  2337  160A  158A  	fcall	_I2C_write
  9966                           
  9967                           ;ds1307.c: 44:     I2C_write(0x04);
  9968     1E60  3004               	movlw	4
  9969     1E61  160A  158A  2337  160A  158A  	fcall	_I2C_write
  9970                           
  9971                           ;ds1307.c: 46:     I2C_start();
  9972     1E66  160A  158A  2325  160A  158A  	fcall	_I2C_start
  9973                           
  9974                           ;ds1307.c: 47:     I2C_write(0xD1);
  9975     1E6B  30D1               	movlw	209
  9976     1E6C  160A  158A  2337  160A  158A  	fcall	_I2C_write
  9977     1E71                     l5570:
  9978                           
  9979                           ;ds1307.c: 49:     *d = BCD_to_dec(I2C_read(0));
  9980     1E71  0876               	movf	DS1307_getDate@d,w
  9981     1E72  0084               	movwf	4
  9982     1E73  3000               	movlw	0
  9983     1E74  160A  158A  23E8  160A  158A  	fcall	_I2C_read
  9984     1E79  120A  118A  200D  160A  158A  	fcall	_BCD_to_dec
  9985     1E7E  1783               	bsf	3,7	;select IRP bank2
  9986     1E7F  0080               	movwf	0
  9987     1E80                     l5572:
  9988                           
  9989                           ;ds1307.c: 50:     *mo = BCD_to_dec(I2C_read(0));
  9990     1E80  0877               	movf	DS1307_getDate@mo,w
  9991     1E81  0084               	movwf	4
  9992     1E82  3000               	movlw	0
  9993     1E83  160A  158A  23E8  160A  158A  	fcall	_I2C_read
  9994     1E88  120A  118A  200D  160A  158A  	fcall	_BCD_to_dec
  9995     1E8D  1783               	bsf	3,7	;select IRP bank2
  9996     1E8E  0080               	movwf	0
  9997     1E8F                     l5574:
  9998                           
  9999                           ;ds1307.c: 51:     *y = BCD_to_dec(I2C_read(1));
 10000     1E8F  0878               	movf	DS1307_getDate@y,w
 10001     1E90  0084               	movwf	4
 10002     1E91  3001               	movlw	1
 10003     1E92  160A  158A  23E8  160A  158A  	fcall	_I2C_read
 10004     1E97  120A  118A  200D  160A  158A  	fcall	_BCD_to_dec
 10005     1E9C  1783               	bsf	3,7	;select IRP bank2
 10006     1E9D  0080               	movwf	0
 10007     1E9E                     l5576:
 10008                           
 10009                           ;ds1307.c: 53:     I2C_stop();
 10010     1E9E  160A  158A  232E  160A  158A  	fcall	_I2C_stop
 10011     1EA3                     l197:
 10012     1EA3  0008               	return
 10013     1EA4                     __end_of_DS1307_getDate:
 10014                           
 10015                           	psect	text35
 10016     1B37                     __ptext35:	
 10017 ;; *************** function _I2C_write *****************
 10018 ;; Defined at:
 10019 ;;		line 23 in file "i2c.c"
 10020 ;; Parameters:    Size  Location     Type
 10021 ;;  d               1    wreg     unsigned char 
 10022 ;; Auto vars:     Size  Location     Type
 10023 ;;  d               1    0[COMMON] unsigned char 
 10024 ;; Return value:  Size  Location     Type
 10025 ;;                  1    wreg      void 
 10026 ;; Registers used:
 10027 ;;		wreg, status,2, status,0, pclath, cstack
 10028 ;; Tracked objects:
 10029 ;;		On entry : 0/0
 10030 ;;		On exit  : 0/0
 10031 ;;		Unchanged: 0/0
 10032 ;; Data sizes:     COMMON   BANK0   BANK1   BANK3   BANK2
 10033 ;;      Params:         0       0       0       0       0
 10034 ;;      Locals:         1       0       0       0       0
 10035 ;;      Temps:          0       0       0       0       0
 10036 ;;      Totals:         1       0       0       0       0
 10037 ;;Total ram usage:        1 bytes
 10038 ;; Hardware stack levels used: 1
 10039 ;; This function calls:
 10040 ;;		_I2C_wait
 10041 ;; This function is called by:
 10042 ;;		_DS1307_startOscillator
 10043 ;;		_DS1307_getTime
 10044 ;;		_DS1307_getDate
 10045 ;; This function uses a non-reentrant model
 10046 ;;
 10047                           
 10048     1B37                     _I2C_write:	
 10049                           ;psect for function _I2C_write
 10050                           
 10051                           
 10052                           ;incstack = 0
 10053                           ; Regs used in _I2C_write: [wreg+status,2+status,0+pclath+cstack]
 10054                           ;I2C_write@d stored from wreg
 10055     1B37  00F0               	movwf	I2C_write@d
 10056     1B38                     l4934:
 10057                           
 10058                           ;i2c.c: 24:     I2C_wait();
 10059     1B38  160A  158A  234E  160A  158A  	fcall	_I2C_wait
 10060     1B3D                     l4936:
 10061                           
 10062                           ;i2c.c: 25:     SSPBUF = d;
 10063     1B3D  0870               	movf	I2C_write@d,w
 10064     1B3E  1283               	bcf	3,5	;RP0=0, select bank0
 10065     1B3F  1303               	bcf	3,6	;RP1=0, select bank0
 10066     1B40  0093               	movwf	19	;volatile
 10067     1B41                     l174:
 10068     1B41  0008               	return
 10069     1B42                     __end_of_I2C_write:
 10070                           
 10071                           	psect	text36
 10072     1B2E                     __ptext36:	
 10073 ;; *************** function _I2C_stop *****************
 10074 ;; Defined at:
 10075 ;;		line 21 in file "i2c.c"
 10076 ;; Parameters:    Size  Location     Type
 10077 ;;		None
 10078 ;; Auto vars:     Size  Location     Type
 10079 ;;		None
 10080 ;; Return value:  Size  Location     Type
 10081 ;;                  1    wreg      void 
 10082 ;; Registers used:
 10083 ;;		wreg, status,2, status,0, pclath, cstack
 10084 ;; Tracked objects:
 10085 ;;		On entry : 0/0
 10086 ;;		On exit  : 0/0
 10087 ;;		Unchanged: 0/0
 10088 ;; Data sizes:     COMMON   BANK0   BANK1   BANK3   BANK2
 10089 ;;      Params:         0       0       0       0       0
 10090 ;;      Locals:         0       0       0       0       0
 10091 ;;      Temps:          0       0       0       0       0
 10092 ;;      Totals:         0       0       0       0       0
 10093 ;;Total ram usage:        0 bytes
 10094 ;; Hardware stack levels used: 1
 10095 ;; This function calls:
 10096 ;;		_I2C_wait
 10097 ;; This function is called by:
 10098 ;;		_DS1307_startOscillator
 10099 ;;		_DS1307_getTime
 10100 ;;		_DS1307_getDate
 10101 ;; This function uses a non-reentrant model
 10102 ;;
 10103                           
 10104     1B2E                     _I2C_stop:	
 10105                           ;psect for function _I2C_stop
 10106                           
 10107     1B2E                     l4930:	
 10108                           ;incstack = 0
 10109                           ; Regs used in _I2C_stop: [wreg+status,2+status,0+pclath+cstack]
 10110                           
 10111     1B2E  160A  158A  234E  160A  158A  	fcall	_I2C_wait
 10112     1B33                     l4932:
 10113     1B33  1683               	bsf	3,5	;RP0=1, select bank1
 10114     1B34  1303               	bcf	3,6	;RP1=0, select bank1
 10115     1B35  1511               	bsf	17,2	;volatile
 10116     1B36                     l171:
 10117     1B36  0008               	return
 10118     1B37                     __end_of_I2C_stop:
 10119                           
 10120                           	psect	text37
 10121     1B25                     __ptext37:	
 10122 ;; *************** function _I2C_start *****************
 10123 ;; Defined at:
 10124 ;;		line 20 in file "i2c.c"
 10125 ;; Parameters:    Size  Location     Type
 10126 ;;		None
 10127 ;; Auto vars:     Size  Location     Type
 10128 ;;		None
 10129 ;; Return value:  Size  Location     Type
 10130 ;;                  1    wreg      void 
 10131 ;; Registers used:
 10132 ;;		wreg, status,2, status,0, pclath, cstack
 10133 ;; Tracked objects:
 10134 ;;		On entry : 0/0
 10135 ;;		On exit  : 0/0
 10136 ;;		Unchanged: 0/0
 10137 ;; Data sizes:     COMMON   BANK0   BANK1   BANK3   BANK2
 10138 ;;      Params:         0       0       0       0       0
 10139 ;;      Locals:         0       0       0       0       0
 10140 ;;      Temps:          0       0       0       0       0
 10141 ;;      Totals:         0       0       0       0       0
 10142 ;;Total ram usage:        0 bytes
 10143 ;; Hardware stack levels used: 1
 10144 ;; This function calls:
 10145 ;;		_I2C_wait
 10146 ;; This function is called by:
 10147 ;;		_DS1307_startOscillator
 10148 ;;		_DS1307_getTime
 10149 ;;		_DS1307_getDate
 10150 ;; This function uses a non-reentrant model
 10151 ;;
 10152                           
 10153     1B25                     _I2C_start:	
 10154                           ;psect for function _I2C_start
 10155                           
 10156     1B25                     l4926:	
 10157                           ;incstack = 0
 10158                           ; Regs used in _I2C_start: [wreg+status,2+status,0+pclath+cstack]
 10159                           
 10160     1B25  160A  158A  234E  160A  158A  	fcall	_I2C_wait
 10161     1B2A                     l4928:
 10162     1B2A  1683               	bsf	3,5	;RP0=1, select bank1
 10163     1B2B  1303               	bcf	3,6	;RP1=0, select bank1
 10164     1B2C  1411               	bsf	17,0	;volatile
 10165     1B2D                     l168:
 10166     1B2D  0008               	return
 10167     1B2E                     __end_of_I2C_start:
 10168                           
 10169                           	psect	text38
 10170     1BE8                     __ptext38:	
 10171 ;; *************** function _I2C_read *****************
 10172 ;; Defined at:
 10173 ;;		line 28 in file "i2c.c"
 10174 ;; Parameters:    Size  Location     Type
 10175 ;;  ack             1    wreg     unsigned char 
 10176 ;; Auto vars:     Size  Location     Type
 10177 ;;  ack             1    0[COMMON] unsigned char 
 10178 ;;  data            1    1[COMMON] unsigned char 
 10179 ;; Return value:  Size  Location     Type
 10180 ;;                  1    wreg      unsigned char 
 10181 ;; Registers used:
 10182 ;;		wreg, status,2, status,0, pclath, cstack
 10183 ;; Tracked objects:
 10184 ;;		On entry : 0/0
 10185 ;;		On exit  : 0/0
 10186 ;;		Unchanged: 0/0
 10187 ;; Data sizes:     COMMON   BANK0   BANK1   BANK3   BANK2
 10188 ;;      Params:         0       0       0       0       0
 10189 ;;      Locals:         2       0       0       0       0
 10190 ;;      Temps:          0       0       0       0       0
 10191 ;;      Totals:         2       0       0       0       0
 10192 ;;Total ram usage:        2 bytes
 10193 ;; Hardware stack levels used: 1
 10194 ;; This function calls:
 10195 ;;		_I2C_wait
 10196 ;; This function is called by:
 10197 ;;		_DS1307_startOscillator
 10198 ;;		_DS1307_getTime
 10199 ;;		_DS1307_getDate
 10200 ;; This function uses a non-reentrant model
 10201 ;;
 10202                           
 10203     1BE8                     _I2C_read:	
 10204                           ;psect for function _I2C_read
 10205                           
 10206                           
 10207                           ;incstack = 0
 10208                           ; Regs used in _I2C_read: [wreg+status,2+status,0+pclath+cstack]
 10209                           ;I2C_read@ack stored from wreg
 10210     1BE8  00F0               	movwf	I2C_read@ack
 10211     1BE9                     l4938:
 10212                           
 10213                           ;i2c.c: 29:     uint8_t data;;i2c.c: 31:     I2C_wait();
 10214     1BE9  160A  158A  234E  160A  158A  	fcall	_I2C_wait
 10215     1BEE                     l4940:
 10216                           
 10217                           ;i2c.c: 32:     RCEN = 1;
 10218     1BEE  1683               	bsf	3,5	;RP0=1, select bank1
 10219     1BEF  1303               	bcf	3,6	;RP1=0, select bank1
 10220     1BF0  1591               	bsf	17,3	;volatile
 10221                           
 10222                           ;i2c.c: 33:     I2C_wait();
 10223     1BF1  160A  158A  234E  160A  158A  	fcall	_I2C_wait
 10224     1BF6                     l4942:
 10225                           
 10226                           ;i2c.c: 34:     data = SSPBUF;
 10227     1BF6  1283               	bcf	3,5	;RP0=0, select bank0
 10228     1BF7  1303               	bcf	3,6	;RP1=0, select bank0
 10229     1BF8  0813               	movf	19,w	;volatile
 10230     1BF9  00F1               	movwf	I2C_read@data
 10231     1BFA                     l4944:
 10232                           
 10233                           ;i2c.c: 35:     I2C_wait();
 10234     1BFA  160A  158A  234E  160A  158A  	fcall	_I2C_wait
 10235     1BFF                     l4946:
 10236                           
 10237                           ;i2c.c: 36:     ACKDT = ack;
 10238     1BFF  1870               	btfsc	I2C_read@ack,0
 10239     1C00  2C02               	goto	u7121
 10240     1C01  2C06               	goto	u7120
 10241     1C02                     u7121:
 10242     1C02  1683               	bsf	3,5	;RP0=1, select bank1
 10243     1C03  1303               	bcf	3,6	;RP1=0, select bank1
 10244     1C04  1691               	bsf	17,5	;volatile
 10245     1C05  2C09               	goto	u7134
 10246     1C06                     u7120:
 10247     1C06  1683               	bsf	3,5	;RP0=1, select bank1
 10248     1C07  1303               	bcf	3,6	;RP1=0, select bank1
 10249     1C08  1291               	bcf	17,5	;volatile
 10250     1C09                     u7134:
 10251     1C09                     l4948:
 10252                           
 10253                           ;i2c.c: 37:     ACKEN = 1;
 10254     1C09  1611               	bsf	17,4	;volatile
 10255                           
 10256                           ;i2c.c: 39:     return data;
 10257     1C0A  0871               	movf	I2C_read@data,w
 10258     1C0B                     l177:
 10259     1C0B  0008               	return
 10260     1C0C                     __end_of_I2C_read:
 10261                           
 10262                           	psect	text39
 10263     1B4E                     __ptext39:	
 10264 ;; *************** function _I2C_wait *****************
 10265 ;; Defined at:
 10266 ;;		line 6 in file "i2c.c"
 10267 ;; Parameters:    Size  Location     Type
 10268 ;;		None
 10269 ;; Auto vars:     Size  Location     Type
 10270 ;;		None
 10271 ;; Return value:  Size  Location     Type
 10272 ;;                  1    wreg      void 
 10273 ;; Registers used:
 10274 ;;		wreg, status,2
 10275 ;; Tracked objects:
 10276 ;;		On entry : 0/0
 10277 ;;		On exit  : 0/0
 10278 ;;		Unchanged: 0/0
 10279 ;; Data sizes:     COMMON   BANK0   BANK1   BANK3   BANK2
 10280 ;;      Params:         0       0       0       0       0
 10281 ;;      Locals:         0       0       0       0       0
 10282 ;;      Temps:          0       0       0       0       0
 10283 ;;      Totals:         0       0       0       0       0
 10284 ;;Total ram usage:        0 bytes
 10285 ;; Hardware stack levels used: 1
 10286 ;; This function calls:
 10287 ;;		Nothing
 10288 ;; This function is called by:
 10289 ;;		_I2C_start
 10290 ;;		_I2C_stop
 10291 ;;		_I2C_write
 10292 ;;		_I2C_read
 10293 ;; This function uses a non-reentrant model
 10294 ;;
 10295                           
 10296     1B4E                     _I2C_wait:	
 10297                           ;psect for function _I2C_wait
 10298                           
 10299     1B4E                     l4782:	
 10300                           ;incstack = 0
 10301                           ; Regs used in _I2C_wait: [wreg+status,2]
 10302                           
 10303     1B4E                     l4784:	
 10304                           ;i2c.c: 7:     while ((SSPCON2 & 0x1F) || (SSPSTAT & 0x04));
 10305                           
 10306     1B4E  1683               	bsf	3,5	;RP0=1, select bank1
 10307     1B4F  1303               	bcf	3,6	;RP1=0, select bank1
 10308     1B50  0811               	movf	17,w	;volatile
 10309     1B51  391F               	andlw	31
 10310     1B52  1D03               	btfss	3,2
 10311     1B53  2B55               	goto	u6911
 10312     1B54  2B56               	goto	u6910
 10313     1B55                     u6911:
 10314     1B55  2B4E               	goto	l4784
 10315     1B56                     u6910:
 10316     1B56                     l4786:
 10317     1B56  1914               	btfsc	20,2	;volatile
 10318     1B57  2B59               	goto	u6921
 10319     1B58  2B5A               	goto	u6920
 10320     1B59                     u6921:
 10321     1B59  2B4E               	goto	l4784
 10322     1B5A                     u6920:
 10323     1B5A                     l162:
 10324     1B5A  0008               	return
 10325     1B5B                     __end_of_I2C_wait:
 10326                           
 10327                           	psect	text40
 10328     000D                     __ptext40:	
 10329 ;; *************** function _BCD_to_dec *****************
 10330 ;; Defined at:
 10331 ;;		line 5 in file "ds1307.c"
 10332 ;; Parameters:    Size  Location     Type
 10333 ;;  bcd             1    wreg     unsigned char 
 10334 ;; Auto vars:     Size  Location     Type
 10335 ;;  bcd             1    5[COMMON] unsigned char 
 10336 ;; Return value:  Size  Location     Type
 10337 ;;                  1    wreg      unsigned char 
 10338 ;; Registers used:
 10339 ;;		wreg, status,2, status,0, pclath, cstack
 10340 ;; Tracked objects:
 10341 ;;		On entry : 0/0
 10342 ;;		On exit  : 0/0
 10343 ;;		Unchanged: 0/0
 10344 ;; Data sizes:     COMMON   BANK0   BANK1   BANK3   BANK2
 10345 ;;      Params:         0       0       0       0       0
 10346 ;;      Locals:         1       0       0       0       0
 10347 ;;      Temps:          2       0       0       0       0
 10348 ;;      Totals:         3       0       0       0       0
 10349 ;;Total ram usage:        3 bytes
 10350 ;; Hardware stack levels used: 1
 10351 ;; This function calls:
 10352 ;;		___bmul
 10353 ;; This function is called by:
 10354 ;;		_DS1307_getTime
 10355 ;;		_DS1307_getDate
 10356 ;; This function uses a non-reentrant model
 10357 ;;
 10358                           
 10359     000D                     _BCD_to_dec:	
 10360                           ;psect for function _BCD_to_dec
 10361                           
 10362                           
 10363                           ;incstack = 0
 10364                           ; Regs used in _BCD_to_dec: [wreg+status,2+status,0+pclath+cstack]
 10365                           ;BCD_to_dec@bcd stored from wreg
 10366     000D  00F5               	movwf	BCD_to_dec@bcd
 10367     000E                     l4952:
 10368                           
 10369                           ;ds1307.c: 6:     return (bcd >> 4) * 10 + (bcd & 0x0F);
 10370     000E  300F               	movlw	15
 10371     000F  0575               	andwf	BCD_to_dec@bcd,w
 10372     0010  00F3               	movwf	??_BCD_to_dec
 10373     0011  300A               	movlw	10
 10374     0012  00F0               	movwf	___bmul@multiplicand
 10375     0013  0875               	movf	BCD_to_dec@bcd,w
 10376     0014  00F4               	movwf	??_BCD_to_dec+1
 10377     0015  3004               	movlw	4
 10378     0016                     u7145:
 10379     0016  1003               	clrc
 10380     0017  0CF4               	rrf	??_BCD_to_dec+1,f
 10381     0018  3EFF               	addlw	-1
 10382     0019  1D03               	skipz
 10383     001A  2816               	goto	u7145
 10384     001B  0874               	movf	??_BCD_to_dec+1,w
 10385     001C  160A  158A  237B  120A  118A  	fcall	___bmul
 10386     0021  0773               	addwf	??_BCD_to_dec,w
 10387     0022                     l188:
 10388     0022  0008               	return
 10389     0023                     __end_of_BCD_to_dec:
 10390                           
 10391                           	psect	text41
 10392     1B7B                     __ptext41:	
 10393 ;; *************** function ___bmul *****************
 10394 ;; Defined at:
 10395 ;;		line 4 in file "C:\Program Files\Microchip\xc8\v3.10\pic\sources\c99\common\Umul8.c"
 10396 ;; Parameters:    Size  Location     Type
 10397 ;;  multiplier      1    wreg     unsigned char 
 10398 ;;  multiplicand    1    0[COMMON] unsigned char 
 10399 ;; Auto vars:     Size  Location     Type
 10400 ;;  multiplier      1    2[COMMON] unsigned char 
 10401 ;;  product         1    1[COMMON] unsigned char 
 10402 ;; Return value:  Size  Location     Type
 10403 ;;                  1    wreg      unsigned char 
 10404 ;; Registers used:
 10405 ;;		wreg, status,2, status,0
 10406 ;; Tracked objects:
 10407 ;;		On entry : 0/0
 10408 ;;		On exit  : 0/0
 10409 ;;		Unchanged: 0/0
 10410 ;; Data sizes:     COMMON   BANK0   BANK1   BANK3   BANK2
 10411 ;;      Params:         1       0       0       0       0
 10412 ;;      Locals:         2       0       0       0       0
 10413 ;;      Temps:          0       0       0       0       0
 10414 ;;      Totals:         3       0       0       0       0
 10415 ;;Total ram usage:        3 bytes
 10416 ;; Hardware stack levels used: 1
 10417 ;; This function calls:
 10418 ;;		Nothing
 10419 ;; This function is called by:
 10420 ;;		_BCD_to_dec
 10421 ;; This function uses a non-reentrant model
 10422 ;;
 10423                           
 10424     1B7B                     ___bmul:	
 10425                           ;psect for function ___bmul
 10426                           
 10427                           
 10428                           ;incstack = 0
 10429                           ; Regs used in ___bmul: [wreg+status,2+status,0]
 10430                           ;___bmul@multiplier stored from wreg
 10431     1B7B  00F2               	movwf	___bmul@multiplier
 10432     1B7C                     l4814:
 10433     1B7C  01F1               	clrf	___bmul@product
 10434     1B7D                     l4816:
 10435     1B7D  1C72               	btfss	___bmul@multiplier,0
 10436     1B7E  2B80               	goto	u6981
 10437     1B7F  2B81               	goto	u6980
 10438     1B80                     u6981:
 10439     1B80  2B83               	goto	l4820
 10440     1B81                     u6980:
 10441     1B81                     l4818:
 10442     1B81  0870               	movf	___bmul@multiplicand,w
 10443     1B82  07F1               	addwf	___bmul@product,f
 10444     1B83                     l4820:
 10445     1B83  1003               	clrc
 10446     1B84  0DF0               	rlf	___bmul@multiplicand,f
 10447     1B85                     l4822:
 10448     1B85  1003               	clrc
 10449     1B86  0CF2               	rrf	___bmul@multiplier,f
 10450     1B87  0872               	movf	___bmul@multiplier,w
 10451     1B88  1D03               	btfss	3,2
 10452     1B89  2B8B               	goto	u6991
 10453     1B8A  2B8C               	goto	u6990
 10454     1B8B                     u6991:
 10455     1B8B  2B7D               	goto	l4816
 10456     1B8C                     u6990:
 10457     1B8C                     l4824:
 10458     1B8C  0871               	movf	___bmul@product,w
 10459     1B8D                     l412:
 10460     1B8D  0008               	return
 10461     1B8E                     __end_of___bmul:
 10462                           
 10463                           	psect	text42
 10464     1640                     __ptext42:	
 10465 ;; *************** function _DHT22_read *****************
 10466 ;; Defined at:
 10467 ;;		line 10 in file "dht22.c"
 10468 ;; Parameters:    Size  Location     Type
 10469 ;;  dht_temperat    1   52[BANK0 ] PTR float 
 10470 ;;		 -> main@tf(4), 
 10471 ;;  dht_humedad     1   53[BANK0 ] PTR float 
 10472 ;;		 -> main@hf(4), 
 10473 ;; Auto vars:     Size  Location     Type
 10474 ;;  result          1   61[BANK0 ] unsigned char 
 10475 ;;  bits            5   62[BANK0 ] unsigned char [5]
 10476 ;;  rawtemperatu    2   67[BANK0 ] unsigned short 
 10477 ;;  rawhumidity     2   58[BANK0 ] unsigned short 
 10478 ;;  timeout         1   71[BANK0 ] unsigned char 
 10479 ;;  j               1   70[BANK0 ] unsigned char 
 10480 ;;  i               1   69[BANK0 ] unsigned char 
 10481 ;;  checksum        1   60[BANK0 ] unsigned char 
 10482 ;; Return value:  Size  Location     Type
 10483 ;;                  1    wreg      unsigned char 
 10484 ;; Registers used:
 10485 ;;		wreg, fsr0l, fsr0h, status,2, status,0, pclath, btemp1, cstack
 10486 ;; Tracked objects:
 10487 ;;		On entry : 0/0
 10488 ;;		On exit  : 0/0
 10489 ;;		Unchanged: 0/0
 10490 ;; Data sizes:     COMMON   BANK0   BANK1   BANK3   BANK2
 10491 ;;      Params:         0       2       0       0       0
 10492 ;;      Locals:         0      14       0       0       0
 10493 ;;      Temps:          0       4       0       0       0
 10494 ;;      Totals:         0      20       0       0       0
 10495 ;;Total ram usage:       20 bytes
 10496 ;; Hardware stack levels used: 1
 10497 ;; Hardware stack levels required when called: 2
 10498 ;; This function calls:
 10499 ;;		___fldiv
 10500 ;;		___flmul
 10501 ;;		___xxtofl
 10502 ;; This function is called by:
 10503 ;;		_main
 10504 ;; This function uses a non-reentrant model
 10505 ;;
 10506                           
 10507     1640                     _DHT22_read:	
 10508                           ;psect for function _DHT22_read
 10509                           
 10510     1640                     l5578:	
 10511                           ;incstack = 0
 10512                           ; Regs used in _DHT22_read: [wreg-fsr0h+status,2+status,0+pclath+btemp1+cstack]
 10513                           
 10514     1640                     l5580:
 10515                           
 10516                           ;dht22.c: 13:     uint8_t timeout;;dht22.c: 15:     TRISDbits.TRISD0 = 0;
 10517     1640  1683               	bsf	3,5	;RP0=1, select bank1
 10518     1641  1303               	bcf	3,6	;RP1=0, select bank1
 10519     1642  1008               	bcf	8,0	;volatile
 10520     1643                     l5582:
 10521                           
 10522                           ;dht22.c: 16:     PORTDbits.RD0 = 0;
 10523     1643  1283               	bcf	3,5	;RP0=0, select bank0
 10524     1644  1303               	bcf	3,6	;RP1=0, select bank0
 10525     1645  1008               	bcf	8,0	;volatile
 10526     1646                     l5584:
 10527                           
 10528                           ;dht22.c: 17:     _delay((unsigned long)((2)*(20000000/4000.0)));
 10529     1646  300D               	movlw	13
 10530     1647  1283               	bcf	3,5	;RP0=0, select bank0
 10531     1648  1303               	bcf	3,6	;RP1=0, select bank0
 10532     1649  00D7               	movwf	??_DHT22_read+1
 10533     164A  30FB               	movlw	251
 10534     164B  00D6               	movwf	??_DHT22_read
 10535     164C                     u9577:
 10536     164C  0BD6               	decfsz	??_DHT22_read,f
 10537     164D  2E4C               	goto	u9577
 10538     164E  0BD7               	decfsz	??_DHT22_read+1,f
 10539     164F  2E4C               	goto	u9577
 10540     1650                     l5586:
 10541                           
 10542                           ;dht22.c: 19:     PORTDbits.RD0 = 1;
 10543     1650  1283               	bcf	3,5	;RP0=0, select bank0
 10544     1651  1303               	bcf	3,6	;RP1=0, select bank0
 10545     1652  1408               	bsf	8,0	;volatile
 10546     1653                     l5588:
 10547                           
 10548                           ;dht22.c: 20:     _delay((unsigned long)((30)*(20000000/4000000.0)));
 10549     1653  3031               	movlw	49
 10550     1654  1283               	bcf	3,5	;RP0=0, select bank0
 10551     1655  1303               	bcf	3,6	;RP1=0, select bank0
 10552     1656  00D6               	movwf	??_DHT22_read
 10553     1657                     u9587:
 10554     1657  0BD6               	decfsz	??_DHT22_read,f
 10555     1658  2E57               	goto	u9587
 10556     1659                     l5590:
 10557                           
 10558                           ;dht22.c: 22:     TRISDbits.TRISD0 = 1;
 10559     1659  1683               	bsf	3,5	;RP0=1, select bank1
 10560     165A  1303               	bcf	3,6	;RP1=0, select bank1
 10561     165B  1408               	bsf	8,0	;volatile
 10562                           
 10563                           ;dht22.c: 24:     timeout = 0;
 10564     165C  1283               	bcf	3,5	;RP0=0, select bank0
 10565     165D  1303               	bcf	3,6	;RP1=0, select bank0
 10566     165E  01E7               	clrf	DHT22_read@timeout
 10567                           
 10568                           ;dht22.c: 25:     while(PORTDbits.RD0) {
 10569     165F  2E75               	goto	l209
 10570     1660                     l210:
 10571                           
 10572                           ;dht22.c: 26:         _delay((unsigned long)((1)*(20000000/4000000.0)));
 10573     1660  2E61               	nop2	;2 cycle nop
 10574     1661  2E62               	nop2	;2 cycle nop
 10575     1662  0000               	nop
 10576     1663                     l5592:
 10577                           
 10578                           ;dht22.c: 27:         timeout++;
 10579     1663  3001               	movlw	1
 10580     1664  1283               	bcf	3,5	;RP0=0, select bank0
 10581     1665  1303               	bcf	3,6	;RP1=0, select bank0
 10582     1666  07E7               	addwf	DHT22_read@timeout,f
 10583     1667                     l5594:
 10584                           
 10585                           ;dht22.c: 28:         if(timeout > 100) {
 10586     1667  3065               	movlw	101
 10587     1668  0267               	subwf	DHT22_read@timeout,w
 10588     1669  1C03               	skipc
 10589     166A  2E6C               	goto	u8231
 10590     166B  2E6D               	goto	u8230
 10591     166C                     u8231:
 10592     166C  2E75               	goto	l209
 10593     166D                     u8230:
 10594     166D                     l5596:
 10595                           
 10596                           ;dht22.c: 29:             TRISDbits.TRISD0 = 0;
 10597     166D  1683               	bsf	3,5	;RP0=1, select bank1
 10598     166E  1303               	bcf	3,6	;RP1=0, select bank1
 10599     166F  1008               	bcf	8,0	;volatile
 10600                           
 10601                           ;dht22.c: 30:             PORTDbits.RD0 = 1;
 10602     1670  1283               	bcf	3,5	;RP0=0, select bank0
 10603     1671  1303               	bcf	3,6	;RP1=0, select bank0
 10604     1672  1408               	bsf	8,0	;volatile
 10605     1673                     l5598:
 10606                           
 10607                           ;dht22.c: 31:             return 0;
 10608     1673  3000               	movlw	0
 10609     1674  2FFF               	goto	l212
 10610     1675                     l209:	
 10611                           ;dht22.c: 33:     }
 10612                           
 10613                           
 10614                           ;dht22.c: 25:     while(PORTDbits.RD0) {
 10615     1675  1808               	btfsc	8,0	;volatile
 10616     1676  2E78               	goto	u8241
 10617     1677  2E79               	goto	u8240
 10618     1678                     u8241:
 10619     1678  2E60               	goto	l210
 10620     1679                     u8240:
 10621     1679                     l5602:
 10622                           
 10623                           ;dht22.c: 35:     timeout = 0;
 10624     1679  01E7               	clrf	DHT22_read@timeout
 10625                           
 10626                           ;dht22.c: 36:     while(!PORTDbits.RD0) {
 10627     167A  2E8F               	goto	l214
 10628     167B                     l215:
 10629                           
 10630                           ;dht22.c: 37:         _delay((unsigned long)((1)*(20000000/4000000.0)));
 10631     167B  2E7C               	nop2	;2 cycle nop
 10632     167C  2E7D               	nop2	;2 cycle nop
 10633     167D  0000               	nop
 10634     167E                     l5604:
 10635                           
 10636                           ;dht22.c: 38:         timeout++;
 10637     167E  3001               	movlw	1
 10638     167F  1283               	bcf	3,5	;RP0=0, select bank0
 10639     1680  1303               	bcf	3,6	;RP1=0, select bank0
 10640     1681  07E7               	addwf	DHT22_read@timeout,f
 10641     1682                     l5606:
 10642                           
 10643                           ;dht22.c: 39:         if(timeout > 100) {
 10644     1682  3065               	movlw	101
 10645     1683  0267               	subwf	DHT22_read@timeout,w
 10646     1684  1C03               	skipc
 10647     1685  2E87               	goto	u8251
 10648     1686  2E88               	goto	u8250
 10649     1687                     u8251:
 10650     1687  2E8F               	goto	l214
 10651     1688                     u8250:
 10652     1688                     l5608:
 10653                           
 10654                           ;dht22.c: 40:             TRISDbits.TRISD0 = 0;
 10655     1688  1683               	bsf	3,5	;RP0=1, select bank1
 10656     1689  1303               	bcf	3,6	;RP1=0, select bank1
 10657     168A  1008               	bcf	8,0	;volatile
 10658                           
 10659                           ;dht22.c: 41:             PORTDbits.RD0 = 1;
 10660     168B  1283               	bcf	3,5	;RP0=0, select bank0
 10661     168C  1303               	bcf	3,6	;RP1=0, select bank0
 10662     168D  1408               	bsf	8,0	;volatile
 10663     168E  2E73               	goto	l5598
 10664     168F                     l214:	
 10665                           ;dht22.c: 44:     }
 10666                           
 10667                           
 10668                           ;dht22.c: 36:     while(!PORTDbits.RD0) {
 10669     168F  1C08               	btfss	8,0	;volatile
 10670     1690  2E92               	goto	u8261
 10671     1691  2E93               	goto	u8260
 10672     1692                     u8261:
 10673     1692  2E7B               	goto	l215
 10674     1693                     u8260:
 10675     1693                     l5614:
 10676                           
 10677                           ;dht22.c: 46:     timeout = 0;
 10678     1693  01E7               	clrf	DHT22_read@timeout
 10679                           
 10680                           ;dht22.c: 47:     while(PORTDbits.RD0) {
 10681     1694  2EA9               	goto	l218
 10682     1695                     l219:
 10683                           
 10684                           ;dht22.c: 48:         _delay((unsigned long)((1)*(20000000/4000000.0)));
 10685     1695  2E96               	nop2	;2 cycle nop
 10686     1696  2E97               	nop2	;2 cycle nop
 10687     1697  0000               	nop
 10688     1698                     l5616:
 10689                           
 10690                           ;dht22.c: 49:         timeout++;
 10691     1698  3001               	movlw	1
 10692     1699  1283               	bcf	3,5	;RP0=0, select bank0
 10693     169A  1303               	bcf	3,6	;RP1=0, select bank0
 10694     169B  07E7               	addwf	DHT22_read@timeout,f
 10695     169C                     l5618:
 10696                           
 10697                           ;dht22.c: 50:         if(timeout > 100) {
 10698     169C  3065               	movlw	101
 10699     169D  0267               	subwf	DHT22_read@timeout,w
 10700     169E  1C03               	skipc
 10701     169F  2EA1               	goto	u8271
 10702     16A0  2EA2               	goto	u8270
 10703     16A1                     u8271:
 10704     16A1  2EA9               	goto	l218
 10705     16A2                     u8270:
 10706     16A2                     l5620:
 10707                           
 10708                           ;dht22.c: 51:             TRISDbits.TRISD0 = 0;
 10709     16A2  1683               	bsf	3,5	;RP0=1, select bank1
 10710     16A3  1303               	bcf	3,6	;RP1=0, select bank1
 10711     16A4  1008               	bcf	8,0	;volatile
 10712                           
 10713                           ;dht22.c: 52:             PORTDbits.RD0 = 1;
 10714     16A5  1283               	bcf	3,5	;RP0=0, select bank0
 10715     16A6  1303               	bcf	3,6	;RP1=0, select bank0
 10716     16A7  1408               	bsf	8,0	;volatile
 10717     16A8  2E73               	goto	l5598
 10718     16A9                     l218:	
 10719                           ;dht22.c: 55:     }
 10720                           
 10721                           
 10722                           ;dht22.c: 47:     while(PORTDbits.RD0) {
 10723     16A9  1808               	btfsc	8,0	;volatile
 10724     16AA  2EAC               	goto	u8281
 10725     16AB  2EAD               	goto	u8280
 10726     16AC                     u8281:
 10727     16AC  2E95               	goto	l219
 10728     16AD                     u8280:
 10729     16AD                     l5626:
 10730                           
 10731                           ;dht22.c: 57:     for (j = 0; j < 5; j++){
 10732     16AD  01E6               	clrf	DHT22_read@j
 10733     16AE                     l5632:
 10734                           
 10735                           ;dht22.c: 58:         uint8_t result = 0;
 10736     16AE  01DD               	clrf	DHT22_read@result
 10737                           
 10738                           ;dht22.c: 59:         for (i = 0; i < 8; i++){
 10739     16AF  01E5               	clrf	DHT22_read@i
 10740     16B0                     l5638:
 10741                           
 10742                           ;dht22.c: 60:             timeout = 0;
 10743     16B0  01E7               	clrf	DHT22_read@timeout
 10744                           
 10745                           ;dht22.c: 61:             while (!PORTDbits.RD0) {
 10746     16B1  2EC6               	goto	l226
 10747     16B2                     l227:
 10748                           
 10749                           ;dht22.c: 62:                 _delay((unsigned long)((1)*(20000000/4000000.0)));
 10750     16B2  2EB3               	nop2	;2 cycle nop
 10751     16B3  2EB4               	nop2	;2 cycle nop
 10752     16B4  0000               	nop
 10753     16B5                     l5640:
 10754                           
 10755                           ;dht22.c: 63:                 timeout++;
 10756     16B5  3001               	movlw	1
 10757     16B6  1283               	bcf	3,5	;RP0=0, select bank0
 10758     16B7  1303               	bcf	3,6	;RP1=0, select bank0
 10759     16B8  07E7               	addwf	DHT22_read@timeout,f
 10760     16B9                     l5642:
 10761                           
 10762                           ;dht22.c: 64:                 if(timeout > 100) {
 10763     16B9  3065               	movlw	101
 10764     16BA  0267               	subwf	DHT22_read@timeout,w
 10765     16BB  1C03               	skipc
 10766     16BC  2EBE               	goto	u8291
 10767     16BD  2EBF               	goto	u8290
 10768     16BE                     u8291:
 10769     16BE  2EC6               	goto	l226
 10770     16BF                     u8290:
 10771     16BF                     l5644:
 10772                           
 10773                           ;dht22.c: 65:                     TRISDbits.TRISD0 = 0;
 10774     16BF  1683               	bsf	3,5	;RP0=1, select bank1
 10775     16C0  1303               	bcf	3,6	;RP1=0, select bank1
 10776     16C1  1008               	bcf	8,0	;volatile
 10777                           
 10778                           ;dht22.c: 66:                     PORTDbits.RD0 = 1;
 10779     16C2  1283               	bcf	3,5	;RP0=0, select bank0
 10780     16C3  1303               	bcf	3,6	;RP1=0, select bank0
 10781     16C4  1408               	bsf	8,0	;volatile
 10782     16C5  2E73               	goto	l5598
 10783     16C6                     l226:	
 10784                           ;dht22.c: 69:             }
 10785                           
 10786                           
 10787                           ;dht22.c: 61:             while (!PORTDbits.RD0) {
 10788     16C6  1C08               	btfss	8,0	;volatile
 10789     16C7  2EC9               	goto	u8301
 10790     16C8  2ECA               	goto	u8300
 10791     16C9                     u8301:
 10792     16C9  2EB2               	goto	l227
 10793     16CA                     u8300:
 10794     16CA                     l5650:
 10795                           
 10796                           ;dht22.c: 71:             _delay((unsigned long)((30)*(20000000/4000000.0)));
 10797     16CA  3031               	movlw	49
 10798     16CB  1283               	bcf	3,5	;RP0=0, select bank0
 10799     16CC  1303               	bcf	3,6	;RP1=0, select bank0
 10800     16CD  00D6               	movwf	??_DHT22_read
 10801     16CE                     u9597:
 10802     16CE  0BD6               	decfsz	??_DHT22_read,f
 10803     16CF  2ECE               	goto	u9597
 10804     16D0                     l5652:
 10805                           
 10806                           ;dht22.c: 73:             if (PORTDbits.RD0) {
 10807     16D0  1283               	bcf	3,5	;RP0=0, select bank0
 10808     16D1  1303               	bcf	3,6	;RP1=0, select bank0
 10809     16D2  1C08               	btfss	8,0	;volatile
 10810     16D3  2ED5               	goto	u8311
 10811     16D4  2ED6               	goto	u8310
 10812     16D5                     u8311:
 10813     16D5  2EE3               	goto	l5656
 10814     16D6                     u8310:
 10815     16D6                     l5654:
 10816                           
 10817                           ;dht22.c: 74:                 result |= (1 << (7 - i));
 10818     16D6  3001               	movlw	1
 10819     16D7  00D6               	movwf	??_DHT22_read
 10820     16D8  0865               	movf	DHT22_read@i,w
 10821     16D9  3C07               	sublw	7
 10822     16DA  3E01               	addlw	1
 10823     16DB  2EDE               	goto	u8324
 10824     16DC                     u8325:
 10825     16DC  1003               	clrc
 10826     16DD  0DD6               	rlf	??_DHT22_read,f
 10827     16DE                     u8324:
 10828     16DE  3EFF               	addlw	-1
 10829     16DF  1D03               	skipz
 10830     16E0  2EDC               	goto	u8325
 10831     16E1  0856               	movf	??_DHT22_read,w
 10832     16E2  04DD               	iorwf	DHT22_read@result,f
 10833     16E3                     l5656:
 10834                           
 10835                           ;dht22.c: 77:             timeout = 0;
 10836     16E3  01E7               	clrf	DHT22_read@timeout
 10837                           
 10838                           ;dht22.c: 78:             while(PORTDbits.RD0) {
 10839     16E4  2EF9               	goto	l231
 10840     16E5                     l232:
 10841                           
 10842                           ;dht22.c: 79:                 _delay((unsigned long)((1)*(20000000/4000000.0)));
 10843     16E5  2EE6               	nop2	;2 cycle nop
 10844     16E6  2EE7               	nop2	;2 cycle nop
 10845     16E7  0000               	nop
 10846     16E8                     l5658:
 10847                           
 10848                           ;dht22.c: 80:                 timeout++;
 10849     16E8  3001               	movlw	1
 10850     16E9  1283               	bcf	3,5	;RP0=0, select bank0
 10851     16EA  1303               	bcf	3,6	;RP1=0, select bank0
 10852     16EB  07E7               	addwf	DHT22_read@timeout,f
 10853     16EC                     l5660:
 10854                           
 10855                           ;dht22.c: 81:                 if(timeout > 100) {
 10856     16EC  3065               	movlw	101
 10857     16ED  0267               	subwf	DHT22_read@timeout,w
 10858     16EE  1C03               	skipc
 10859     16EF  2EF1               	goto	u8331
 10860     16F0  2EF2               	goto	u8330
 10861     16F1                     u8331:
 10862     16F1  2EF9               	goto	l231
 10863     16F2                     u8330:
 10864     16F2                     l5662:
 10865                           
 10866                           ;dht22.c: 82:                     TRISDbits.TRISD0 = 0;
 10867     16F2  1683               	bsf	3,5	;RP0=1, select bank1
 10868     16F3  1303               	bcf	3,6	;RP1=0, select bank1
 10869     16F4  1008               	bcf	8,0	;volatile
 10870                           
 10871                           ;dht22.c: 83:                     PORTDbits.RD0 = 1;
 10872     16F5  1283               	bcf	3,5	;RP0=0, select bank0
 10873     16F6  1303               	bcf	3,6	;RP1=0, select bank0
 10874     16F7  1408               	bsf	8,0	;volatile
 10875     16F8  2E73               	goto	l5598
 10876     16F9                     l231:	
 10877                           ;dht22.c: 86:             }
 10878                           
 10879                           
 10880                           ;dht22.c: 78:             while(PORTDbits.RD0) {
 10881     16F9  1808               	btfsc	8,0	;volatile
 10882     16FA  2EFC               	goto	u8341
 10883     16FB  2EFD               	goto	u8340
 10884     16FC                     u8341:
 10885     16FC  2EE5               	goto	l232
 10886     16FD                     u8340:
 10887     16FD                     l5668:
 10888                           
 10889                           ;dht22.c: 87:         }
 10890     16FD  3001               	movlw	1
 10891     16FE  07E5               	addwf	DHT22_read@i,f
 10892     16FF                     l5670:
 10893     16FF  3008               	movlw	8
 10894     1700  0265               	subwf	DHT22_read@i,w
 10895     1701  1C03               	skipc
 10896     1702  2F04               	goto	u8351
 10897     1703  2F05               	goto	u8350
 10898     1704                     u8351:
 10899     1704  2EB0               	goto	l5638
 10900     1705                     u8350:
 10901     1705                     l5672:
 10902                           
 10903                           ;dht22.c: 88:         bits[j] = result;
 10904     1705  0866               	movf	DHT22_read@j,w
 10905     1706  3E5E               	addlw	(low (DHT22_read@bits| 0))& (0+255)
 10906     1707  0084               	movwf	4
 10907     1708  085D               	movf	DHT22_read@result,w
 10908     1709  1383               	bcf	3,7	;select IRP bank0
 10909     170A  0080               	movwf	0
 10910     170B                     l5674:
 10911                           
 10912                           ;dht22.c: 89:     }
 10913     170B  3001               	movlw	1
 10914     170C  07E6               	addwf	DHT22_read@j,f
 10915     170D                     l5676:
 10916     170D  3005               	movlw	5
 10917     170E  0266               	subwf	DHT22_read@j,w
 10918     170F  1C03               	skipc
 10919     1710  2F12               	goto	u8361
 10920     1711  2F13               	goto	u8360
 10921     1712                     u8361:
 10922     1712  2EAE               	goto	l5632
 10923     1713                     u8360:
 10924     1713                     l223:
 10925                           
 10926                           ;dht22.c: 91:     TRISDbits.TRISD0 = 0;
 10927     1713  1683               	bsf	3,5	;RP0=1, select bank1
 10928     1714  1303               	bcf	3,6	;RP1=0, select bank1
 10929     1715  1008               	bcf	8,0	;volatile
 10930                           
 10931                           ;dht22.c: 92:     PORTDbits.RD0 = 1;
 10932     1716  1283               	bcf	3,5	;RP0=0, select bank0
 10933     1717  1303               	bcf	3,6	;RP1=0, select bank0
 10934     1718  1408               	bsf	8,0	;volatile
 10935     1719                     l5678:
 10936                           
 10937                           ;dht22.c: 94:     uint8_t checksum = bits[0] + bits[1] + bits[2] + bits[3];
 10938     1719  0860               	movf	DHT22_read@bits+2,w
 10939     171A  075F               	addwf	DHT22_read@bits+1,w
 10940     171B  00D6               	movwf	??_DHT22_read
 10941     171C  0861               	movf	DHT22_read@bits+3,w
 10942     171D  0756               	addwf	??_DHT22_read,w
 10943     171E  00D7               	movwf	??_DHT22_read+1
 10944     171F  085E               	movf	DHT22_read@bits,w
 10945     1720  0757               	addwf	??_DHT22_read+1,w
 10946     1721  00DC               	movwf	DHT22_read@checksum
 10947     1722                     l5680:
 10948                           
 10949                           ;dht22.c: 95:     if (checksum != bits[4]){
 10950     1722  0862               	movf	DHT22_read@bits+4,w
 10951     1723  065C               	xorwf	DHT22_read@checksum,w
 10952     1724  1903               	skipnz
 10953     1725  2F27               	goto	u8371
 10954     1726  2F28               	goto	u8370
 10955     1727                     u8371:
 10956     1727  2F29               	goto	l5686
 10957     1728                     u8370:
 10958     1728  2E73               	goto	l5598
 10959     1729                     l5686:
 10960                           
 10961                           ;dht22.c: 99:     uint16_t rawhumidity = (bits[0] << 8) | bits[1];
 10962     1729  085F               	movf	DHT22_read@bits+1,w
 10963     172A  00D6               	movwf	??_DHT22_read
 10964     172B  01D7               	clrf	??_DHT22_read+1
 10965     172C  085E               	movf	DHT22_read@bits,w
 10966     172D  00D8               	movwf	??_DHT22_read+2
 10967     172E  01D9               	clrf	??_DHT22_read+3
 10968     172F  0858               	movf	??_DHT22_read+2,w
 10969     1730  00D9               	movwf	??_DHT22_read+3
 10970     1731  01D8               	clrf	??_DHT22_read+2
 10971     1732  0856               	movf	??_DHT22_read,w
 10972     1733  0458               	iorwf	??_DHT22_read+2,w
 10973     1734  00DA               	movwf	DHT22_read@rawhumidity
 10974     1735  0857               	movf	??_DHT22_read+1,w
 10975     1736  0459               	iorwf	??_DHT22_read+3,w
 10976     1737  00DB               	movwf	DHT22_read@rawhumidity+1
 10977     1738                     l5688:
 10978                           
 10979                           ;dht22.c: 100:     *dht_humedad = (float)(rawhumidity) / 10.0;
 10980     1738  3041               	movlw	65
 10981     1739  00A3               	movwf	___fldiv@a+3
 10982     173A  3020               	movlw	32
 10983     173B  00A2               	movwf	___fldiv@a+2
 10984     173C  3000               	movlw	0
 10985     173D  00A1               	movwf	___fldiv@a+1
 10986     173E  3000               	movlw	0
 10987     173F  00A0               	movwf	___fldiv@a
 10988     1740  085A               	movf	DHT22_read@rawhumidity,w
 10989     1741  00F0               	movwf	___xxtofl@val
 10990     1742  085B               	movf	DHT22_read@rawhumidity+1,w
 10991     1743  00F1               	movwf	___xxtofl@val+1
 10992     1744  01F2               	clrf	___xxtofl@val+2
 10993     1745  01F3               	clrf	___xxtofl@val+3
 10994     1746  3000               	movlw	0
 10995     1747  160A  118A  2291  160A  118A  	fcall	___xxtofl
 10996     174C  0873               	movf	?___xxtofl+3,w
 10997     174D  1283               	bcf	3,5	;RP0=0, select bank0
 10998     174E  1303               	bcf	3,6	;RP1=0, select bank0
 10999     174F  00A7               	movwf	___fldiv@b+3
 11000     1750  0872               	movf	?___xxtofl+2,w
 11001     1751  00A6               	movwf	___fldiv@b+2
 11002     1752  0871               	movf	?___xxtofl+1,w
 11003     1753  00A5               	movwf	___fldiv@b+1
 11004     1754  0870               	movf	?___xxtofl,w
 11005     1755  00A4               	movwf	___fldiv@b
 11006     1756  120A  158A  2098  160A  118A  	fcall	___fldiv
 11007     175B  1283               	bcf	3,5	;RP0=0, select bank0
 11008     175C  1303               	bcf	3,6	;RP1=0, select bank0
 11009     175D  0855               	movf	DHT22_read@dht_humedad,w
 11010     175E  0084               	movwf	4
 11011     175F  0820               	movf	?___fldiv,w
 11012     1760  1383               	bcf	3,7	;select IRP bank0
 11013     1761  0080               	movwf	0
 11014     1762  0A84               	incf	4,f
 11015     1763  0821               	movf	?___fldiv+1,w
 11016     1764  0080               	movwf	0
 11017     1765  0A84               	incf	4,f
 11018     1766  0822               	movf	?___fldiv+2,w
 11019     1767  0080               	movwf	0
 11020     1768  0A84               	incf	4,f
 11021     1769  0823               	movf	?___fldiv+3,w
 11022     176A  0080               	movwf	0
 11023     176B                     l5690:
 11024                           
 11025                           ;dht22.c: 102:     uint16_t rawtemperature = (bits[2] << 8) | bits[3];
 11026     176B  0861               	movf	DHT22_read@bits+3,w
 11027     176C  00D6               	movwf	??_DHT22_read
 11028     176D  01D7               	clrf	??_DHT22_read+1
 11029     176E  0860               	movf	DHT22_read@bits+2,w
 11030     176F  00D8               	movwf	??_DHT22_read+2
 11031     1770  01D9               	clrf	??_DHT22_read+3
 11032     1771  0858               	movf	??_DHT22_read+2,w
 11033     1772  00D9               	movwf	??_DHT22_read+3
 11034     1773  01D8               	clrf	??_DHT22_read+2
 11035     1774  0856               	movf	??_DHT22_read,w
 11036     1775  0458               	iorwf	??_DHT22_read+2,w
 11037     1776  00E3               	movwf	DHT22_read@rawtemperature
 11038     1777  0857               	movf	??_DHT22_read+1,w
 11039     1778  0459               	iorwf	??_DHT22_read+3,w
 11040     1779  00E4               	movwf	DHT22_read@rawtemperature+1
 11041     177A                     l5692:
 11042                           
 11043                           ;dht22.c: 104:     if (rawtemperature & 0x8000){
 11044     177A  1FE4               	btfss	DHT22_read@rawtemperature+1,7
 11045     177B  2F7D               	goto	u8381
 11046     177C  2F7E               	goto	u8380
 11047     177D                     u8381:
 11048     177D  2FCB               	goto	l5696
 11049     177E                     u8380:
 11050     177E                     l5694:
 11051                           
 11052                           ;dht22.c: 105:         *dht_temperatura = (float)((rawtemperature & 0x7FFF) / 10.0) * -1
      +                          .0;
 11053     177E  30BF               	movlw	191
 11054     177F  00BD               	movwf	___flmul@b+3
 11055     1780  3080               	movlw	128
 11056     1781  00BC               	movwf	___flmul@b+2
 11057     1782  3000               	movlw	0
 11058     1783  00BB               	movwf	___flmul@b+1
 11059     1784  3000               	movlw	0
 11060     1785  00BA               	movwf	___flmul@b
 11061     1786  3041               	movlw	65
 11062     1787  00A3               	movwf	___fldiv@a+3
 11063     1788  3020               	movlw	32
 11064     1789  00A2               	movwf	___fldiv@a+2
 11065     178A  3000               	movlw	0
 11066     178B  00A1               	movwf	___fldiv@a+1
 11067     178C  3000               	movlw	0
 11068     178D  00A0               	movwf	___fldiv@a
 11069     178E  30FF               	movlw	255
 11070     178F  0563               	andwf	DHT22_read@rawtemperature,w
 11071     1790  00F0               	movwf	___xxtofl@val
 11072     1791  307F               	movlw	127
 11073     1792  0564               	andwf	DHT22_read@rawtemperature+1,w
 11074     1793  00F1               	movwf	___xxtofl@val+1
 11075     1794  01F2               	clrf	___xxtofl@val+2
 11076     1795  01F3               	clrf	___xxtofl@val+3
 11077     1796  3000               	movlw	0
 11078     1797  160A  118A  2291  160A  118A  	fcall	___xxtofl
 11079     179C  0873               	movf	?___xxtofl+3,w
 11080     179D  1283               	bcf	3,5	;RP0=0, select bank0
 11081     179E  1303               	bcf	3,6	;RP1=0, select bank0
 11082     179F  00A7               	movwf	___fldiv@b+3
 11083     17A0  0872               	movf	?___xxtofl+2,w
 11084     17A1  00A6               	movwf	___fldiv@b+2
 11085     17A2  0871               	movf	?___xxtofl+1,w
 11086     17A3  00A5               	movwf	___fldiv@b+1
 11087     17A4  0870               	movf	?___xxtofl,w
 11088     17A5  00A4               	movwf	___fldiv@b
 11089     17A6  120A  158A  2098  160A  118A  	fcall	___fldiv
 11090     17AB  1283               	bcf	3,5	;RP0=0, select bank0
 11091     17AC  1303               	bcf	3,6	;RP1=0, select bank0
 11092     17AD  0823               	movf	?___fldiv+3,w
 11093     17AE  00C1               	movwf	___flmul@a+3
 11094     17AF  0822               	movf	?___fldiv+2,w
 11095     17B0  00C0               	movwf	___flmul@a+2
 11096     17B1  0821               	movf	?___fldiv+1,w
 11097     17B2  00BF               	movwf	___flmul@a+1
 11098     17B3  0820               	movf	?___fldiv,w
 11099     17B4  00BE               	movwf	___flmul@a
 11100     17B5  120A  158A  24BE  160A  118A  	fcall	___flmul
 11101     17BA  1283               	bcf	3,5	;RP0=0, select bank0
 11102     17BB  1303               	bcf	3,6	;RP1=0, select bank0
 11103     17BC  0854               	movf	DHT22_read@dht_temperatura,w
 11104     17BD  0084               	movwf	4
 11105     17BE  083A               	movf	?___flmul,w
 11106     17BF  1783               	bsf	3,7	;select IRP bank2
 11107     17C0  0080               	movwf	0
 11108     17C1  0A84               	incf	4,f
 11109     17C2  083B               	movf	?___flmul+1,w
 11110     17C3  0080               	movwf	0
 11111     17C4  0A84               	incf	4,f
 11112     17C5  083C               	movf	?___flmul+2,w
 11113     17C6  0080               	movwf	0
 11114     17C7  0A84               	incf	4,f
 11115     17C8  083D               	movf	?___flmul+3,w
 11116     17C9  0080               	movwf	0
 11117                           
 11118                           ;dht22.c: 106:     } else {
 11119     17CA  2FFE               	goto	l5698
 11120     17CB                     l5696:
 11121                           
 11122                           ;dht22.c: 107:         *dht_temperatura = (float)(rawtemperature) / 10.0;
 11123     17CB  3041               	movlw	65
 11124     17CC  00A3               	movwf	___fldiv@a+3
 11125     17CD  3020               	movlw	32
 11126     17CE  00A2               	movwf	___fldiv@a+2
 11127     17CF  3000               	movlw	0
 11128     17D0  00A1               	movwf	___fldiv@a+1
 11129     17D1  3000               	movlw	0
 11130     17D2  00A0               	movwf	___fldiv@a
 11131     17D3  0863               	movf	DHT22_read@rawtemperature,w
 11132     17D4  00F0               	movwf	___xxtofl@val
 11133     17D5  0864               	movf	DHT22_read@rawtemperature+1,w
 11134     17D6  00F1               	movwf	___xxtofl@val+1
 11135     17D7  01F2               	clrf	___xxtofl@val+2
 11136     17D8  01F3               	clrf	___xxtofl@val+3
 11137     17D9  3000               	movlw	0
 11138     17DA  160A  118A  2291  160A  118A  	fcall	___xxtofl
 11139     17DF  0873               	movf	?___xxtofl+3,w
 11140     17E0  1283               	bcf	3,5	;RP0=0, select bank0
 11141     17E1  1303               	bcf	3,6	;RP1=0, select bank0
 11142     17E2  00A7               	movwf	___fldiv@b+3
 11143     17E3  0872               	movf	?___xxtofl+2,w
 11144     17E4  00A6               	movwf	___fldiv@b+2
 11145     17E5  0871               	movf	?___xxtofl+1,w
 11146     17E6  00A5               	movwf	___fldiv@b+1
 11147     17E7  0870               	movf	?___xxtofl,w
 11148     17E8  00A4               	movwf	___fldiv@b
 11149     17E9  120A  158A  2098  160A  118A  	fcall	___fldiv
 11150     17EE  1283               	bcf	3,5	;RP0=0, select bank0
 11151     17EF  1303               	bcf	3,6	;RP1=0, select bank0
 11152     17F0  0854               	movf	DHT22_read@dht_temperatura,w
 11153     17F1  0084               	movwf	4
 11154     17F2  0820               	movf	?___fldiv,w
 11155     17F3  1783               	bsf	3,7	;select IRP bank2
 11156     17F4  0080               	movwf	0
 11157     17F5  0A84               	incf	4,f
 11158     17F6  0821               	movf	?___fldiv+1,w
 11159     17F7  0080               	movwf	0
 11160     17F8  0A84               	incf	4,f
 11161     17F9  0822               	movf	?___fldiv+2,w
 11162     17FA  0080               	movwf	0
 11163     17FB  0A84               	incf	4,f
 11164     17FC  0823               	movf	?___fldiv+3,w
 11165     17FD  0080               	movwf	0
 11166     17FE                     l5698:
 11167                           
 11168                           ;dht22.c: 110:     return 1;
 11169     17FE  3001               	movlw	1
 11170     17FF                     l212:
 11171     17FF  0008               	return
 11172     1800                     __end_of_DHT22_read:
 11173                           
 11174                           	psect	text43
 11175     1291                     __ptext43:	
 11176 ;; *************** function ___xxtofl *****************
 11177 ;; Defined at:
 11178 ;;		line 10 in file "C:\Program Files\Microchip\xc8\v3.10\pic\sources\c99\common\xxtofl.c"
 11179 ;; Parameters:    Size  Location     Type
 11180 ;;  sign            1    wreg     unsigned char 
 11181 ;;  val             4    0[COMMON] long 
 11182 ;; Auto vars:     Size  Location     Type
 11183 ;;  sign            1    8[COMMON] unsigned char 
 11184 ;;  arg             4   10[COMMON] unsigned long 
 11185 ;;  exp             1    9[COMMON] unsigned char 
 11186 ;; Return value:  Size  Location     Type
 11187 ;;                  4    0[COMMON] unsigned char 
 11188 ;; Registers used:
 11189 ;;		wreg, status,2, status,0
 11190 ;; Tracked objects:
 11191 ;;		On entry : 0/0
 11192 ;;		On exit  : 0/0
 11193 ;;		Unchanged: 0/0
 11194 ;; Data sizes:     COMMON   BANK0   BANK1   BANK3   BANK2
 11195 ;;      Params:         4       0       0       0       0
 11196 ;;      Locals:         6       0       0       0       0
 11197 ;;      Temps:          4       0       0       0       0
 11198 ;;      Totals:        14       0       0       0       0
 11199 ;;Total ram usage:       14 bytes
 11200 ;; Hardware stack levels used: 1
 11201 ;; This function calls:
 11202 ;;		Nothing
 11203 ;; This function is called by:
 11204 ;;		_DHT22_read
 11205 ;; This function uses a non-reentrant model
 11206 ;;
 11207                           
 11208     1291                     ___xxtofl:	
 11209                           ;psect for function ___xxtofl
 11210                           
 11211                           
 11212                           ;incstack = 0
 11213                           ; Regs used in ___xxtofl: [wreg+status,2+status,0]
 11214                           ;___xxtofl@sign stored from wreg
 11215     1291  00F8               	movwf	___xxtofl@sign
 11216     1292                     l5288:
 11217     1292  0878               	movf	___xxtofl@sign,w
 11218     1293  1903               	btfsc	3,2
 11219     1294  2A96               	goto	u7891
 11220     1295  2A97               	goto	u7890
 11221     1296                     u7891:
 11222     1296  2AAB               	goto	l5294
 11223     1297                     u7890:
 11224     1297                     l5290:
 11225     1297  1FF3               	btfss	___xxtofl@val+3,7
 11226     1298  2A9A               	goto	u7901
 11227     1299  2A9B               	goto	u7900
 11228     129A                     u7901:
 11229     129A  2AAB               	goto	l5294
 11230     129B                     u7900:
 11231     129B                     l5292:
 11232     129B  0970               	comf	___xxtofl@val,w
 11233     129C  00FA               	movwf	___xxtofl@arg
 11234     129D  0971               	comf	___xxtofl@val+1,w
 11235     129E  00FB               	movwf	___xxtofl@arg+1
 11236     129F  0972               	comf	___xxtofl@val+2,w
 11237     12A0  00FC               	movwf	___xxtofl@arg+2
 11238     12A1  0973               	comf	___xxtofl@val+3,w
 11239     12A2  00FD               	movwf	___xxtofl@arg+3
 11240     12A3  0AFA               	incf	___xxtofl@arg,f
 11241     12A4  1903               	skipnz
 11242     12A5  0AFB               	incf	___xxtofl@arg+1,f
 11243     12A6  1903               	skipnz
 11244     12A7  0AFC               	incf	___xxtofl@arg+2,f
 11245     12A8  1903               	skipnz
 11246     12A9  0AFD               	incf	___xxtofl@arg+3,f
 11247     12AA  2AB3               	goto	l827
 11248     12AB                     l5294:
 11249     12AB  0873               	movf	___xxtofl@val+3,w
 11250     12AC  00FD               	movwf	___xxtofl@arg+3
 11251     12AD  0872               	movf	___xxtofl@val+2,w
 11252     12AE  00FC               	movwf	___xxtofl@arg+2
 11253     12AF  0871               	movf	___xxtofl@val+1,w
 11254     12B0  00FB               	movwf	___xxtofl@arg+1
 11255     12B1  0870               	movf	___xxtofl@val,w
 11256     12B2  00FA               	movwf	___xxtofl@arg
 11257     12B3                     l827:
 11258     12B3  0873               	movf	___xxtofl@val+3,w
 11259     12B4  0472               	iorwf	___xxtofl@val+2,w
 11260     12B5  0471               	iorwf	___xxtofl@val+1,w
 11261     12B6  0470               	iorwf	___xxtofl@val,w
 11262     12B7  1D03               	skipz
 11263     12B8  2ABA               	goto	u7911
 11264     12B9  2ABB               	goto	u7910
 11265     12BA                     u7911:
 11266     12BA  2AC4               	goto	l828
 11267     12BB                     u7910:
 11268     12BB                     l5296:
 11269     12BB  3000               	movlw	0
 11270     12BC  00F3               	movwf	?___xxtofl+3
 11271     12BD  3000               	movlw	0
 11272     12BE  00F2               	movwf	?___xxtofl+2
 11273     12BF  3000               	movlw	0
 11274     12C0  00F1               	movwf	?___xxtofl+1
 11275     12C1  3000               	movlw	0
 11276     12C2  00F0               	movwf	?___xxtofl
 11277     12C3  2B44               	goto	l829
 11278     12C4                     l828:
 11279     12C4  3096               	movlw	150
 11280     12C5  00F9               	movwf	___xxtofl@exp
 11281     12C6  2AD2               	goto	l5302
 11282     12C7                     l5300:
 11283     12C7  3001               	movlw	1
 11284     12C8  07F9               	addwf	___xxtofl@exp,f
 11285     12C9  3001               	movlw	1
 11286     12CA                     u7925:
 11287     12CA  1003               	clrc
 11288     12CB  0CFD               	rrf	___xxtofl@arg+3,f
 11289     12CC  0CFC               	rrf	___xxtofl@arg+2,f
 11290     12CD  0CFB               	rrf	___xxtofl@arg+1,f
 11291     12CE  0CFA               	rrf	___xxtofl@arg,f
 11292     12CF  3EFF               	addlw	-1
 11293     12D0  1D03               	skipz
 11294     12D1  2ACA               	goto	u7925
 11295     12D2                     l5302:
 11296     12D2  30FE               	movlw	254
 11297     12D3  057D               	andwf	___xxtofl@arg+3,w
 11298     12D4  1D03               	btfss	3,2
 11299     12D5  2AD7               	goto	u7931
 11300     12D6  2AD8               	goto	u7930
 11301     12D7                     u7931:
 11302     12D7  2AC7               	goto	l5300
 11303     12D8                     u7930:
 11304     12D8  2AF2               	goto	l833
 11305     12D9                     l5304:
 11306     12D9  3001               	movlw	1
 11307     12DA  07F9               	addwf	___xxtofl@exp,f
 11308     12DB                     l5306:
 11309     12DB  3001               	movlw	1
 11310     12DC  07FA               	addwf	___xxtofl@arg,f
 11311     12DD  3000               	movlw	0
 11312     12DE  1803               	skipnc
 11313     12DF  3001               	movlw	1
 11314     12E0  07FB               	addwf	___xxtofl@arg+1,f
 11315     12E1  3000               	movlw	0
 11316     12E2  1803               	skipnc
 11317     12E3  3001               	movlw	1
 11318     12E4  07FC               	addwf	___xxtofl@arg+2,f
 11319     12E5  3000               	movlw	0
 11320     12E6  1803               	skipnc
 11321     12E7  3001               	movlw	1
 11322     12E8  07FD               	addwf	___xxtofl@arg+3,f
 11323     12E9                     l5308:
 11324     12E9  3001               	movlw	1
 11325     12EA                     u7945:
 11326     12EA  1003               	clrc
 11327     12EB  0CFD               	rrf	___xxtofl@arg+3,f
 11328     12EC  0CFC               	rrf	___xxtofl@arg+2,f
 11329     12ED  0CFB               	rrf	___xxtofl@arg+1,f
 11330     12EE  0CFA               	rrf	___xxtofl@arg,f
 11331     12EF  3EFF               	addlw	-1
 11332     12F0  1D03               	skipz
 11333     12F1  2AEA               	goto	u7945
 11334     12F2                     l833:
 11335     12F2  30FF               	movlw	255
 11336     12F3  057D               	andwf	___xxtofl@arg+3,w
 11337     12F4  1D03               	btfss	3,2
 11338     12F5  2AF7               	goto	u7951
 11339     12F6  2AF8               	goto	u7950
 11340     12F7                     u7951:
 11341     12F7  2AD9               	goto	l5304
 11342     12F8                     u7950:
 11343     12F8  2B04               	goto	l5312
 11344     12F9                     l5310:
 11345     12F9  3001               	movlw	1
 11346     12FA  02F9               	subwf	___xxtofl@exp,f
 11347     12FB  3001               	movlw	1
 11348     12FC  00F4               	movwf	??___xxtofl
 11349     12FD                     u7965:
 11350     12FD  1003               	clrc
 11351     12FE  0DFA               	rlf	___xxtofl@arg,f
 11352     12FF  0DFB               	rlf	___xxtofl@arg+1,f
 11353     1300  0DFC               	rlf	___xxtofl@arg+2,f
 11354     1301  0DFD               	rlf	___xxtofl@arg+3,f
 11355     1302  0BF4               	decfsz	??___xxtofl,f
 11356     1303  2AFD               	goto	u7965
 11357     1304                     l5312:
 11358     1304  1BFC               	btfsc	___xxtofl@arg+2,7
 11359     1305  2B07               	goto	u7971
 11360     1306  2B08               	goto	u7970
 11361     1307                     u7971:
 11362     1307  2B0E               	goto	l840
 11363     1308                     u7970:
 11364     1308                     l5314:
 11365     1308  3002               	movlw	2
 11366     1309  0279               	subwf	___xxtofl@exp,w
 11367     130A  1803               	skipnc
 11368     130B  2B0D               	goto	u7981
 11369     130C  2B0E               	goto	u7980
 11370     130D                     u7981:
 11371     130D  2AF9               	goto	l5310
 11372     130E                     u7980:
 11373     130E                     l840:
 11374     130E  1879               	btfsc	___xxtofl@exp,0
 11375     130F  2B11               	goto	u7991
 11376     1310  2B12               	goto	u7990
 11377     1311                     u7991:
 11378     1311  2B1A               	goto	l841
 11379     1312                     u7990:
 11380     1312                     l5316:
 11381     1312  30FF               	movlw	255
 11382     1313  05FA               	andwf	___xxtofl@arg,f
 11383     1314  30FF               	movlw	255
 11384     1315  05FB               	andwf	___xxtofl@arg+1,f
 11385     1316  307F               	movlw	127
 11386     1317  05FC               	andwf	___xxtofl@arg+2,f
 11387     1318  30FF               	movlw	255
 11388     1319  05FD               	andwf	___xxtofl@arg+3,f
 11389     131A                     l841:
 11390     131A  1003               	clrc
 11391     131B  0CF9               	rrf	___xxtofl@exp,f
 11392     131C                     l5318:
 11393     131C  0879               	movf	___xxtofl@exp,w
 11394     131D  00F4               	movwf	??___xxtofl
 11395     131E  01F5               	clrf	??___xxtofl+1
 11396     131F  01F6               	clrf	??___xxtofl+2
 11397     1320  01F7               	clrf	??___xxtofl+3
 11398     1321  3018               	movlw	24
 11399     1322                     u8005:
 11400     1322  1003               	clrc
 11401     1323  0DF4               	rlf	??___xxtofl,f
 11402     1324  0DF5               	rlf	??___xxtofl+1,f
 11403     1325  0DF6               	rlf	??___xxtofl+2,f
 11404     1326  0DF7               	rlf	??___xxtofl+3,f
 11405     1327                     u8000:
 11406     1327  3EFF               	addlw	-1
 11407     1328  1D03               	skipz
 11408     1329  2B22               	goto	u8005
 11409     132A  0874               	movf	??___xxtofl,w
 11410     132B  04FA               	iorwf	___xxtofl@arg,f
 11411     132C  0875               	movf	??___xxtofl+1,w
 11412     132D  04FB               	iorwf	___xxtofl@arg+1,f
 11413     132E  0876               	movf	??___xxtofl+2,w
 11414     132F  04FC               	iorwf	___xxtofl@arg+2,f
 11415     1330  0877               	movf	??___xxtofl+3,w
 11416     1331  04FD               	iorwf	___xxtofl@arg+3,f
 11417     1332                     l5320:
 11418     1332  0878               	movf	___xxtofl@sign,w
 11419     1333  1903               	btfsc	3,2
 11420     1334  2B36               	goto	u8011
 11421     1335  2B37               	goto	u8010
 11422     1336                     u8011:
 11423     1336  2B3C               	goto	l5326
 11424     1337                     u8010:
 11425     1337                     l5322:
 11426     1337  1FF3               	btfss	___xxtofl@val+3,7
 11427     1338  2B3A               	goto	u8021
 11428     1339  2B3B               	goto	u8020
 11429     133A                     u8021:
 11430     133A  2B3C               	goto	l5326
 11431     133B                     u8020:
 11432     133B                     l5324:
 11433     133B  17FD               	bsf	___xxtofl@arg+3,7
 11434     133C                     l5326:
 11435     133C  087D               	movf	___xxtofl@arg+3,w
 11436     133D  00F3               	movwf	?___xxtofl+3
 11437     133E  087C               	movf	___xxtofl@arg+2,w
 11438     133F  00F2               	movwf	?___xxtofl+2
 11439     1340  087B               	movf	___xxtofl@arg+1,w
 11440     1341  00F1               	movwf	?___xxtofl+1
 11441     1342  087A               	movf	___xxtofl@arg,w
 11442     1343  00F0               	movwf	?___xxtofl
 11443     1344                     l829:
 11444     1344  0008               	return
 11445     1345                     __end_of___xxtofl:
 11446                           
 11447                           	psect	text44
 11448     0CBE                     __ptext44:	
 11449 ;; *************** function ___flmul *****************
 11450 ;; Defined at:
 11451 ;;		line 8 in file "C:\Program Files\Microchip\xc8\v3.10\pic\sources\c99\common\sprcmul.c"
 11452 ;; Parameters:    Size  Location     Type
 11453 ;;  b               4   26[BANK0 ] unsigned char 
 11454 ;;  a               4   30[BANK0 ] unsigned char 
 11455 ;; Auto vars:     Size  Location     Type
 11456 ;;  prod            4   46[BANK0 ] struct .
 11457 ;;  grs             4   41[BANK0 ] unsigned long 
 11458 ;;  temp            2   50[BANK0 ] struct .
 11459 ;;  bexp            1   45[BANK0 ] unsigned char 
 11460 ;;  aexp            1   40[BANK0 ] unsigned char 
 11461 ;;  sign            1   39[BANK0 ] unsigned char 
 11462 ;; Return value:  Size  Location     Type
 11463 ;;                  4   26[BANK0 ] unsigned char 
 11464 ;; Registers used:
 11465 ;;		wreg, status,2, status,0, pclath, btemp1, cstack
 11466 ;; Tracked objects:
 11467 ;;		On entry : 0/0
 11468 ;;		On exit  : 0/0
 11469 ;;		Unchanged: 0/0
 11470 ;; Data sizes:     COMMON   BANK0   BANK1   BANK3   BANK2
 11471 ;;      Params:         0       8       0       0       0
 11472 ;;      Locals:         0      13       0       0       0
 11473 ;;      Temps:          0       5       0       0       0
 11474 ;;      Totals:         0      26       0       0       0
 11475 ;;Total ram usage:       26 bytes
 11476 ;; Hardware stack levels used: 1
 11477 ;; Hardware stack levels required when called: 1
 11478 ;; This function calls:
 11479 ;;		__Umul8_16
 11480 ;; This function is called by:
 11481 ;;		_DHT22_read
 11482 ;; This function uses a non-reentrant model
 11483 ;;
 11484                           
 11485     0CBE                     ___flmul:	
 11486                           ;psect for function ___flmul
 11487                           
 11488     0CBE                     l5146:	
 11489                           ;incstack = 0
 11490                           ; Regs used in ___flmul: [wreg+status,2+status,0+pclath+btemp1+cstack]
 11491                           
 11492     0CBE  1283               	bcf	3,5	;RP0=0, select bank0
 11493     0CBF  1303               	bcf	3,6	;RP1=0, select bank0
 11494     0CC0  083D               	movf	___flmul@b+3,w
 11495     0CC1  00C7               	movwf	___flmul@sign
 11496     0CC2                     l5148:
 11497     0CC2  3080               	movlw	128
 11498     0CC3  05C7               	andwf	___flmul@sign,f
 11499     0CC4                     l5150:
 11500     0CC4  083D               	movf	___flmul@b+3,w
 11501     0CC5  00C2               	movwf	??___flmul
 11502     0CC6  0742               	addwf	??___flmul,w
 11503     0CC7  00CD               	movwf	___flmul@bexp
 11504     0CC8                     l5152:
 11505     0CC8  1FBC               	btfss	___flmul@b+2,7
 11506     0CC9  2CCB               	goto	u7521
 11507     0CCA  2CCC               	goto	u7520
 11508     0CCB                     u7521:
 11509     0CCB  2CCD               	goto	l5156
 11510     0CCC                     u7520:
 11511     0CCC                     l5154:
 11512     0CCC  144D               	bsf	___flmul@bexp,0
 11513     0CCD                     l5156:
 11514     0CCD  084D               	movf	___flmul@bexp,w
 11515     0CCE  1903               	btfsc	3,2
 11516     0CCF  2CD1               	goto	u7531
 11517     0CD0  2CD2               	goto	u7530
 11518     0CD1                     u7531:
 11519     0CD1  2CE1               	goto	l5164
 11520     0CD2                     u7530:
 11521     0CD2                     l5158:
 11522     0CD2  0A4D               	incf	___flmul@bexp,w
 11523     0CD3  1D03               	btfss	3,2
 11524     0CD4  2CD6               	goto	u7541
 11525     0CD5  2CD7               	goto	u7540
 11526     0CD6                     u7541:
 11527     0CD6  2CDF               	goto	l5162
 11528     0CD7                     u7540:
 11529     0CD7                     l5160:
 11530     0CD7  3000               	movlw	0
 11531     0CD8  00BD               	movwf	___flmul@b+3
 11532     0CD9  3000               	movlw	0
 11533     0CDA  00BC               	movwf	___flmul@b+2
 11534     0CDB  3000               	movlw	0
 11535     0CDC  00BB               	movwf	___flmul@b+1
 11536     0CDD  3000               	movlw	0
 11537     0CDE  00BA               	movwf	___flmul@b
 11538     0CDF                     l5162:
 11539     0CDF  17BC               	bsf	___flmul@b+2,7
 11540     0CE0  2CE9               	goto	l5166
 11541     0CE1                     l5164:
 11542     0CE1  3000               	movlw	0
 11543     0CE2  00BD               	movwf	___flmul@b+3
 11544     0CE3  3000               	movlw	0
 11545     0CE4  00BC               	movwf	___flmul@b+2
 11546     0CE5  3000               	movlw	0
 11547     0CE6  00BB               	movwf	___flmul@b+1
 11548     0CE7  3000               	movlw	0
 11549     0CE8  00BA               	movwf	___flmul@b
 11550     0CE9                     l5166:
 11551     0CE9  0841               	movf	___flmul@a+3,w
 11552     0CEA  3980               	andlw	128
 11553     0CEB  06C7               	xorwf	___flmul@sign,f
 11554     0CEC                     l5168:
 11555     0CEC  0841               	movf	___flmul@a+3,w
 11556     0CED  00C2               	movwf	??___flmul
 11557     0CEE  0742               	addwf	??___flmul,w
 11558     0CEF  00C8               	movwf	___flmul@aexp
 11559     0CF0                     l5170:
 11560     0CF0  1FC0               	btfss	___flmul@a+2,7
 11561     0CF1  2CF3               	goto	u7551
 11562     0CF2  2CF4               	goto	u7550
 11563     0CF3                     u7551:
 11564     0CF3  2CF5               	goto	l5174
 11565     0CF4                     u7550:
 11566     0CF4                     l5172:
 11567     0CF4  1448               	bsf	___flmul@aexp,0
 11568     0CF5                     l5174:
 11569     0CF5  0848               	movf	___flmul@aexp,w
 11570     0CF6  1903               	btfsc	3,2
 11571     0CF7  2CF9               	goto	u7561
 11572     0CF8  2CFA               	goto	u7560
 11573     0CF9                     u7561:
 11574     0CF9  2D09               	goto	l5182
 11575     0CFA                     u7560:
 11576     0CFA                     l5176:
 11577     0CFA  0A48               	incf	___flmul@aexp,w
 11578     0CFB  1D03               	btfss	3,2
 11579     0CFC  2CFE               	goto	u7571
 11580     0CFD  2CFF               	goto	u7570
 11581     0CFE                     u7571:
 11582     0CFE  2D07               	goto	l5180
 11583     0CFF                     u7570:
 11584     0CFF                     l5178:
 11585     0CFF  3000               	movlw	0
 11586     0D00  00C1               	movwf	___flmul@a+3
 11587     0D01  3000               	movlw	0
 11588     0D02  00C0               	movwf	___flmul@a+2
 11589     0D03  3000               	movlw	0
 11590     0D04  00BF               	movwf	___flmul@a+1
 11591     0D05  3000               	movlw	0
 11592     0D06  00BE               	movwf	___flmul@a
 11593     0D07                     l5180:
 11594     0D07  17C0               	bsf	___flmul@a+2,7
 11595     0D08  2D11               	goto	l5184
 11596     0D09                     l5182:
 11597     0D09  3000               	movlw	0
 11598     0D0A  00C1               	movwf	___flmul@a+3
 11599     0D0B  3000               	movlw	0
 11600     0D0C  00C0               	movwf	___flmul@a+2
 11601     0D0D  3000               	movlw	0
 11602     0D0E  00BF               	movwf	___flmul@a+1
 11603     0D0F  3000               	movlw	0
 11604     0D10  00BE               	movwf	___flmul@a
 11605     0D11                     l5184:
 11606     0D11  0848               	movf	___flmul@aexp,w
 11607     0D12  1903               	btfsc	3,2
 11608     0D13  2D15               	goto	u7581
 11609     0D14  2D16               	goto	u7580
 11610     0D15                     u7581:
 11611     0D15  2D1B               	goto	l5188
 11612     0D16                     u7580:
 11613     0D16                     l5186:
 11614     0D16  084D               	movf	___flmul@bexp,w
 11615     0D17  1D03               	btfss	3,2
 11616     0D18  2D1A               	goto	u7591
 11617     0D19  2D1B               	goto	u7590
 11618     0D1A                     u7591:
 11619     0D1A  2D24               	goto	l5192
 11620     0D1B                     u7590:
 11621     0D1B                     l5188:
 11622     0D1B  3000               	movlw	0
 11623     0D1C  00BD               	movwf	?___flmul+3
 11624     0D1D  3000               	movlw	0
 11625     0D1E  00BC               	movwf	?___flmul+2
 11626     0D1F  3000               	movlw	0
 11627     0D20  00BB               	movwf	?___flmul+1
 11628     0D21  3000               	movlw	0
 11629     0D22  00BA               	movwf	?___flmul
 11630     0D23  2FFF               	goto	l783
 11631     0D24                     l5192:
 11632     0D24  083A               	movf	___flmul@b,w
 11633     0D25  00F0               	movwf	__Umul8_16@multiplicand
 11634     0D26  0840               	movf	___flmul@a+2,w
 11635     0D27  160A  158A  247B  120A  158A  	fcall	__Umul8_16
 11636     0D2C  0871               	movf	?__Umul8_16+1,w
 11637     0D2D  1283               	bcf	3,5	;RP0=0, select bank0
 11638     0D2E  1303               	bcf	3,6	;RP1=0, select bank0
 11639     0D2F  00D3               	movwf	___flmul@temp+1
 11640     0D30  0870               	movf	?__Umul8_16,w
 11641     0D31  00D2               	movwf	___flmul@temp
 11642     0D32                     l5194:
 11643     0D32  0852               	movf	___flmul@temp,w
 11644     0D33  00C2               	movwf	??___flmul
 11645     0D34  01C3               	clrf	??___flmul+1
 11646     0D35  01C4               	clrf	??___flmul+2
 11647     0D36  01C5               	clrf	??___flmul+3
 11648     0D37  0845               	movf	??___flmul+3,w
 11649     0D38  00CC               	movwf	___flmul@grs+3
 11650     0D39  0844               	movf	??___flmul+2,w
 11651     0D3A  00CB               	movwf	___flmul@grs+2
 11652     0D3B  0843               	movf	??___flmul+1,w
 11653     0D3C  00CA               	movwf	___flmul@grs+1
 11654     0D3D  0842               	movf	??___flmul,w
 11655     0D3E  00C9               	movwf	___flmul@grs
 11656     0D3F                     l5196:
 11657     0D3F  0853               	movf	___flmul@temp+1,w
 11658     0D40  00C2               	movwf	??___flmul
 11659     0D41  01C3               	clrf	??___flmul+1
 11660     0D42  01C4               	clrf	??___flmul+2
 11661     0D43  01C5               	clrf	??___flmul+3
 11662     0D44  0845               	movf	??___flmul+3,w
 11663     0D45  00D1               	movwf	___flmul@prod+3
 11664     0D46  0844               	movf	??___flmul+2,w
 11665     0D47  00D0               	movwf	___flmul@prod+2
 11666     0D48  0843               	movf	??___flmul+1,w
 11667     0D49  00CF               	movwf	___flmul@prod+1
 11668     0D4A  0842               	movf	??___flmul,w
 11669     0D4B  00CE               	movwf	___flmul@prod
 11670     0D4C  083B               	movf	___flmul@b+1,w
 11671     0D4D  00F0               	movwf	__Umul8_16@multiplicand
 11672     0D4E  083F               	movf	___flmul@a+1,w
 11673     0D4F  160A  158A  247B  120A  158A  	fcall	__Umul8_16
 11674     0D54  0871               	movf	?__Umul8_16+1,w
 11675     0D55  1283               	bcf	3,5	;RP0=0, select bank0
 11676     0D56  1303               	bcf	3,6	;RP1=0, select bank0
 11677     0D57  00D3               	movwf	___flmul@temp+1
 11678     0D58  0870               	movf	?__Umul8_16,w
 11679     0D59  00D2               	movwf	___flmul@temp
 11680     0D5A                     l5198:
 11681     0D5A  0852               	movf	___flmul@temp,w
 11682     0D5B  00C2               	movwf	??___flmul
 11683     0D5C  01C3               	clrf	??___flmul+1
 11684     0D5D  01C4               	clrf	??___flmul+2
 11685     0D5E  01C5               	clrf	??___flmul+3
 11686     0D5F  0842               	movf	??___flmul,w
 11687     0D60  07C9               	addwf	___flmul@grs,f
 11688     0D61  0843               	movf	??___flmul+1,w
 11689     0D62  1103               	clrz
 11690     0D63  1803               	skipnc
 11691     0D64  3E01               	addlw	1
 11692     0D65  1903               	skipnz
 11693     0D66  2D68               	goto	u7601
 11694     0D67  07CA               	addwf	___flmul@grs+1,f
 11695     0D68                     u7601:
 11696     0D68  0844               	movf	??___flmul+2,w
 11697     0D69  1103               	clrz
 11698     0D6A  1803               	skipnc
 11699     0D6B  3E01               	addlw	1
 11700     0D6C  1903               	skipnz
 11701     0D6D  2D6F               	goto	u7602
 11702     0D6E  07CB               	addwf	___flmul@grs+2,f
 11703     0D6F                     u7602:
 11704     0D6F  0845               	movf	??___flmul+3,w
 11705     0D70  1103               	clrz
 11706     0D71  1803               	skipnc
 11707     0D72  3E01               	addlw	1
 11708     0D73  1903               	skipnz
 11709     0D74  2D76               	goto	u7603
 11710     0D75  07CC               	addwf	___flmul@grs+3,f
 11711     0D76                     u7603:
 11712     0D76                     l5200:
 11713     0D76  0853               	movf	___flmul@temp+1,w
 11714     0D77  00C2               	movwf	??___flmul
 11715     0D78  01C3               	clrf	??___flmul+1
 11716     0D79  01C4               	clrf	??___flmul+2
 11717     0D7A  01C5               	clrf	??___flmul+3
 11718     0D7B  0842               	movf	??___flmul,w
 11719     0D7C  07CE               	addwf	___flmul@prod,f
 11720     0D7D  0843               	movf	??___flmul+1,w
 11721     0D7E  1103               	clrz
 11722     0D7F  1803               	skipnc
 11723     0D80  3E01               	addlw	1
 11724     0D81  1903               	skipnz
 11725     0D82  2D84               	goto	u7611
 11726     0D83  07CF               	addwf	___flmul@prod+1,f
 11727     0D84                     u7611:
 11728     0D84  0844               	movf	??___flmul+2,w
 11729     0D85  1103               	clrz
 11730     0D86  1803               	skipnc
 11731     0D87  3E01               	addlw	1
 11732     0D88  1903               	skipnz
 11733     0D89  2D8B               	goto	u7612
 11734     0D8A  07D0               	addwf	___flmul@prod+2,f
 11735     0D8B                     u7612:
 11736     0D8B  0845               	movf	??___flmul+3,w
 11737     0D8C  1103               	clrz
 11738     0D8D  1803               	skipnc
 11739     0D8E  3E01               	addlw	1
 11740     0D8F  1903               	skipnz
 11741     0D90  2D92               	goto	u7613
 11742     0D91  07D1               	addwf	___flmul@prod+3,f
 11743     0D92                     u7613:
 11744     0D92  083C               	movf	___flmul@b+2,w
 11745     0D93  00F0               	movwf	__Umul8_16@multiplicand
 11746     0D94  083E               	movf	___flmul@a,w
 11747     0D95  160A  158A  247B  120A  158A  	fcall	__Umul8_16
 11748     0D9A  0871               	movf	?__Umul8_16+1,w
 11749     0D9B  1283               	bcf	3,5	;RP0=0, select bank0
 11750     0D9C  1303               	bcf	3,6	;RP1=0, select bank0
 11751     0D9D  00D3               	movwf	___flmul@temp+1
 11752     0D9E  0870               	movf	?__Umul8_16,w
 11753     0D9F  00D2               	movwf	___flmul@temp
 11754     0DA0                     l5202:
 11755     0DA0  0852               	movf	___flmul@temp,w
 11756     0DA1  00C2               	movwf	??___flmul
 11757     0DA2  01C3               	clrf	??___flmul+1
 11758     0DA3  01C4               	clrf	??___flmul+2
 11759     0DA4  01C5               	clrf	??___flmul+3
 11760     0DA5  0842               	movf	??___flmul,w
 11761     0DA6  07C9               	addwf	___flmul@grs,f
 11762     0DA7  0843               	movf	??___flmul+1,w
 11763     0DA8  1103               	clrz
 11764     0DA9  1803               	skipnc
 11765     0DAA  3E01               	addlw	1
 11766     0DAB  1903               	skipnz
 11767     0DAC  2DAE               	goto	u7621
 11768     0DAD  07CA               	addwf	___flmul@grs+1,f
 11769     0DAE                     u7621:
 11770     0DAE  0844               	movf	??___flmul+2,w
 11771     0DAF  1103               	clrz
 11772     0DB0  1803               	skipnc
 11773     0DB1  3E01               	addlw	1
 11774     0DB2  1903               	skipnz
 11775     0DB3  2DB5               	goto	u7622
 11776     0DB4  07CB               	addwf	___flmul@grs+2,f
 11777     0DB5                     u7622:
 11778     0DB5  0845               	movf	??___flmul+3,w
 11779     0DB6  1103               	clrz
 11780     0DB7  1803               	skipnc
 11781     0DB8  3E01               	addlw	1
 11782     0DB9  1903               	skipnz
 11783     0DBA  2DBC               	goto	u7623
 11784     0DBB  07CC               	addwf	___flmul@grs+3,f
 11785     0DBC                     u7623:
 11786     0DBC                     l5204:
 11787     0DBC  0853               	movf	___flmul@temp+1,w
 11788     0DBD  00C2               	movwf	??___flmul
 11789     0DBE  01C3               	clrf	??___flmul+1
 11790     0DBF  01C4               	clrf	??___flmul+2
 11791     0DC0  01C5               	clrf	??___flmul+3
 11792     0DC1  0842               	movf	??___flmul,w
 11793     0DC2  07CE               	addwf	___flmul@prod,f
 11794     0DC3  0843               	movf	??___flmul+1,w
 11795     0DC4  1103               	clrz
 11796     0DC5  1803               	skipnc
 11797     0DC6  3E01               	addlw	1
 11798     0DC7  1903               	skipnz
 11799     0DC8  2DCA               	goto	u7631
 11800     0DC9  07CF               	addwf	___flmul@prod+1,f
 11801     0DCA                     u7631:
 11802     0DCA  0844               	movf	??___flmul+2,w
 11803     0DCB  1103               	clrz
 11804     0DCC  1803               	skipnc
 11805     0DCD  3E01               	addlw	1
 11806     0DCE  1903               	skipnz
 11807     0DCF  2DD1               	goto	u7632
 11808     0DD0  07D0               	addwf	___flmul@prod+2,f
 11809     0DD1                     u7632:
 11810     0DD1  0845               	movf	??___flmul+3,w
 11811     0DD2  1103               	clrz
 11812     0DD3  1803               	skipnc
 11813     0DD4  3E01               	addlw	1
 11814     0DD5  1903               	skipnz
 11815     0DD6  2DD8               	goto	u7633
 11816     0DD7  07D1               	addwf	___flmul@prod+3,f
 11817     0DD8                     u7633:
 11818     0DD8                     l5206:
 11819     0DD8  3008               	movlw	8
 11820     0DD9  00C2               	movwf	??___flmul
 11821     0DDA                     u7645:
 11822     0DDA  1003               	clrc
 11823     0DDB  0DC9               	rlf	___flmul@grs,f
 11824     0DDC  0DCA               	rlf	___flmul@grs+1,f
 11825     0DDD  0DCB               	rlf	___flmul@grs+2,f
 11826     0DDE  0DCC               	rlf	___flmul@grs+3,f
 11827     0DDF  0BC2               	decfsz	??___flmul,f
 11828     0DE0  2DDA               	goto	u7645
 11829     0DE1                     l5208:
 11830     0DE1  083B               	movf	___flmul@b+1,w
 11831     0DE2  00F0               	movwf	__Umul8_16@multiplicand
 11832     0DE3  083E               	movf	___flmul@a,w
 11833     0DE4  160A  158A  247B  120A  158A  	fcall	__Umul8_16
 11834     0DE9  0871               	movf	?__Umul8_16+1,w
 11835     0DEA  1283               	bcf	3,5	;RP0=0, select bank0
 11836     0DEB  1303               	bcf	3,6	;RP1=0, select bank0
 11837     0DEC  00D3               	movwf	___flmul@temp+1
 11838     0DED  0870               	movf	?__Umul8_16,w
 11839     0DEE  00D2               	movwf	___flmul@temp
 11840     0DEF                     l5210:
 11841     0DEF  0852               	movf	___flmul@temp,w
 11842     0DF0  00C2               	movwf	??___flmul
 11843     0DF1  0853               	movf	___flmul@temp+1,w
 11844     0DF2  00C3               	movwf	??___flmul+1
 11845     0DF3  01C4               	clrf	??___flmul+2
 11846     0DF4  01C5               	clrf	??___flmul+3
 11847     0DF5  0842               	movf	??___flmul,w
 11848     0DF6  07C9               	addwf	___flmul@grs,f
 11849     0DF7  0843               	movf	??___flmul+1,w
 11850     0DF8  1103               	clrz
 11851     0DF9  1803               	skipnc
 11852     0DFA  3E01               	addlw	1
 11853     0DFB  1903               	skipnz
 11854     0DFC  2DFE               	goto	u7651
 11855     0DFD  07CA               	addwf	___flmul@grs+1,f
 11856     0DFE                     u7651:
 11857     0DFE  0844               	movf	??___flmul+2,w
 11858     0DFF  1103               	clrz
 11859     0E00  1803               	skipnc
 11860     0E01  3E01               	addlw	1
 11861     0E02  1903               	skipnz
 11862     0E03  2E05               	goto	u7652
 11863     0E04  07CB               	addwf	___flmul@grs+2,f
 11864     0E05                     u7652:
 11865     0E05  0845               	movf	??___flmul+3,w
 11866     0E06  1103               	clrz
 11867     0E07  1803               	skipnc
 11868     0E08  3E01               	addlw	1
 11869     0E09  1903               	skipnz
 11870     0E0A  2E0C               	goto	u7653
 11871     0E0B  07CC               	addwf	___flmul@grs+3,f
 11872     0E0C                     u7653:
 11873     0E0C                     l5212:
 11874     0E0C  083A               	movf	___flmul@b,w
 11875     0E0D  00F0               	movwf	__Umul8_16@multiplicand
 11876     0E0E  083F               	movf	___flmul@a+1,w
 11877     0E0F  160A  158A  247B  120A  158A  	fcall	__Umul8_16
 11878     0E14  0871               	movf	?__Umul8_16+1,w
 11879     0E15  1283               	bcf	3,5	;RP0=0, select bank0
 11880     0E16  1303               	bcf	3,6	;RP1=0, select bank0
 11881     0E17  00D3               	movwf	___flmul@temp+1
 11882     0E18  0870               	movf	?__Umul8_16,w
 11883     0E19  00D2               	movwf	___flmul@temp
 11884     0E1A                     l5214:
 11885     0E1A  0852               	movf	___flmul@temp,w
 11886     0E1B  00C2               	movwf	??___flmul
 11887     0E1C  0853               	movf	___flmul@temp+1,w
 11888     0E1D  00C3               	movwf	??___flmul+1
 11889     0E1E  01C4               	clrf	??___flmul+2
 11890     0E1F  01C5               	clrf	??___flmul+3
 11891     0E20  0842               	movf	??___flmul,w
 11892     0E21  07C9               	addwf	___flmul@grs,f
 11893     0E22  0843               	movf	??___flmul+1,w
 11894     0E23  1103               	clrz
 11895     0E24  1803               	skipnc
 11896     0E25  3E01               	addlw	1
 11897     0E26  1903               	skipnz
 11898     0E27  2E29               	goto	u7661
 11899     0E28  07CA               	addwf	___flmul@grs+1,f
 11900     0E29                     u7661:
 11901     0E29  0844               	movf	??___flmul+2,w
 11902     0E2A  1103               	clrz
 11903     0E2B  1803               	skipnc
 11904     0E2C  3E01               	addlw	1
 11905     0E2D  1903               	skipnz
 11906     0E2E  2E30               	goto	u7662
 11907     0E2F  07CB               	addwf	___flmul@grs+2,f
 11908     0E30                     u7662:
 11909     0E30  0845               	movf	??___flmul+3,w
 11910     0E31  1103               	clrz
 11911     0E32  1803               	skipnc
 11912     0E33  3E01               	addlw	1
 11913     0E34  1903               	skipnz
 11914     0E35  2E37               	goto	u7663
 11915     0E36  07CC               	addwf	___flmul@grs+3,f
 11916     0E37                     u7663:
 11917     0E37                     l5216:
 11918     0E37  3008               	movlw	8
 11919     0E38  00C2               	movwf	??___flmul
 11920     0E39                     u7675:
 11921     0E39  1003               	clrc
 11922     0E3A  0DC9               	rlf	___flmul@grs,f
 11923     0E3B  0DCA               	rlf	___flmul@grs+1,f
 11924     0E3C  0DCB               	rlf	___flmul@grs+2,f
 11925     0E3D  0DCC               	rlf	___flmul@grs+3,f
 11926     0E3E  0BC2               	decfsz	??___flmul,f
 11927     0E3F  2E39               	goto	u7675
 11928     0E40  083A               	movf	___flmul@b,w
 11929     0E41  00F0               	movwf	__Umul8_16@multiplicand
 11930     0E42  083E               	movf	___flmul@a,w
 11931     0E43  160A  158A  247B  120A  158A  	fcall	__Umul8_16
 11932     0E48  0871               	movf	?__Umul8_16+1,w
 11933     0E49  1283               	bcf	3,5	;RP0=0, select bank0
 11934     0E4A  1303               	bcf	3,6	;RP1=0, select bank0
 11935     0E4B  00D3               	movwf	___flmul@temp+1
 11936     0E4C  0870               	movf	?__Umul8_16,w
 11937     0E4D  00D2               	movwf	___flmul@temp
 11938     0E4E                     l5218:
 11939     0E4E  0852               	movf	___flmul@temp,w
 11940     0E4F  00C2               	movwf	??___flmul
 11941     0E50  0853               	movf	___flmul@temp+1,w
 11942     0E51  00C3               	movwf	??___flmul+1
 11943     0E52  01C4               	clrf	??___flmul+2
 11944     0E53  01C5               	clrf	??___flmul+3
 11945     0E54  0842               	movf	??___flmul,w
 11946     0E55  07C9               	addwf	___flmul@grs,f
 11947     0E56  0843               	movf	??___flmul+1,w
 11948     0E57  1103               	clrz
 11949     0E58  1803               	skipnc
 11950     0E59  3E01               	addlw	1
 11951     0E5A  1903               	skipnz
 11952     0E5B  2E5D               	goto	u7681
 11953     0E5C  07CA               	addwf	___flmul@grs+1,f
 11954     0E5D                     u7681:
 11955     0E5D  0844               	movf	??___flmul+2,w
 11956     0E5E  1103               	clrz
 11957     0E5F  1803               	skipnc
 11958     0E60  3E01               	addlw	1
 11959     0E61  1903               	skipnz
 11960     0E62  2E64               	goto	u7682
 11961     0E63  07CB               	addwf	___flmul@grs+2,f
 11962     0E64                     u7682:
 11963     0E64  0845               	movf	??___flmul+3,w
 11964     0E65  1103               	clrz
 11965     0E66  1803               	skipnc
 11966     0E67  3E01               	addlw	1
 11967     0E68  1903               	skipnz
 11968     0E69  2E6B               	goto	u7683
 11969     0E6A  07CC               	addwf	___flmul@grs+3,f
 11970     0E6B                     u7683:
 11971     0E6B                     l5220:
 11972     0E6B  083B               	movf	___flmul@b+1,w
 11973     0E6C  00F0               	movwf	__Umul8_16@multiplicand
 11974     0E6D  0840               	movf	___flmul@a+2,w
 11975     0E6E  160A  158A  247B  120A  158A  	fcall	__Umul8_16
 11976     0E73  0871               	movf	?__Umul8_16+1,w
 11977     0E74  1283               	bcf	3,5	;RP0=0, select bank0
 11978     0E75  1303               	bcf	3,6	;RP1=0, select bank0
 11979     0E76  00D3               	movwf	___flmul@temp+1
 11980     0E77  0870               	movf	?__Umul8_16,w
 11981     0E78  00D2               	movwf	___flmul@temp
 11982     0E79  0852               	movf	___flmul@temp,w
 11983     0E7A  00C2               	movwf	??___flmul
 11984     0E7B  0853               	movf	___flmul@temp+1,w
 11985     0E7C  00C3               	movwf	??___flmul+1
 11986     0E7D  01C4               	clrf	??___flmul+2
 11987     0E7E  01C5               	clrf	??___flmul+3
 11988     0E7F  0842               	movf	??___flmul,w
 11989     0E80  07CE               	addwf	___flmul@prod,f
 11990     0E81  0843               	movf	??___flmul+1,w
 11991     0E82  1103               	clrz
 11992     0E83  1803               	skipnc
 11993     0E84  3E01               	addlw	1
 11994     0E85  1903               	skipnz
 11995     0E86  2E88               	goto	u7691
 11996     0E87  07CF               	addwf	___flmul@prod+1,f
 11997     0E88                     u7691:
 11998     0E88  0844               	movf	??___flmul+2,w
 11999     0E89  1103               	clrz
 12000     0E8A  1803               	skipnc
 12001     0E8B  3E01               	addlw	1
 12002     0E8C  1903               	skipnz
 12003     0E8D  2E8F               	goto	u7692
 12004     0E8E  07D0               	addwf	___flmul@prod+2,f
 12005     0E8F                     u7692:
 12006     0E8F  0845               	movf	??___flmul+3,w
 12007     0E90  1103               	clrz
 12008     0E91  1803               	skipnc
 12009     0E92  3E01               	addlw	1
 12010     0E93  1903               	skipnz
 12011     0E94  2E96               	goto	u7693
 12012     0E95  07D1               	addwf	___flmul@prod+3,f
 12013     0E96                     u7693:
 12014     0E96                     l5222:
 12015     0E96  083C               	movf	___flmul@b+2,w
 12016     0E97  00F0               	movwf	__Umul8_16@multiplicand
 12017     0E98  083F               	movf	___flmul@a+1,w
 12018     0E99  160A  158A  247B  120A  158A  	fcall	__Umul8_16
 12019     0E9E  0871               	movf	?__Umul8_16+1,w
 12020     0E9F  1283               	bcf	3,5	;RP0=0, select bank0
 12021     0EA0  1303               	bcf	3,6	;RP1=0, select bank0
 12022     0EA1  00D3               	movwf	___flmul@temp+1
 12023     0EA2  0870               	movf	?__Umul8_16,w
 12024     0EA3  00D2               	movwf	___flmul@temp
 12025     0EA4                     l5224:
 12026     0EA4  0852               	movf	___flmul@temp,w
 12027     0EA5  00C2               	movwf	??___flmul
 12028     0EA6  0853               	movf	___flmul@temp+1,w
 12029     0EA7  00C3               	movwf	??___flmul+1
 12030     0EA8  01C4               	clrf	??___flmul+2
 12031     0EA9  01C5               	clrf	??___flmul+3
 12032     0EAA  0842               	movf	??___flmul,w
 12033     0EAB  07CE               	addwf	___flmul@prod,f
 12034     0EAC  0843               	movf	??___flmul+1,w
 12035     0EAD  1103               	clrz
 12036     0EAE  1803               	skipnc
 12037     0EAF  3E01               	addlw	1
 12038     0EB0  1903               	skipnz
 12039     0EB1  2EB3               	goto	u7701
 12040     0EB2  07CF               	addwf	___flmul@prod+1,f
 12041     0EB3                     u7701:
 12042     0EB3  0844               	movf	??___flmul+2,w
 12043     0EB4  1103               	clrz
 12044     0EB5  1803               	skipnc
 12045     0EB6  3E01               	addlw	1
 12046     0EB7  1903               	skipnz
 12047     0EB8  2EBA               	goto	u7702
 12048     0EB9  07D0               	addwf	___flmul@prod+2,f
 12049     0EBA                     u7702:
 12050     0EBA  0845               	movf	??___flmul+3,w
 12051     0EBB  1103               	clrz
 12052     0EBC  1803               	skipnc
 12053     0EBD  3E01               	addlw	1
 12054     0EBE  1903               	skipnz
 12055     0EBF  2EC1               	goto	u7703
 12056     0EC0  07D1               	addwf	___flmul@prod+3,f
 12057     0EC1                     u7703:
 12058     0EC1  083C               	movf	___flmul@b+2,w
 12059     0EC2  00F0               	movwf	__Umul8_16@multiplicand
 12060     0EC3  0840               	movf	___flmul@a+2,w
 12061     0EC4  160A  158A  247B  120A  158A  	fcall	__Umul8_16
 12062     0EC9  0871               	movf	?__Umul8_16+1,w
 12063     0ECA  1283               	bcf	3,5	;RP0=0, select bank0
 12064     0ECB  1303               	bcf	3,6	;RP1=0, select bank0
 12065     0ECC  00D3               	movwf	___flmul@temp+1
 12066     0ECD  0870               	movf	?__Umul8_16,w
 12067     0ECE  00D2               	movwf	___flmul@temp
 12068     0ECF                     l5226:
 12069     0ECF  0852               	movf	___flmul@temp,w
 12070     0ED0  00C2               	movwf	??___flmul
 12071     0ED1  0853               	movf	___flmul@temp+1,w
 12072     0ED2  00C3               	movwf	??___flmul+1
 12073     0ED3  01C4               	clrf	??___flmul+2
 12074     0ED4  01C5               	clrf	??___flmul+3
 12075     0ED5  3008               	movlw	8
 12076     0ED6                     u7715:
 12077     0ED6  1003               	clrc
 12078     0ED7  0DC2               	rlf	??___flmul,f
 12079     0ED8  0DC3               	rlf	??___flmul+1,f
 12080     0ED9  0DC4               	rlf	??___flmul+2,f
 12081     0EDA  0DC5               	rlf	??___flmul+3,f
 12082     0EDB                     u7710:
 12083     0EDB  3EFF               	addlw	-1
 12084     0EDC  1D03               	skipz
 12085     0EDD  2ED6               	goto	u7715
 12086     0EDE  0842               	movf	??___flmul,w
 12087     0EDF  07CE               	addwf	___flmul@prod,f
 12088     0EE0  0843               	movf	??___flmul+1,w
 12089     0EE1  1103               	clrz
 12090     0EE2  1803               	skipnc
 12091     0EE3  3E01               	addlw	1
 12092     0EE4  1903               	skipnz
 12093     0EE5  2EE7               	goto	u7721
 12094     0EE6  07CF               	addwf	___flmul@prod+1,f
 12095     0EE7                     u7721:
 12096     0EE7  0844               	movf	??___flmul+2,w
 12097     0EE8  1103               	clrz
 12098     0EE9  1803               	skipnc
 12099     0EEA  3E01               	addlw	1
 12100     0EEB  1903               	skipnz
 12101     0EEC  2EEE               	goto	u7722
 12102     0EED  07D0               	addwf	___flmul@prod+2,f
 12103     0EEE                     u7722:
 12104     0EEE  0845               	movf	??___flmul+3,w
 12105     0EEF  1103               	clrz
 12106     0EF0  1803               	skipnc
 12107     0EF1  3E01               	addlw	1
 12108     0EF2  1903               	skipnz
 12109     0EF3  2EF5               	goto	u7723
 12110     0EF4  07D1               	addwf	___flmul@prod+3,f
 12111     0EF5                     u7723:
 12112     0EF5                     l5228:
 12113     0EF5  0849               	movf	___flmul@grs,w
 12114     0EF6  00C2               	movwf	??___flmul
 12115     0EF7  084A               	movf	___flmul@grs+1,w
 12116     0EF8  00C3               	movwf	??___flmul+1
 12117     0EF9  084B               	movf	___flmul@grs+2,w
 12118     0EFA  00C4               	movwf	??___flmul+2
 12119     0EFB  084C               	movf	___flmul@grs+3,w
 12120     0EFC  00C5               	movwf	??___flmul+3
 12121     0EFD  3018               	movlw	24
 12122     0EFE                     u7735:
 12123     0EFE  1003               	clrc
 12124     0EFF  0CC5               	rrf	??___flmul+3,f
 12125     0F00  0CC4               	rrf	??___flmul+2,f
 12126     0F01  0CC3               	rrf	??___flmul+1,f
 12127     0F02  0CC2               	rrf	??___flmul,f
 12128     0F03                     u7730:
 12129     0F03  3EFF               	addlw	-1
 12130     0F04  1D03               	skipz
 12131     0F05  2EFE               	goto	u7735
 12132     0F06  0842               	movf	??___flmul,w
 12133     0F07  07CE               	addwf	___flmul@prod,f
 12134     0F08  0843               	movf	??___flmul+1,w
 12135     0F09  1103               	clrz
 12136     0F0A  1803               	skipnc
 12137     0F0B  3E01               	addlw	1
 12138     0F0C  1903               	skipnz
 12139     0F0D  2F0F               	goto	u7741
 12140     0F0E  07CF               	addwf	___flmul@prod+1,f
 12141     0F0F                     u7741:
 12142     0F0F  0844               	movf	??___flmul+2,w
 12143     0F10  1103               	clrz
 12144     0F11  1803               	skipnc
 12145     0F12  3E01               	addlw	1
 12146     0F13  1903               	skipnz
 12147     0F14  2F16               	goto	u7742
 12148     0F15  07D0               	addwf	___flmul@prod+2,f
 12149     0F16                     u7742:
 12150     0F16  0845               	movf	??___flmul+3,w
 12151     0F17  1103               	clrz
 12152     0F18  1803               	skipnc
 12153     0F19  3E01               	addlw	1
 12154     0F1A  1903               	skipnz
 12155     0F1B  2F1D               	goto	u7743
 12156     0F1C  07D1               	addwf	___flmul@prod+3,f
 12157     0F1D                     u7743:
 12158     0F1D                     l5230:
 12159     0F1D  3008               	movlw	8
 12160     0F1E  00C2               	movwf	??___flmul
 12161     0F1F                     u7755:
 12162     0F1F  1003               	clrc
 12163     0F20  0DC9               	rlf	___flmul@grs,f
 12164     0F21  0DCA               	rlf	___flmul@grs+1,f
 12165     0F22  0DCB               	rlf	___flmul@grs+2,f
 12166     0F23  0DCC               	rlf	___flmul@grs+3,f
 12167     0F24  0BC2               	decfsz	??___flmul,f
 12168     0F25  2F1F               	goto	u7755
 12169     0F26                     l5232:
 12170     0F26  084D               	movf	___flmul@bexp,w
 12171     0F27  0748               	addwf	___flmul@aexp,w
 12172     0F28  00C2               	movwf	??___flmul
 12173     0F29  01C3               	clrf	??___flmul+1
 12174     0F2A  0DC3               	rlf	??___flmul+1,f
 12175     0F2B  0842               	movf	??___flmul,w
 12176     0F2C  3E82               	addlw	130
 12177     0F2D  00D2               	movwf	___flmul@temp
 12178     0F2E  0843               	movf	??___flmul+1,w
 12179     0F2F  1803               	skipnc
 12180     0F30  3E01               	addlw	1
 12181     0F31  3EFF               	addlw	255
 12182     0F32  00D3               	movwf	___flmul@temp+1
 12183     0F33  2F51               	goto	l5244
 12184     0F34                     l5234:
 12185     0F34  3001               	movlw	1
 12186     0F35  00C2               	movwf	??___flmul
 12187     0F36                     u7765:
 12188     0F36  1003               	clrc
 12189     0F37  0DCE               	rlf	___flmul@prod,f
 12190     0F38  0DCF               	rlf	___flmul@prod+1,f
 12191     0F39  0DD0               	rlf	___flmul@prod+2,f
 12192     0F3A  0DD1               	rlf	___flmul@prod+3,f
 12193     0F3B  0BC2               	decfsz	??___flmul,f
 12194     0F3C  2F36               	goto	u7765
 12195     0F3D                     l5236:
 12196     0F3D  1FCC               	btfss	___flmul@grs+3,7
 12197     0F3E  2F40               	goto	u7771
 12198     0F3F  2F41               	goto	u7770
 12199     0F40                     u7771:
 12200     0F40  2F42               	goto	l5240
 12201     0F41                     u7770:
 12202     0F41                     l5238:
 12203     0F41  144E               	bsf	___flmul@prod,0
 12204     0F42                     l5240:
 12205     0F42  3001               	movlw	1
 12206     0F43  00C2               	movwf	??___flmul
 12207     0F44                     u7785:
 12208     0F44  1003               	clrc
 12209     0F45  0DC9               	rlf	___flmul@grs,f
 12210     0F46  0DCA               	rlf	___flmul@grs+1,f
 12211     0F47  0DCB               	rlf	___flmul@grs+2,f
 12212     0F48  0DCC               	rlf	___flmul@grs+3,f
 12213     0F49  0BC2               	decfsz	??___flmul,f
 12214     0F4A  2F44               	goto	u7785
 12215     0F4B                     l5242:
 12216     0F4B  30FF               	movlw	255
 12217     0F4C  07D2               	addwf	___flmul@temp,f
 12218     0F4D  1803               	skipnc
 12219     0F4E  0AD3               	incf	___flmul@temp+1,f
 12220     0F4F  30FF               	movlw	255
 12221     0F50  07D3               	addwf	___flmul@temp+1,f
 12222     0F51                     l5244:
 12223     0F51  1FD0               	btfss	___flmul@prod+2,7
 12224     0F52  2F54               	goto	u7791
 12225     0F53  2F55               	goto	u7790
 12226     0F54                     u7791:
 12227     0F54  2F34               	goto	l5234
 12228     0F55                     u7790:
 12229     0F55                     l5246:
 12230     0F55  01C8               	clrf	___flmul@aexp
 12231     0F56                     l5248:
 12232     0F56  1FCC               	btfss	___flmul@grs+3,7
 12233     0F57  2F59               	goto	u7801
 12234     0F58  2F5A               	goto	u7800
 12235     0F59                     u7801:
 12236     0F59  2F76               	goto	l5256
 12237     0F5A                     u7800:
 12238     0F5A                     l5250:
 12239     0F5A  30FF               	movlw	255
 12240     0F5B  0549               	andwf	___flmul@grs,w
 12241     0F5C  00C2               	movwf	??___flmul
 12242     0F5D  30FF               	movlw	255
 12243     0F5E  054A               	andwf	___flmul@grs+1,w
 12244     0F5F  00C3               	movwf	??___flmul+1
 12245     0F60  30FF               	movlw	255
 12246     0F61  054B               	andwf	___flmul@grs+2,w
 12247     0F62  00C4               	movwf	??___flmul+2
 12248     0F63  307F               	movlw	127
 12249     0F64  054C               	andwf	___flmul@grs+3,w
 12250     0F65  00C5               	movwf	??___flmul+3
 12251     0F66  0845               	movf	??___flmul+3,w
 12252     0F67  0444               	iorwf	??___flmul+2,w
 12253     0F68  0443               	iorwf	??___flmul+1,w
 12254     0F69  0442               	iorwf	??___flmul,w
 12255     0F6A  1903               	skipnz
 12256     0F6B  2F6D               	goto	u7811
 12257     0F6C  2F6E               	goto	u7810
 12258     0F6D                     u7811:
 12259     0F6D  2F71               	goto	l789
 12260     0F6E                     u7810:
 12261     0F6E                     l5252:
 12262     0F6E  3001               	movlw	1
 12263     0F6F  00C8               	movwf	___flmul@aexp
 12264     0F70  2F76               	goto	l5256
 12265     0F71                     l789:
 12266     0F71  1C4E               	btfss	___flmul@prod,0
 12267     0F72  2F74               	goto	u7821
 12268     0F73  2F75               	goto	u7820
 12269     0F74                     u7821:
 12270     0F74  2F76               	goto	l5256
 12271     0F75                     u7820:
 12272     0F75  2F6E               	goto	l5252
 12273     0F76                     l5256:
 12274     0F76  0848               	movf	___flmul@aexp,w
 12275     0F77  1903               	btfsc	3,2
 12276     0F78  2F7A               	goto	u7831
 12277     0F79  2F7B               	goto	u7830
 12278     0F7A                     u7831:
 12279     0F7A  2FAC               	goto	l5266
 12280     0F7B                     u7830:
 12281     0F7B                     l5258:
 12282     0F7B  3001               	movlw	1
 12283     0F7C  07CE               	addwf	___flmul@prod,f
 12284     0F7D  3000               	movlw	0
 12285     0F7E  1803               	skipnc
 12286     0F7F  3001               	movlw	1
 12287     0F80  07CF               	addwf	___flmul@prod+1,f
 12288     0F81  3000               	movlw	0
 12289     0F82  1803               	skipnc
 12290     0F83  3001               	movlw	1
 12291     0F84  07D0               	addwf	___flmul@prod+2,f
 12292     0F85  3000               	movlw	0
 12293     0F86  1803               	skipnc
 12294     0F87  3001               	movlw	1
 12295     0F88  07D1               	addwf	___flmul@prod+3,f
 12296     0F89                     l5260:
 12297     0F89  1C51               	btfss	___flmul@prod+3,0
 12298     0F8A  2F8C               	goto	u7841
 12299     0F8B  2F8D               	goto	u7840
 12300     0F8C                     u7841:
 12301     0F8C  2FAC               	goto	l5266
 12302     0F8D                     u7840:
 12303     0F8D                     l5262:
 12304     0F8D  084E               	movf	___flmul@prod,w
 12305     0F8E  00C2               	movwf	??___flmul
 12306     0F8F  084F               	movf	___flmul@prod+1,w
 12307     0F90  00C3               	movwf	??___flmul+1
 12308     0F91  0850               	movf	___flmul@prod+2,w
 12309     0F92  00C4               	movwf	??___flmul+2
 12310     0F93  0851               	movf	___flmul@prod+3,w
 12311     0F94  00C5               	movwf	??___flmul+3
 12312     0F95  3001               	movlw	1
 12313     0F96  00C6               	movwf	??___flmul+4
 12314     0F97                     u7855:
 12315     0F97  0D45               	rlf	??___flmul+3,w
 12316     0F98  0CC5               	rrf	??___flmul+3,f
 12317     0F99  0CC4               	rrf	??___flmul+2,f
 12318     0F9A  0CC3               	rrf	??___flmul+1,f
 12319     0F9B  0CC2               	rrf	??___flmul,f
 12320     0F9C                     u7850:
 12321     0F9C  0BC6               	decfsz	??___flmul+4,f
 12322     0F9D  2F97               	goto	u7855
 12323     0F9E  0845               	movf	??___flmul+3,w
 12324     0F9F  00D1               	movwf	___flmul@prod+3
 12325     0FA0  0844               	movf	??___flmul+2,w
 12326     0FA1  00D0               	movwf	___flmul@prod+2
 12327     0FA2  0843               	movf	??___flmul+1,w
 12328     0FA3  00CF               	movwf	___flmul@prod+1
 12329     0FA4  0842               	movf	??___flmul,w
 12330     0FA5  00CE               	movwf	___flmul@prod
 12331     0FA6                     l5264:
 12332     0FA6  3001               	movlw	1
 12333     0FA7  07D2               	addwf	___flmul@temp,f
 12334     0FA8  1803               	skipnc
 12335     0FA9  0AD3               	incf	___flmul@temp+1,f
 12336     0FAA  3000               	movlw	0
 12337     0FAB  07D3               	addwf	___flmul@temp+1,f
 12338     0FAC                     l5266:
 12339     0FAC  0853               	movf	___flmul@temp+1,w
 12340     0FAD  3A80               	xorlw	128
 12341     0FAE  00FF               	movwf	btemp1
 12342     0FAF  3080               	movlw	128
 12343     0FB0  027F               	subwf	btemp1,w
 12344     0FB1  1D03               	skipz
 12345     0FB2  2FB5               	goto	u7865
 12346     0FB3  30FF               	movlw	255
 12347     0FB4  0252               	subwf	___flmul@temp,w
 12348     0FB5                     u7865:
 12349     0FB5  1C03               	skipc
 12350     0FB6  2FB8               	goto	u7861
 12351     0FB7  2FB9               	goto	u7860
 12352     0FB8                     u7861:
 12353     0FB8  2FC4               	goto	l5270
 12354     0FB9                     u7860:
 12355     0FB9                     l5268:
 12356     0FB9  307F               	movlw	127
 12357     0FBA  1283               	bcf	3,5	;RP0=0, select bank0
 12358     0FBB  1303               	bcf	3,6	;RP1=0, select bank0
 12359     0FBC  00D1               	movwf	___flmul@prod+3
 12360     0FBD  3080               	movlw	128
 12361     0FBE  00D0               	movwf	___flmul@prod+2
 12362     0FBF  3000               	movlw	0
 12363     0FC0  00CF               	movwf	___flmul@prod+1
 12364     0FC1  3000               	movlw	0
 12365     0FC2  00CE               	movwf	___flmul@prod
 12366     0FC3  2FF5               	goto	l795
 12367     0FC4                     l5270:
 12368     0FC4  1283               	bcf	3,5	;RP0=0, select bank0
 12369     0FC5  1303               	bcf	3,6	;RP1=0, select bank0
 12370     0FC6  0853               	movf	___flmul@temp+1,w
 12371     0FC7  3A80               	xorlw	128
 12372     0FC8  00FF               	movwf	btemp1
 12373     0FC9  3080               	movlw	128
 12374     0FCA  027F               	subwf	btemp1,w
 12375     0FCB  1D03               	skipz
 12376     0FCC  2FCF               	goto	u7875
 12377     0FCD  3001               	movlw	1
 12378     0FCE  0252               	subwf	___flmul@temp,w
 12379     0FCF                     u7875:
 12380     0FCF  1803               	skipnc
 12381     0FD0  2FD2               	goto	u7871
 12382     0FD1  2FD3               	goto	u7870
 12383     0FD2                     u7871:
 12384     0FD2  2FDF               	goto	l5276
 12385     0FD3                     u7870:
 12386     0FD3                     l5272:
 12387     0FD3  3000               	movlw	0
 12388     0FD4  1283               	bcf	3,5	;RP0=0, select bank0
 12389     0FD5  1303               	bcf	3,6	;RP1=0, select bank0
 12390     0FD6  00D1               	movwf	___flmul@prod+3
 12391     0FD7  3000               	movlw	0
 12392     0FD8  00D0               	movwf	___flmul@prod+2
 12393     0FD9  3000               	movlw	0
 12394     0FDA  00CF               	movwf	___flmul@prod+1
 12395     0FDB  3000               	movlw	0
 12396     0FDC  00CE               	movwf	___flmul@prod
 12397     0FDD                     l5274:
 12398     0FDD  01C7               	clrf	___flmul@sign
 12399     0FDE  2FF5               	goto	l795
 12400     0FDF                     l5276:
 12401     0FDF  1283               	bcf	3,5	;RP0=0, select bank0
 12402     0FE0  1303               	bcf	3,6	;RP1=0, select bank0
 12403     0FE1  0852               	movf	___flmul@temp,w
 12404     0FE2  00CD               	movwf	___flmul@bexp
 12405     0FE3  30FF               	movlw	255
 12406     0FE4  05CE               	andwf	___flmul@prod,f
 12407     0FE5  30FF               	movlw	255
 12408     0FE6  05CF               	andwf	___flmul@prod+1,f
 12409     0FE7  307F               	movlw	127
 12410     0FE8  05D0               	andwf	___flmul@prod+2,f
 12411     0FE9  3000               	movlw	0
 12412     0FEA  05D1               	andwf	___flmul@prod+3,f
 12413     0FEB                     l5278:
 12414     0FEB  1C4D               	btfss	___flmul@bexp,0
 12415     0FEC  2FEE               	goto	u7881
 12416     0FED  2FEF               	goto	u7880
 12417     0FEE                     u7881:
 12418     0FEE  2FF0               	goto	l5282
 12419     0FEF                     u7880:
 12420     0FEF                     l5280:
 12421     0FEF  17D0               	bsf	___flmul@prod+2,7
 12422     0FF0                     l5282:
 12423     0FF0  084D               	movf	___flmul@bexp,w
 12424     0FF1  00C2               	movwf	??___flmul
 12425     0FF2  1003               	clrc
 12426     0FF3  0C42               	rrf	??___flmul,w
 12427     0FF4  00D1               	movwf	___flmul@prod+3
 12428     0FF5                     l795:
 12429     0FF5  0847               	movf	___flmul@sign,w
 12430     0FF6  04D1               	iorwf	___flmul@prod+3,f
 12431     0FF7                     l5284:
 12432     0FF7  0851               	movf	___flmul@prod+3,w
 12433     0FF8  00BD               	movwf	?___flmul+3
 12434     0FF9  0850               	movf	___flmul@prod+2,w
 12435     0FFA  00BC               	movwf	?___flmul+2
 12436     0FFB  084F               	movf	___flmul@prod+1,w
 12437     0FFC  00BB               	movwf	?___flmul+1
 12438     0FFD  084E               	movf	___flmul@prod,w
 12439     0FFE  00BA               	movwf	?___flmul
 12440     0FFF                     l783:
 12441     0FFF  0008               	return
 12442     1000                     __end_of___flmul:
 12443                           
 12444                           	psect	text45
 12445     1C7B                     __ptext45:	
 12446 ;; *************** function __Umul8_16 *****************
 12447 ;; Defined at:
 12448 ;;		line 4 in file "C:\Program Files\Microchip\xc8\v3.10\pic\sources\c99\common\Umul8_16.c"
 12449 ;; Parameters:    Size  Location     Type
 12450 ;;  multiplier      1    wreg     unsigned char 
 12451 ;;  multiplicand    1    0[COMMON] unsigned char 
 12452 ;; Auto vars:     Size  Location     Type
 12453 ;;  multiplier      1    8[COMMON] unsigned char 
 12454 ;;  word_mpld       2    6[COMMON] unsigned short 
 12455 ;;  product         2    4[COMMON] unsigned short 
 12456 ;; Return value:  Size  Location     Type
 12457 ;;                  2    0[COMMON] unsigned int 
 12458 ;; Registers used:
 12459 ;;		wreg, status,2, status,0
 12460 ;; Tracked objects:
 12461 ;;		On entry : 0/0
 12462 ;;		On exit  : 0/0
 12463 ;;		Unchanged: 0/0
 12464 ;; Data sizes:     COMMON   BANK0   BANK1   BANK3   BANK2
 12465 ;;      Params:         2       0       0       0       0
 12466 ;;      Locals:         5       0       0       0       0
 12467 ;;      Temps:          2       0       0       0       0
 12468 ;;      Totals:         9       0       0       0       0
 12469 ;;Total ram usage:        9 bytes
 12470 ;; Hardware stack levels used: 1
 12471 ;; This function calls:
 12472 ;;		Nothing
 12473 ;; This function is called by:
 12474 ;;		___flmul
 12475 ;; This function uses a non-reentrant model
 12476 ;;
 12477                           
 12478     1C7B                     __Umul8_16:	
 12479                           ;psect for function __Umul8_16
 12480                           
 12481                           
 12482                           ;incstack = 0
 12483                           ; Regs used in __Umul8_16: [wreg+status,2+status,0]
 12484                           ;__Umul8_16@multiplier stored from wreg
 12485     1C7B  00F8               	movwf	__Umul8_16@multiplier
 12486     1C7C                     l4828:
 12487     1C7C  01F4               	clrf	__Umul8_16@product
 12488     1C7D  01F5               	clrf	__Umul8_16@product+1
 12489     1C7E                     l4830:
 12490     1C7E  0870               	movf	__Umul8_16@multiplicand,w
 12491     1C7F  00F2               	movwf	??__Umul8_16
 12492     1C80  01F3               	clrf	??__Umul8_16+1
 12493     1C81  0872               	movf	??__Umul8_16,w
 12494     1C82  00F6               	movwf	__Umul8_16@word_mpld
 12495     1C83  0873               	movf	??__Umul8_16+1,w
 12496     1C84  00F7               	movwf	__Umul8_16@word_mpld+1
 12497     1C85                     l4832:
 12498     1C85  1C78               	btfss	__Umul8_16@multiplier,0
 12499     1C86  2C88               	goto	u7001
 12500     1C87  2C89               	goto	u7000
 12501     1C88                     u7001:
 12502     1C88  2C8F               	goto	l802
 12503     1C89                     u7000:
 12504     1C89                     l4834:
 12505     1C89  0876               	movf	__Umul8_16@word_mpld,w
 12506     1C8A  07F4               	addwf	__Umul8_16@product,f
 12507     1C8B  1803               	skipnc
 12508     1C8C  0AF5               	incf	__Umul8_16@product+1,f
 12509     1C8D  0877               	movf	__Umul8_16@word_mpld+1,w
 12510     1C8E  07F5               	addwf	__Umul8_16@product+1,f
 12511     1C8F                     l802:
 12512     1C8F  3001               	movlw	1
 12513     1C90                     u7015:
 12514     1C90  1003               	clrc
 12515     1C91  0DF6               	rlf	__Umul8_16@word_mpld,f
 12516     1C92  0DF7               	rlf	__Umul8_16@word_mpld+1,f
 12517     1C93  3EFF               	addlw	-1
 12518     1C94  1D03               	skipz
 12519     1C95  2C90               	goto	u7015
 12520     1C96  1003               	clrc
 12521     1C97  0CF8               	rrf	__Umul8_16@multiplier,f
 12522     1C98                     l4836:
 12523     1C98  0878               	movf	__Umul8_16@multiplier,w
 12524     1C99  1D03               	btfss	3,2
 12525     1C9A  2C9C               	goto	u7021
 12526     1C9B  2C9D               	goto	u7020
 12527     1C9C                     u7021:
 12528     1C9C  2C85               	goto	l4832
 12529     1C9D                     u7020:
 12530     1C9D                     l4838:
 12531     1C9D  0875               	movf	__Umul8_16@product+1,w
 12532     1C9E  00F1               	movwf	?__Umul8_16+1
 12533     1C9F  0874               	movf	__Umul8_16@product,w
 12534     1CA0  00F0               	movwf	?__Umul8_16
 12535     1CA1                     l804:
 12536     1CA1  0008               	return
 12537     1CA2                     __end_of__Umul8_16:
 12538                           
 12539                           	psect	text46
 12540     0898                     __ptext46:	
 12541 ;; *************** function ___fldiv *****************
 12542 ;; Defined at:
 12543 ;;		line 8 in file "C:\Program Files\Microchip\xc8\v3.10\pic\sources\c99\common\sprcdiv.c"
 12544 ;; Parameters:    Size  Location     Type
 12545 ;;  a               4    0[BANK0 ] unsigned int 
 12546 ;;  b               4    4[BANK0 ] unsigned int 
 12547 ;; Auto vars:     Size  Location     Type
 12548 ;;  grs             4   20[BANK0 ] unsigned long 
 12549 ;;  rem             4   13[BANK0 ] unsigned long 
 12550 ;;  new_exp         2   18[BANK0 ] short 
 12551 ;;  aexp            1   25[BANK0 ] unsigned char 
 12552 ;;  bexp            1   24[BANK0 ] unsigned char 
 12553 ;;  sign            1   17[BANK0 ] unsigned char 
 12554 ;; Return value:  Size  Location     Type
 12555 ;;                  4    0[BANK0 ] unsigned char 
 12556 ;; Registers used:
 12557 ;;		wreg, status,2, status,0, btemp1
 12558 ;; Tracked objects:
 12559 ;;		On entry : 0/0
 12560 ;;		On exit  : 0/0
 12561 ;;		Unchanged: 0/0
 12562 ;; Data sizes:     COMMON   BANK0   BANK1   BANK3   BANK2
 12563 ;;      Params:         0       8       0       0       0
 12564 ;;      Locals:         0      13       0       0       0
 12565 ;;      Temps:          0       5       0       0       0
 12566 ;;      Totals:         0      26       0       0       0
 12567 ;;Total ram usage:       26 bytes
 12568 ;; Hardware stack levels used: 1
 12569 ;; This function calls:
 12570 ;;		Nothing
 12571 ;; This function is called by:
 12572 ;;		_DHT22_read
 12573 ;; This function uses a non-reentrant model
 12574 ;;
 12575                           
 12576     0898                     ___fldiv:	
 12577                           ;psect for function ___fldiv
 12578                           
 12579     0898                     l5002:	
 12580                           ;incstack = 0
 12581                           ; Regs used in ___fldiv: [wreg+status,2+status,0+btemp1]
 12582                           
 12583     0898  1283               	bcf	3,5	;RP0=0, select bank0
 12584     0899  1303               	bcf	3,6	;RP1=0, select bank0
 12585     089A  0827               	movf	___fldiv@b+3,w
 12586     089B  00B1               	movwf	___fldiv@sign
 12587     089C                     l5004:
 12588     089C  3080               	movlw	128
 12589     089D  05B1               	andwf	___fldiv@sign,f
 12590     089E                     l5006:
 12591     089E  0827               	movf	___fldiv@b+3,w
 12592     089F  00A8               	movwf	??___fldiv
 12593     08A0  0728               	addwf	??___fldiv,w
 12594     08A1  00B8               	movwf	___fldiv@bexp
 12595     08A2                     l5008:
 12596     08A2  1FA6               	btfss	___fldiv@b+2,7
 12597     08A3  28A5               	goto	u7231
 12598     08A4  28A6               	goto	u7230
 12599     08A5                     u7231:
 12600     08A5  28A7               	goto	l5012
 12601     08A6                     u7230:
 12602     08A6                     l5010:
 12603     08A6  1438               	bsf	___fldiv@bexp,0
 12604     08A7                     l5012:
 12605     08A7  0838               	movf	___fldiv@bexp,w
 12606     08A8  1903               	btfsc	3,2
 12607     08A9  28AB               	goto	u7241
 12608     08AA  28AC               	goto	u7240
 12609     08AB                     u7241:
 12610     08AB  28BC               	goto	l5022
 12611     08AC                     u7240:
 12612     08AC                     l5014:
 12613     08AC  0A38               	incf	___fldiv@bexp,w
 12614     08AD  1D03               	btfss	3,2
 12615     08AE  28B0               	goto	u7251
 12616     08AF  28B1               	goto	u7250
 12617     08B0                     u7251:
 12618     08B0  28B9               	goto	l5018
 12619     08B1                     u7250:
 12620     08B1                     l5016:
 12621     08B1  3000               	movlw	0
 12622     08B2  00A7               	movwf	___fldiv@b+3
 12623     08B3  3000               	movlw	0
 12624     08B4  00A6               	movwf	___fldiv@b+2
 12625     08B5  3000               	movlw	0
 12626     08B6  00A5               	movwf	___fldiv@b+1
 12627     08B7  3000               	movlw	0
 12628     08B8  00A4               	movwf	___fldiv@b
 12629     08B9                     l5018:
 12630     08B9  17A6               	bsf	___fldiv@b+2,7
 12631     08BA                     l5020:
 12632     08BA  01A7               	clrf	___fldiv@b+3
 12633     08BB  28C4               	goto	l5024
 12634     08BC                     l5022:
 12635     08BC  3000               	movlw	0
 12636     08BD  00A7               	movwf	___fldiv@b+3
 12637     08BE  3000               	movlw	0
 12638     08BF  00A6               	movwf	___fldiv@b+2
 12639     08C0  3000               	movlw	0
 12640     08C1  00A5               	movwf	___fldiv@b+1
 12641     08C2  3000               	movlw	0
 12642     08C3  00A4               	movwf	___fldiv@b
 12643     08C4                     l5024:
 12644     08C4  0823               	movf	___fldiv@a+3,w
 12645     08C5  3980               	andlw	128
 12646     08C6  06B1               	xorwf	___fldiv@sign,f
 12647     08C7                     l5026:
 12648     08C7  0823               	movf	___fldiv@a+3,w
 12649     08C8  00A8               	movwf	??___fldiv
 12650     08C9  0728               	addwf	??___fldiv,w
 12651     08CA  00B9               	movwf	___fldiv@aexp
 12652     08CB                     l5028:
 12653     08CB  1FA2               	btfss	___fldiv@a+2,7
 12654     08CC  28CE               	goto	u7261
 12655     08CD  28CF               	goto	u7260
 12656     08CE                     u7261:
 12657     08CE  28D0               	goto	l5032
 12658     08CF                     u7260:
 12659     08CF                     l5030:
 12660     08CF  1439               	bsf	___fldiv@aexp,0
 12661     08D0                     l5032:
 12662     08D0  0839               	movf	___fldiv@aexp,w
 12663     08D1  1903               	btfsc	3,2
 12664     08D2  28D4               	goto	u7271
 12665     08D3  28D5               	goto	u7270
 12666     08D4                     u7271:
 12667     08D4  28E5               	goto	l5042
 12668     08D5                     u7270:
 12669     08D5                     l5034:
 12670     08D5  0A39               	incf	___fldiv@aexp,w
 12671     08D6  1D03               	btfss	3,2
 12672     08D7  28D9               	goto	u7281
 12673     08D8  28DA               	goto	u7280
 12674     08D9                     u7281:
 12675     08D9  28E2               	goto	l5038
 12676     08DA                     u7280:
 12677     08DA                     l5036:
 12678     08DA  3000               	movlw	0
 12679     08DB  00A3               	movwf	___fldiv@a+3
 12680     08DC  3000               	movlw	0
 12681     08DD  00A2               	movwf	___fldiv@a+2
 12682     08DE  3000               	movlw	0
 12683     08DF  00A1               	movwf	___fldiv@a+1
 12684     08E0  3000               	movlw	0
 12685     08E1  00A0               	movwf	___fldiv@a
 12686     08E2                     l5038:
 12687     08E2  17A2               	bsf	___fldiv@a+2,7
 12688     08E3                     l5040:
 12689     08E3  01A3               	clrf	___fldiv@a+3
 12690     08E4  28ED               	goto	l743
 12691     08E5                     l5042:
 12692     08E5  3000               	movlw	0
 12693     08E6  00A3               	movwf	___fldiv@a+3
 12694     08E7  3000               	movlw	0
 12695     08E8  00A2               	movwf	___fldiv@a+2
 12696     08E9  3000               	movlw	0
 12697     08EA  00A1               	movwf	___fldiv@a+1
 12698     08EB  3000               	movlw	0
 12699     08EC  00A0               	movwf	___fldiv@a
 12700     08ED                     l743:
 12701     08ED  0823               	movf	___fldiv@a+3,w
 12702     08EE  0422               	iorwf	___fldiv@a+2,w
 12703     08EF  0421               	iorwf	___fldiv@a+1,w
 12704     08F0  0420               	iorwf	___fldiv@a,w
 12705     08F1  1D03               	skipz
 12706     08F2  28F4               	goto	u7291
 12707     08F3  28F5               	goto	u7290
 12708     08F4                     u7291:
 12709     08F4  290C               	goto	l5052
 12710     08F5                     u7290:
 12711     08F5                     l5044:
 12712     08F5  3000               	movlw	0
 12713     08F6  00A7               	movwf	___fldiv@b+3
 12714     08F7  3000               	movlw	0
 12715     08F8  00A6               	movwf	___fldiv@b+2
 12716     08F9  3000               	movlw	0
 12717     08FA  00A5               	movwf	___fldiv@b+1
 12718     08FB  3000               	movlw	0
 12719     08FC  00A4               	movwf	___fldiv@b
 12720     08FD  3080               	movlw	128
 12721     08FE  04A6               	iorwf	___fldiv@b+2,f
 12722     08FF  307F               	movlw	127
 12723     0900  04A7               	iorwf	___fldiv@b+3,f
 12724     0901                     l5046:
 12725     0901  0831               	movf	___fldiv@sign,w
 12726     0902  04A7               	iorwf	___fldiv@b+3,f
 12727     0903                     l5048:
 12728     0903  0827               	movf	___fldiv@b+3,w
 12729     0904  00A3               	movwf	?___fldiv+3
 12730     0905  0826               	movf	___fldiv@b+2,w
 12731     0906  00A2               	movwf	?___fldiv+2
 12732     0907  0825               	movf	___fldiv@b+1,w
 12733     0908  00A1               	movwf	?___fldiv+1
 12734     0909  0824               	movf	___fldiv@b,w
 12735     090A  00A0               	movwf	?___fldiv
 12736     090B  2A61               	goto	l745
 12737     090C                     l5052:
 12738     090C  0838               	movf	___fldiv@bexp,w
 12739     090D  1D03               	btfss	3,2
 12740     090E  2910               	goto	u7301
 12741     090F  2911               	goto	u7300
 12742     0910                     u7301:
 12743     0910  291A               	goto	l5058
 12744     0911                     u7300:
 12745     0911                     l5054:
 12746     0911  3000               	movlw	0
 12747     0912  00A3               	movwf	?___fldiv+3
 12748     0913  3000               	movlw	0
 12749     0914  00A2               	movwf	?___fldiv+2
 12750     0915  3000               	movlw	0
 12751     0916  00A1               	movwf	?___fldiv+1
 12752     0917  3000               	movlw	0
 12753     0918  00A0               	movwf	?___fldiv
 12754     0919  2A61               	goto	l745
 12755     091A                     l5058:
 12756     091A  0838               	movf	___fldiv@bexp,w
 12757     091B  00A8               	movwf	??___fldiv
 12758     091C  01A9               	clrf	??___fldiv+1
 12759     091D  0829               	movf	??___fldiv+1,w
 12760     091E  00AB               	movwf	??___fldiv+3
 12761     091F  0839               	movf	___fldiv@aexp,w
 12762     0920  0228               	subwf	??___fldiv,w
 12763     0921  00AA               	movwf	??___fldiv+2
 12764     0922  1C03               	skipc
 12765     0923  03AB               	decf	??___fldiv+3,f
 12766     0924  082A               	movf	??___fldiv+2,w
 12767     0925  3E7F               	addlw	127
 12768     0926  00B2               	movwf	___fldiv@new_exp
 12769     0927  082B               	movf	??___fldiv+3,w
 12770     0928  1803               	skipnc
 12771     0929  3E01               	addlw	1
 12772     092A  3E00               	addlw	0
 12773     092B  00B3               	movwf	___fldiv@new_exp+1
 12774     092C                     l5060:
 12775     092C  0827               	movf	___fldiv@b+3,w
 12776     092D  00B0               	movwf	___fldiv@rem+3
 12777     092E  0826               	movf	___fldiv@b+2,w
 12778     092F  00AF               	movwf	___fldiv@rem+2
 12779     0930  0825               	movf	___fldiv@b+1,w
 12780     0931  00AE               	movwf	___fldiv@rem+1
 12781     0932  0824               	movf	___fldiv@b,w
 12782     0933  00AD               	movwf	___fldiv@rem
 12783     0934                     l5062:
 12784     0934  3000               	movlw	0
 12785     0935  00A7               	movwf	___fldiv@b+3
 12786     0936  3000               	movlw	0
 12787     0937  00A6               	movwf	___fldiv@b+2
 12788     0938  3000               	movlw	0
 12789     0939  00A5               	movwf	___fldiv@b+1
 12790     093A  3000               	movlw	0
 12791     093B  00A4               	movwf	___fldiv@b
 12792     093C                     l5064:
 12793     093C  3000               	movlw	0
 12794     093D  00B7               	movwf	___fldiv@grs+3
 12795     093E  3000               	movlw	0
 12796     093F  00B6               	movwf	___fldiv@grs+2
 12797     0940  3000               	movlw	0
 12798     0941  00B5               	movwf	___fldiv@grs+1
 12799     0942  3000               	movlw	0
 12800     0943  00B4               	movwf	___fldiv@grs
 12801     0944                     l5066:
 12802     0944  01B9               	clrf	___fldiv@aexp
 12803     0945  298E               	goto	l5086
 12804     0946                     l5068:
 12805     0946  0839               	movf	___fldiv@aexp,w
 12806     0947  1903               	btfsc	3,2
 12807     0948  294A               	goto	u7311
 12808     0949  294B               	goto	u7310
 12809     094A                     u7311:
 12810     094A  296B               	goto	l5078
 12811     094B                     u7310:
 12812     094B                     l5070:
 12813     094B  3001               	movlw	1
 12814     094C  00A8               	movwf	??___fldiv
 12815     094D                     u7325:
 12816     094D  1003               	clrc
 12817     094E  0DAD               	rlf	___fldiv@rem,f
 12818     094F  0DAE               	rlf	___fldiv@rem+1,f
 12819     0950  0DAF               	rlf	___fldiv@rem+2,f
 12820     0951  0DB0               	rlf	___fldiv@rem+3,f
 12821     0952  0BA8               	decfsz	??___fldiv,f
 12822     0953  294D               	goto	u7325
 12823     0954  3001               	movlw	1
 12824     0955  00A8               	movwf	??___fldiv
 12825     0956                     u7335:
 12826     0956  1003               	clrc
 12827     0957  0DA4               	rlf	___fldiv@b,f
 12828     0958  0DA5               	rlf	___fldiv@b+1,f
 12829     0959  0DA6               	rlf	___fldiv@b+2,f
 12830     095A  0DA7               	rlf	___fldiv@b+3,f
 12831     095B  0BA8               	decfsz	??___fldiv,f
 12832     095C  2956               	goto	u7335
 12833     095D                     l5072:
 12834     095D  1FB7               	btfss	___fldiv@grs+3,7
 12835     095E  2960               	goto	u7341
 12836     095F  2961               	goto	u7340
 12837     0960                     u7341:
 12838     0960  2962               	goto	l5076
 12839     0961                     u7340:
 12840     0961                     l5074:
 12841     0961  1424               	bsf	___fldiv@b,0
 12842     0962                     l5076:
 12843     0962  3001               	movlw	1
 12844     0963  00A8               	movwf	??___fldiv
 12845     0964                     u7355:
 12846     0964  1003               	clrc
 12847     0965  0DB4               	rlf	___fldiv@grs,f
 12848     0966  0DB5               	rlf	___fldiv@grs+1,f
 12849     0967  0DB6               	rlf	___fldiv@grs+2,f
 12850     0968  0DB7               	rlf	___fldiv@grs+3,f
 12851     0969  0BA8               	decfsz	??___fldiv,f
 12852     096A  2964               	goto	u7355
 12853     096B                     l5078:
 12854     096B  0823               	movf	___fldiv@a+3,w
 12855     096C  0230               	subwf	___fldiv@rem+3,w
 12856     096D  1D03               	skipz
 12857     096E  2979               	goto	u7365
 12858     096F  0822               	movf	___fldiv@a+2,w
 12859     0970  022F               	subwf	___fldiv@rem+2,w
 12860     0971  1D03               	skipz
 12861     0972  2979               	goto	u7365
 12862     0973  0821               	movf	___fldiv@a+1,w
 12863     0974  022E               	subwf	___fldiv@rem+1,w
 12864     0975  1D03               	skipz
 12865     0976  2979               	goto	u7365
 12866     0977  0820               	movf	___fldiv@a,w
 12867     0978  022D               	subwf	___fldiv@rem,w
 12868     0979                     u7365:
 12869     0979  1C03               	skipc
 12870     097A  297C               	goto	u7361
 12871     097B  297D               	goto	u7360
 12872     097C                     u7361:
 12873     097C  298C               	goto	l5084
 12874     097D                     u7360:
 12875     097D                     l5080:
 12876     097D  1737               	bsf	___fldiv@grs+3,6
 12877     097E                     l5082:
 12878     097E  0820               	movf	___fldiv@a,w
 12879     097F  02AD               	subwf	___fldiv@rem,f
 12880     0980  0821               	movf	___fldiv@a+1,w
 12881     0981  1C03               	skipc
 12882     0982  0F21               	incfsz	___fldiv@a+1,w
 12883     0983  02AE               	subwf	___fldiv@rem+1,f
 12884     0984  0822               	movf	___fldiv@a+2,w
 12885     0985  1C03               	skipc
 12886     0986  0F22               	incfsz	___fldiv@a+2,w
 12887     0987  02AF               	subwf	___fldiv@rem+2,f
 12888     0988  0823               	movf	___fldiv@a+3,w
 12889     0989  1C03               	skipc
 12890     098A  0F23               	incfsz	___fldiv@a+3,w
 12891     098B  02B0               	subwf	___fldiv@rem+3,f
 12892     098C                     l5084:
 12893     098C  3001               	movlw	1
 12894     098D  07B9               	addwf	___fldiv@aexp,f
 12895     098E                     l5086:
 12896     098E  301A               	movlw	26
 12897     098F  0239               	subwf	___fldiv@aexp,w
 12898     0990  1C03               	skipc
 12899     0991  2993               	goto	u7371
 12900     0992  2994               	goto	u7370
 12901     0993                     u7371:
 12902     0993  2946               	goto	l5068
 12903     0994                     u7370:
 12904     0994                     l5088:
 12905     0994  0830               	movf	___fldiv@rem+3,w
 12906     0995  042F               	iorwf	___fldiv@rem+2,w
 12907     0996  042E               	iorwf	___fldiv@rem+1,w
 12908     0997  042D               	iorwf	___fldiv@rem,w
 12909     0998  1903               	skipnz
 12910     0999  299B               	goto	u7381
 12911     099A  299C               	goto	u7380
 12912     099B                     u7381:
 12913     099B  29BB               	goto	l5102
 12914     099C                     u7380:
 12915     099C                     l5090:
 12916     099C  1434               	bsf	___fldiv@grs,0
 12917     099D  29BB               	goto	l5102
 12918     099E                     l5092:
 12919     099E  3001               	movlw	1
 12920     099F  00A8               	movwf	??___fldiv
 12921     09A0                     u7395:
 12922     09A0  1003               	clrc
 12923     09A1  0DA4               	rlf	___fldiv@b,f
 12924     09A2  0DA5               	rlf	___fldiv@b+1,f
 12925     09A3  0DA6               	rlf	___fldiv@b+2,f
 12926     09A4  0DA7               	rlf	___fldiv@b+3,f
 12927     09A5  0BA8               	decfsz	??___fldiv,f
 12928     09A6  29A0               	goto	u7395
 12929     09A7                     l5094:
 12930     09A7  1FB7               	btfss	___fldiv@grs+3,7
 12931     09A8  29AA               	goto	u7401
 12932     09A9  29AB               	goto	u7400
 12933     09AA                     u7401:
 12934     09AA  29AC               	goto	l5098
 12935     09AB                     u7400:
 12936     09AB                     l5096:
 12937     09AB  1424               	bsf	___fldiv@b,0
 12938     09AC                     l5098:
 12939     09AC  3001               	movlw	1
 12940     09AD  00A8               	movwf	??___fldiv
 12941     09AE                     u7415:
 12942     09AE  1003               	clrc
 12943     09AF  0DB4               	rlf	___fldiv@grs,f
 12944     09B0  0DB5               	rlf	___fldiv@grs+1,f
 12945     09B1  0DB6               	rlf	___fldiv@grs+2,f
 12946     09B2  0DB7               	rlf	___fldiv@grs+3,f
 12947     09B3  0BA8               	decfsz	??___fldiv,f
 12948     09B4  29AE               	goto	u7415
 12949     09B5                     l5100:
 12950     09B5  30FF               	movlw	255
 12951     09B6  07B2               	addwf	___fldiv@new_exp,f
 12952     09B7  1803               	skipnc
 12953     09B8  0AB3               	incf	___fldiv@new_exp+1,f
 12954     09B9  30FF               	movlw	255
 12955     09BA  07B3               	addwf	___fldiv@new_exp+1,f
 12956     09BB                     l5102:
 12957     09BB  1FA6               	btfss	___fldiv@b+2,7
 12958     09BC  29BE               	goto	u7421
 12959     09BD  29BF               	goto	u7420
 12960     09BE                     u7421:
 12961     09BE  299E               	goto	l5092
 12962     09BF                     u7420:
 12963     09BF                     l5104:
 12964     09BF  01B9               	clrf	___fldiv@aexp
 12965     09C0                     l5106:
 12966     09C0  1FB7               	btfss	___fldiv@grs+3,7
 12967     09C1  29C3               	goto	u7431
 12968     09C2  29C4               	goto	u7430
 12969     09C3                     u7431:
 12970     09C3  29E0               	goto	l5114
 12971     09C4                     u7430:
 12972     09C4                     l5108:
 12973     09C4  30FF               	movlw	255
 12974     09C5  0534               	andwf	___fldiv@grs,w
 12975     09C6  00A8               	movwf	??___fldiv
 12976     09C7  30FF               	movlw	255
 12977     09C8  0535               	andwf	___fldiv@grs+1,w
 12978     09C9  00A9               	movwf	??___fldiv+1
 12979     09CA  30FF               	movlw	255
 12980     09CB  0536               	andwf	___fldiv@grs+2,w
 12981     09CC  00AA               	movwf	??___fldiv+2
 12982     09CD  307F               	movlw	127
 12983     09CE  0537               	andwf	___fldiv@grs+3,w
 12984     09CF  00AB               	movwf	??___fldiv+3
 12985     09D0  082B               	movf	??___fldiv+3,w
 12986     09D1  042A               	iorwf	??___fldiv+2,w
 12987     09D2  0429               	iorwf	??___fldiv+1,w
 12988     09D3  0428               	iorwf	??___fldiv,w
 12989     09D4  1903               	skipnz
 12990     09D5  29D7               	goto	u7441
 12991     09D6  29D8               	goto	u7440
 12992     09D7                     u7441:
 12993     09D7  29DB               	goto	l759
 12994     09D8                     u7440:
 12995     09D8                     l5110:
 12996     09D8  3001               	movlw	1
 12997     09D9  00B9               	movwf	___fldiv@aexp
 12998     09DA  29E0               	goto	l5114
 12999     09DB                     l759:
 13000     09DB  1C24               	btfss	___fldiv@b,0
 13001     09DC  29DE               	goto	u7451
 13002     09DD  29DF               	goto	u7450
 13003     09DE                     u7451:
 13004     09DE  29E0               	goto	l5114
 13005     09DF                     u7450:
 13006     09DF  29D8               	goto	l5110
 13007     09E0                     l5114:
 13008     09E0  0839               	movf	___fldiv@aexp,w
 13009     09E1  1903               	btfsc	3,2
 13010     09E2  29E4               	goto	u7461
 13011     09E3  29E5               	goto	u7460
 13012     09E4                     u7461:
 13013     09E4  2A16               	goto	l5124
 13014     09E5                     u7460:
 13015     09E5                     l5116:
 13016     09E5  3001               	movlw	1
 13017     09E6  07A4               	addwf	___fldiv@b,f
 13018     09E7  3000               	movlw	0
 13019     09E8  1803               	skipnc
 13020     09E9  3001               	movlw	1
 13021     09EA  07A5               	addwf	___fldiv@b+1,f
 13022     09EB  3000               	movlw	0
 13023     09EC  1803               	skipnc
 13024     09ED  3001               	movlw	1
 13025     09EE  07A6               	addwf	___fldiv@b+2,f
 13026     09EF  3000               	movlw	0
 13027     09F0  1803               	skipnc
 13028     09F1  3001               	movlw	1
 13029     09F2  07A7               	addwf	___fldiv@b+3,f
 13030     09F3                     l5118:
 13031     09F3  1C27               	btfss	___fldiv@b+3,0
 13032     09F4  29F6               	goto	u7471
 13033     09F5  29F7               	goto	u7470
 13034     09F6                     u7471:
 13035     09F6  2A16               	goto	l5124
 13036     09F7                     u7470:
 13037     09F7                     l5120:
 13038     09F7  0824               	movf	___fldiv@b,w
 13039     09F8  00A8               	movwf	??___fldiv
 13040     09F9  0825               	movf	___fldiv@b+1,w
 13041     09FA  00A9               	movwf	??___fldiv+1
 13042     09FB  0826               	movf	___fldiv@b+2,w
 13043     09FC  00AA               	movwf	??___fldiv+2
 13044     09FD  0827               	movf	___fldiv@b+3,w
 13045     09FE  00AB               	movwf	??___fldiv+3
 13046     09FF  3001               	movlw	1
 13047     0A00  00AC               	movwf	??___fldiv+4
 13048     0A01                     u7485:
 13049     0A01  0D2B               	rlf	??___fldiv+3,w
 13050     0A02  0CAB               	rrf	??___fldiv+3,f
 13051     0A03  0CAA               	rrf	??___fldiv+2,f
 13052     0A04  0CA9               	rrf	??___fldiv+1,f
 13053     0A05  0CA8               	rrf	??___fldiv,f
 13054     0A06                     u7480:
 13055     0A06  0BAC               	decfsz	??___fldiv+4,f
 13056     0A07  2A01               	goto	u7485
 13057     0A08  082B               	movf	??___fldiv+3,w
 13058     0A09  00A7               	movwf	___fldiv@b+3
 13059     0A0A  082A               	movf	??___fldiv+2,w
 13060     0A0B  00A6               	movwf	___fldiv@b+2
 13061     0A0C  0829               	movf	??___fldiv+1,w
 13062     0A0D  00A5               	movwf	___fldiv@b+1
 13063     0A0E  0828               	movf	??___fldiv,w
 13064     0A0F  00A4               	movwf	___fldiv@b
 13065     0A10                     l5122:
 13066     0A10  3001               	movlw	1
 13067     0A11  07B2               	addwf	___fldiv@new_exp,f
 13068     0A12  1803               	skipnc
 13069     0A13  0AB3               	incf	___fldiv@new_exp+1,f
 13070     0A14  3000               	movlw	0
 13071     0A15  07B3               	addwf	___fldiv@new_exp+1,f
 13072     0A16                     l5124:
 13073     0A16  0833               	movf	___fldiv@new_exp+1,w
 13074     0A17  3A80               	xorlw	128
 13075     0A18  00FF               	movwf	btemp1
 13076     0A19  3080               	movlw	128
 13077     0A1A  027F               	subwf	btemp1,w
 13078     0A1B  1D03               	skipz
 13079     0A1C  2A1F               	goto	u7495
 13080     0A1D  30FF               	movlw	255
 13081     0A1E  0232               	subwf	___fldiv@new_exp,w
 13082     0A1F                     u7495:
 13083     0A1F  1C03               	skipc
 13084     0A20  2A22               	goto	u7491
 13085     0A21  2A23               	goto	u7490
 13086     0A22                     u7491:
 13087     0A22  2A31               	goto	l5128
 13088     0A23                     u7490:
 13089     0A23                     l5126:
 13090     0A23  30FF               	movlw	255
 13091     0A24  1283               	bcf	3,5	;RP0=0, select bank0
 13092     0A25  1303               	bcf	3,6	;RP1=0, select bank0
 13093     0A26  00B2               	movwf	___fldiv@new_exp
 13094     0A27  3000               	movlw	0
 13095     0A28  00B3               	movwf	___fldiv@new_exp+1
 13096     0A29  3000               	movlw	0
 13097     0A2A  00A7               	movwf	___fldiv@b+3
 13098     0A2B  3000               	movlw	0
 13099     0A2C  00A6               	movwf	___fldiv@b+2
 13100     0A2D  3000               	movlw	0
 13101     0A2E  00A5               	movwf	___fldiv@b+1
 13102     0A2F  3000               	movlw	0
 13103     0A30  00A4               	movwf	___fldiv@b
 13104     0A31                     l5128:
 13105     0A31  1283               	bcf	3,5	;RP0=0, select bank0
 13106     0A32  1303               	bcf	3,6	;RP1=0, select bank0
 13107     0A33  0833               	movf	___fldiv@new_exp+1,w
 13108     0A34  3A80               	xorlw	128
 13109     0A35  00FF               	movwf	btemp1
 13110     0A36  3080               	movlw	128
 13111     0A37  027F               	subwf	btemp1,w
 13112     0A38  1D03               	skipz
 13113     0A39  2A3C               	goto	u7505
 13114     0A3A  3001               	movlw	1
 13115     0A3B  0232               	subwf	___fldiv@new_exp,w
 13116     0A3C                     u7505:
 13117     0A3C  1803               	skipnc
 13118     0A3D  2A3F               	goto	u7501
 13119     0A3E  2A40               	goto	u7500
 13120     0A3F                     u7501:
 13121     0A3F  2A4D               	goto	l765
 13122     0A40                     u7500:
 13123     0A40                     l5130:
 13124     0A40  1283               	bcf	3,5	;RP0=0, select bank0
 13125     0A41  1303               	bcf	3,6	;RP1=0, select bank0
 13126     0A42  01B2               	clrf	___fldiv@new_exp
 13127     0A43  01B3               	clrf	___fldiv@new_exp+1
 13128     0A44                     l5132:
 13129     0A44  3000               	movlw	0
 13130     0A45  00A7               	movwf	___fldiv@b+3
 13131     0A46  3000               	movlw	0
 13132     0A47  00A6               	movwf	___fldiv@b+2
 13133     0A48  3000               	movlw	0
 13134     0A49  00A5               	movwf	___fldiv@b+1
 13135     0A4A  3000               	movlw	0
 13136     0A4B  00A4               	movwf	___fldiv@b
 13137     0A4C                     l5134:
 13138     0A4C  01B1               	clrf	___fldiv@sign
 13139     0A4D                     l765:
 13140     0A4D  1283               	bcf	3,5	;RP0=0, select bank0
 13141     0A4E  1303               	bcf	3,6	;RP1=0, select bank0
 13142     0A4F  0832               	movf	___fldiv@new_exp,w
 13143     0A50  00B8               	movwf	___fldiv@bexp
 13144     0A51                     l5136:
 13145     0A51  1C38               	btfss	___fldiv@bexp,0
 13146     0A52  2A54               	goto	u7511
 13147     0A53  2A55               	goto	u7510
 13148     0A54                     u7511:
 13149     0A54  2A57               	goto	l5140
 13150     0A55                     u7510:
 13151     0A55                     l5138:
 13152     0A55  17A6               	bsf	___fldiv@b+2,7
 13153     0A56  2A59               	goto	l767
 13154     0A57                     l5140:
 13155     0A57  307F               	movlw	127
 13156     0A58  05A6               	andwf	___fldiv@b+2,f
 13157     0A59                     l767:
 13158     0A59  0838               	movf	___fldiv@bexp,w
 13159     0A5A  00A8               	movwf	??___fldiv
 13160     0A5B  1003               	clrc
 13161     0A5C  0C28               	rrf	??___fldiv,w
 13162     0A5D  00A7               	movwf	___fldiv@b+3
 13163     0A5E  0831               	movf	___fldiv@sign,w
 13164     0A5F  04A7               	iorwf	___fldiv@b+3,f
 13165     0A60  2903               	goto	l5048
 13166     0A61                     l745:
 13167     0A61  0008               	return
 13168     0A62                     __end_of___fldiv:
 13169                           
 13170                           	psect	text47
 13171     1B8E                     __ptext47:	
 13172 ;; *************** function _DHT22_init *****************
 13173 ;; Defined at:
 13174 ;;		line 4 in file "dht22.c"
 13175 ;; Parameters:    Size  Location     Type
 13176 ;;		None
 13177 ;; Auto vars:     Size  Location     Type
 13178 ;;		None
 13179 ;; Return value:  Size  Location     Type
 13180 ;;                  1    wreg      void 
 13181 ;; Registers used:
 13182 ;;		wreg
 13183 ;; Tracked objects:
 13184 ;;		On entry : 0/0
 13185 ;;		On exit  : 0/0
 13186 ;;		Unchanged: 0/0
 13187 ;; Data sizes:     COMMON   BANK0   BANK1   BANK3   BANK2
 13188 ;;      Params:         0       0       0       0       0
 13189 ;;      Locals:         0       0       0       0       0
 13190 ;;      Temps:          3       0       0       0       0
 13191 ;;      Totals:         3       0       0       0       0
 13192 ;;Total ram usage:        3 bytes
 13193 ;; Hardware stack levels used: 1
 13194 ;; This function calls:
 13195 ;;		Nothing
 13196 ;; This function is called by:
 13197 ;;		_main
 13198 ;; This function uses a non-reentrant model
 13199 ;;
 13200                           
 13201     1B8E                     _DHT22_init:	
 13202                           ;psect for function _DHT22_init
 13203                           
 13204     1B8E                     l5384:	
 13205                           ;incstack = 0
 13206                           ; Regs used in _DHT22_init: [wreg]
 13207                           
 13208                           
 13209                           ;dht22.c: 5:     TRISDbits.TRISD0 = 0;
 13210     1B8E  1683               	bsf	3,5	;RP0=1, select bank1
 13211     1B8F  1303               	bcf	3,6	;RP1=0, select bank1
 13212     1B90  1008               	bcf	8,0	;volatile
 13213                           
 13214                           ;dht22.c: 6:     PORTDbits.RD0 = 1;
 13215     1B91  1283               	bcf	3,5	;RP0=0, select bank0
 13216     1B92  1303               	bcf	3,6	;RP1=0, select bank0
 13217     1B93  1408               	bsf	8,0	;volatile
 13218     1B94                     l5386:
 13219                           
 13220                           ;dht22.c: 7:     _delay((unsigned long)((1000)*(20000000/4000.0)));
 13221     1B94  301A               	movlw	26
 13222     1B95  00F2               	movwf	??_DHT22_init+2
 13223     1B96  305E               	movlw	94
 13224     1B97  00F1               	movwf	??_DHT22_init+1
 13225     1B98  306E               	movlw	110
 13226     1B99  00F0               	movwf	??_DHT22_init
 13227     1B9A                     u9607:
 13228     1B9A  0BF0               	decfsz	??_DHT22_init,f
 13229     1B9B  2B9A               	goto	u9607
 13230     1B9C  0BF1               	decfsz	??_DHT22_init+1,f
 13231     1B9D  2B9A               	goto	u9607
 13232     1B9E  0BF2               	decfsz	??_DHT22_init+2,f
 13233     1B9F  2B9A               	goto	u9607
 13234     1BA0  0000               	nop
 13235     1BA1                     l206:
 13236     1BA1  0008               	return
 13237     1BA2                     __end_of_DHT22_init:
 13238     0002                     ___latbits      equ	2
 13239     007E                     btemp           set	126	;btemp
 13240     007E                     btemp0          set	126
 13241     007F                     btemp1          set	127
 13242     007E                     wtemp0          set	126
 13243     007F                     wtemp0a         set	127
 13244     007F                     ttemp0a         set	127
 13245     0080                     ltemp0a         set	128
 13246                           
 13247                           	psect	config
 13248                           
 13249                           ;Config register CONFIG1 @ 0x2007
 13250                           ;	Oscillator Selection bits
 13251                           ;	FOSC = HS, HS oscillator: High-speed crystal/resonator on RA6/OSC2/CLKOUT and RA7/OSC1
      +                          /CLKIN
 13252                           ;	Watchdog Timer Enable bit
 13253                           ;	WDTE = OFF, WDT disabled and can be enabled by SWDTEN bit of the WDTCON register
 13254                           ;	Power-up Timer Enable bit
 13255                           ;	PWRTE = ON, PWRT enabled
 13256                           ;	RE3/MCLR pin function select bit
 13257                           ;	MCLRE = ON, RE3/MCLR pin function is MCLR
 13258                           ;	Code Protection bit
 13259                           ;	CP = OFF, Program memory code protection is disabled
 13260                           ;	Data Code Protection bit
 13261                           ;	CPD = OFF, Data memory code protection is disabled
 13262                           ;	Brown Out Reset Selection bits
 13263                           ;	BOREN = OFF, BOR disabled
 13264                           ;	Internal External Switchover bit
 13265                           ;	IESO = OFF, Internal/External Switchover mode is disabled
 13266                           ;	Fail-Safe Clock Monitor Enabled bit
 13267                           ;	FCMEN = OFF, Fail-Safe Clock Monitor is disabled
 13268                           ;	Low Voltage Programming Enable bit
 13269                           ;	LVP = OFF, RB3 pin has digital I/O, HV on MCLR must be used for programming
 13270                           ;	In-Circuit Debugger Mode bit
 13271                           ;	DEBUG = 0x1, unprogrammed default
 13272     2007                     	org	8199
 13273     2007  20E2               	dw	8418
 13274                           
 13275                           ;Config register CONFIG2 @ 0x2008
 13276                           ;	Brown-out Reset Selection bit
 13277                           ;	BOR4V = BOR40V, Brown-out Reset set to 4.0V
 13278                           ;	Flash Program Memory Self Write Enable bits
 13279                           ;	WRT = OFF, Write protection off
 13280     2008                     	org	8200
 13281     2008  3FFF               	dw	16383

Data Sizes:
    Strings     351
    Constant    0
    Data        4
    BSS         39
    Persistent  0
    Stack       0

Auto Spaces:
    Space          Size  Autos    Used
    COMMON           14     14      14
    BANK0            80     73      80
    BANK1            80     80      80
    BANK3            96     47      83
    BANK2            96      0       0

Pointer List with Targets:

    DHT22_read@dht_humedad	PTR float  size(1) Largest target is 4
		 -> main@hf(BANK1[4]), 

    DHT22_read@dht_temperatura	PTR float  size(1) Largest target is 4
		 -> main@tf(BANK3[4]), 

    DS1307_getDate@d	PTR unsigned char  size(1) Largest target is 1
		 -> main@d(BANK3[1]), 

    DS1307_getDate@mo	PTR unsigned char  size(1) Largest target is 1
		 -> main@mo(BANK3[1]), 

    DS1307_getDate@y	PTR unsigned char  size(1) Largest target is 1
		 -> main@y(BANK3[1]), 

    DS1307_getTime@h	PTR unsigned char  size(1) Largest target is 1
		 -> main@h(BANK3[1]), 

    DS1307_getTime@m	PTR unsigned char  size(1) Largest target is 1
		 -> main@m(BANK3[1]), 

    DS1307_getTime@s	PTR unsigned char  size(1) Largest target is 1
		 -> main@s(BANK3[1]), 

    dtoa@fp	PTR struct _IO_FILE size(2) Largest target is 11
		 -> sprintf@f(BANK1[11]), 

    f$.$buffer	PTR unsigned char  size(2) Largest target is 45
		 -> main@buf(BANK3[17]), main@line(BANK1[45]), 

    f$.$source	PTR const unsigned char  size(1) Largest target is 0

    fputc@fp	PTR struct _IO_FILE size(2) Largest target is 11
		 -> sprintf@f(BANK1[11]), 

    fputc@fp$.$buffer	PTR unsigned char  size(2) Largest target is 45
		 -> main@buf(BANK3[17]), main@line(BANK1[45]), 

    fputc@fp$.$source	PTR const unsigned char  size(1) Largest target is 0

    fputs@fp	PTR struct _IO_FILE size(2) Largest target is 11
		 -> sprintf@f(BANK1[11]), 

    fputs@s	PTR const unsigned char  size(1) Largest target is 32
		 -> dbuf(BANK3[32]), 

    LCD_print@s	PTR const unsigned char  size(2) Largest target is 17
		 -> main@buf(BANK3[17]), STR_1(CODE[17]), STR_12(CODE[16]), STR_14(CODE[17]), 
		 -> STR_15(CODE[17]), STR_16(CODE[16]), STR_19(CODE[16]), STR_2(CODE[14]), 
		 -> STR_3(CODE[16]), STR_4(CODE[7]), STR_6(CODE[10]), STR_7(CODE[13]), 
		 -> STR_8(CODE[11]), 

    pad@buf	PTR unsigned char  size(1) Largest target is 32
		 -> dbuf(BANK3[32]), 

    pad@fp	PTR struct _IO_FILE size(2) Largest target is 11
		 -> sprintf@f(BANK1[11]), 

    read_prec_or_width@ap	PTR PTR void [1] size(1) Largest target is 1
		 -> sprintf@ap(BANK1[1]), 

    read_prec_or_width@fmt	PTR PTR const unsigned char  size(1) Largest target is 2
		 -> vfprintf@cfmt(BANK0[2]), 

    S898$buffer	PTR unsigned char  size(2) Largest target is 45
		 -> main@buf(BANK3[17]), main@line(BANK1[45]), 

    S898$source	PTR const unsigned char  size(1) Largest target is 0

    SD_AppendText@text	PTR const unsigned char  size(2) Largest target is 45
		 -> main@line(BANK1[45]), STR_5(CODE[26]), 

    sprintf@ap	PTR void [1] size(1) Largest target is 2
		 -> ?_sprintf(BANK0[2]), 

    sprintf@fmt	PTR const unsigned char  size(2) Largest target is 43
		 -> STR_10(CODE[21]), STR_11(CODE[21]), STR_13(CODE[17]), STR_17(CODE[16]), 
		 -> STR_18(CODE[15]), STR_20(CODE[22]), STR_9(CODE[43]), 

    sprintf@s	PTR unsigned char  size(2) Largest target is 45
		 -> main@buf(BANK3[17]), main@line(BANK1[45]), 

    strlen@a	PTR const unsigned char  size(2) Largest target is 45
		 -> main@line(BANK1[45]), STR_5(CODE[26]), 

    strlen@s	PTR const unsigned char  size(2) Largest target is 45
		 -> main@line(BANK1[45]), STR_5(CODE[26]), 

    utoa@fp	PTR struct _IO_FILE size(2) Largest target is 11
		 -> sprintf@f(BANK1[11]), 

    vfpfcnvrt@ap	PTR PTR void  size(1) Largest target is 1
		 -> sprintf@ap(BANK1[1]), 

    vfpfcnvrt@cp	PTR unsigned char  size(2) Largest target is 43
		 -> STR_10(CODE[21]), STR_11(CODE[21]), STR_13(CODE[17]), STR_17(CODE[16]), 
		 -> STR_18(CODE[15]), STR_20(CODE[22]), STR_9(CODE[43]), 

    vfpfcnvrt@fmt	PTR PTR unsigned char  size(1) Largest target is 2
		 -> vfprintf@cfmt(BANK0[2]), 

    vfpfcnvrt@fp	PTR struct _IO_FILE size(2) Largest target is 11
		 -> sprintf@f(BANK1[11]), 

    vfprintf@ap	PTR PTR void  size(1) Largest target is 1
		 -> sprintf@ap(BANK1[1]), 

    vfprintf@cfmt	PTR unsigned char  size(2) Largest target is 43
		 -> STR_10(CODE[21]), STR_11(CODE[21]), STR_13(CODE[17]), STR_17(CODE[16]), 
		 -> STR_18(CODE[15]), STR_20(CODE[22]), STR_9(CODE[43]), 

    vfprintf@fmt	PTR const unsigned char  size(2) Largest target is 43
		 -> STR_10(CODE[21]), STR_11(CODE[21]), STR_13(CODE[17]), STR_17(CODE[16]), 
		 -> STR_18(CODE[15]), STR_20(CODE[22]), STR_9(CODE[43]), 

    vfprintf@fp	PTR struct _IO_FILE size(2) Largest target is 11
		 -> sprintf@f(BANK1[11]), 


Critical Paths under _main in COMMON

    _main->___fltol
    _utoa->_pad
    _read_prec_or_width->___wmul
    _dtoa->_pad
    _pad->_fputc
    _fputs->_fputc
    _abs->___awmod
    ___fltol->___fladd
    _SD_Init->_SD_Cmd
    _SD_AppendText->_SD_Cmd
    _SD_Cmd->_SD_SPI_Transfer
    _LCD_print->_LCD_data
    _LCD_data->_LCD_nibble
    _LCD_init->_LCD_cmd
    _LCD_goto->_LCD_cmd
    _LCD_cmd->_LCD_nibble
    _DS1307_startOscillator->_I2C_read
    _DS1307_getTime->_BCD_to_dec
    _DS1307_getDate->_BCD_to_dec
    _BCD_to_dec->___bmul
    _DHT22_read->___xxtofl
    ___flmul->___xxtofl
    ___fldiv->___xxtofl

Critical Paths under _main in BANK0

    _main->_DHT22_read
    _sprintf->_vfprintf
    _vfprintf->_vfpfcnvrt
    _vfpfcnvrt->_dtoa
    _utoa->_pad
    _dtoa->_pad
    _pad->_fputs
    ___fltol->___fladd
    _SD_Init->_SD_Cmd
    _SD_AppendText->_SD_Cmd
    _DHT22_read->___flmul
    ___flmul->___fldiv

Critical Paths under _main in BANK1

    _main->_sprintf

Critical Paths under _main in BANK3

    None.

Critical Paths under _main in BANK2

    None.

Call Graph Tables:

 ---------------------------------------------------------------------------------
 (Depth) Function   	        Calls       Base Space   Used Autos Params    Refs
 ---------------------------------------------------------------------------------
 (0) _main                                               113   113      0   24395
                                             72 BANK0      1     1      0
                                             15 BANK1     65    65      0
                                              0 BANK3     47    47      0
                         _DHT22_init
                         _DHT22_read
                     _DS1307_getDate
                     _DS1307_getTime
             _DS1307_startOscillator
                           _I2C_init
                            _LCD_cmd
                           _LCD_goto
                           _LCD_init
                          _LCD_print
                      _SD_AppendText
                            _SD_Init
                            ___fladd
                            ___fltol
                             ___wmul
                            _sprintf
 ---------------------------------------------------------------------------------
 (1) _sprintf                                             39    17     22    6958
                                             49 BANK0     22     0     22
                                              0 BANK1     15    15      0
                           _vfprintf
 ---------------------------------------------------------------------------------
 (2) _vfprintf                                             7     2      5    6598
                                             42 BANK0      7     2      5
                          _vfpfcnvrt
 ---------------------------------------------------------------------------------
 (3) _vfpfcnvrt                                           16    12      4    6356
                                             27 BANK0     15    11      4
                               _dtoa
                              _fputc
                 _read_prec_or_width
                               _utoa
 ---------------------------------------------------------------------------------
 (4) _utoa                                                 9     5      4    1962
                                             15 BANK0      9     5      4
                            ___lwdiv
                            ___lwmod
                                _pad
 ---------------------------------------------------------------------------------
 (5) ___lwmod                                              5     1      4     238
                                              0 COMMON     5     1      4
 ---------------------------------------------------------------------------------
 (5) ___lwdiv                                              7     3      4     247
                                              0 COMMON     7     3      4
 ---------------------------------------------------------------------------------
 (4) _read_prec_or_width                                   7     5      2     432
                                              6 COMMON     7     5      2
                             ___wmul
 ---------------------------------------------------------------------------------
 (5) ___wmul                                               6     2      4     166
                                              0 COMMON     6     2      4
 ---------------------------------------------------------------------------------
 (4) _dtoa                                                12     8      4    2698
                                             15 BANK0     12     8      4
                            ___awdiv
                            ___awmod
                                _abs
                                _pad
 ---------------------------------------------------------------------------------
 (5) _pad                                                  8     3      5    1109
                                             13 COMMON     1     1      0
                                              8 BANK0      7     2      5
                              _fputc
                              _fputs
 ---------------------------------------------------------------------------------
 (6) _fputs                                                8     5      3     493
                                              0 BANK0      8     5      3
                              _fputc
 ---------------------------------------------------------------------------------
 (7) _fputc                                               13     9      4     341
                                              0 COMMON    13     9      4
                              _putch
 ---------------------------------------------------------------------------------
 (8) _putch                                                1     1      0       0
 ---------------------------------------------------------------------------------
 (5) _abs                                                  4     2      2      96
                                              6 COMMON     4     2      2
                            ___awmod (ARG)
 ---------------------------------------------------------------------------------
 (5) ___awmod                                              6     2      4     439
                                              0 COMMON     6     2      4
 ---------------------------------------------------------------------------------
 (5) ___awdiv                                              8     4      4     451
                                              0 COMMON     8     4      4
 ---------------------------------------------------------------------------------
 (1) ___fltol                                             10     6      4     343
                                             12 COMMON     2     2      0
                                              8 BANK0      8     4      4
                            ___fladd (ARG)
 ---------------------------------------------------------------------------------
 (1) ___fladd                                             20    12      8    2960
                                              0 COMMON    12     4      8
                                              0 BANK0      8     8      0
 ---------------------------------------------------------------------------------
 (1) _SD_Init                                              6     6      0    1205
                                              4 BANK0      6     6      0
                             _SD_Cmd
                        _SD_SPI_Init
                    _SD_SPI_Transfer
 ---------------------------------------------------------------------------------
 (2) _SD_SPI_Init                                          0     0      0       0
 ---------------------------------------------------------------------------------
 (1) _SD_AppendText                                       12    10      2    1434
                                              4 BANK0     12    10      2
                             _SD_Cmd
                    _SD_SPI_Transfer
                             _strlen
 ---------------------------------------------------------------------------------
 (3) _strlen                                               4     2      2     133
                                              0 COMMON     4     2      2
 ---------------------------------------------------------------------------------
 (2) _SD_Cmd                                              12     8      4     648
                                              5 COMMON     8     4      4
                                              0 BANK0      4     4      0
                    _SD_SPI_Transfer
 ---------------------------------------------------------------------------------
 (3) _SD_SPI_Transfer                                      5     5      0     189
                                              0 COMMON     5     5      0
 ---------------------------------------------------------------------------------
 (1) _LCD_print                                            2     0      2     401
                                              5 COMMON     2     0      2
                           _LCD_data
 ---------------------------------------------------------------------------------
 (2) _LCD_data                                             3     3      0     282
                                              2 COMMON     3     3      0
                         _LCD_nibble
 ---------------------------------------------------------------------------------
 (1) _LCD_init                                             2     2      0     470
                                              5 COMMON     2     2      0
                            _LCD_cmd
                         _LCD_nibble
 ---------------------------------------------------------------------------------
 (1) _LCD_goto                                             1     1      0     329
                                              5 COMMON     1     1      0
                            _LCD_cmd
 ---------------------------------------------------------------------------------
 (2) _LCD_cmd                                              3     3      0     282
                                              2 COMMON     3     3      0
                         _LCD_nibble
 ---------------------------------------------------------------------------------
 (3) _LCD_nibble                                           2     2      0     188
                                              0 COMMON     2     2      0
 ---------------------------------------------------------------------------------
 (1) _I2C_init                                             0     0      0       0
 ---------------------------------------------------------------------------------
 (1) _DS1307_startOscillator                               1     1      0     165
                                              2 COMMON     1     1      0
                           _I2C_read
                          _I2C_start
                           _I2C_stop
                          _I2C_write
 ---------------------------------------------------------------------------------
 (1) _DS1307_getTime                                       3     0      3     498
                                              6 COMMON     3     0      3
                         _BCD_to_dec
                           _I2C_read
                          _I2C_start
                           _I2C_stop
                          _I2C_write
 ---------------------------------------------------------------------------------
 (1) _DS1307_getDate                                       3     0      3     498
                                              6 COMMON     3     0      3
                         _BCD_to_dec
                           _I2C_read
                          _I2C_start
                           _I2C_stop
                          _I2C_write
 ---------------------------------------------------------------------------------
 (2) _I2C_write                                            1     1      0      47
                                              0 COMMON     1     1      0
                           _I2C_wait
 ---------------------------------------------------------------------------------
 (2) _I2C_stop                                             0     0      0       0
                           _I2C_wait
 ---------------------------------------------------------------------------------
 (2) _I2C_start                                            0     0      0       0
                           _I2C_wait
 ---------------------------------------------------------------------------------
 (2) _I2C_read                                             2     2      0      81
                                              0 COMMON     2     2      0
                           _I2C_wait
 ---------------------------------------------------------------------------------
 (3) _I2C_wait                                             0     0      0       0
 ---------------------------------------------------------------------------------
 (2) _BCD_to_dec                                           3     3      0     268
                                              3 COMMON     3     3      0
                           _I2C_read (ARG)
                             ___bmul
 ---------------------------------------------------------------------------------
 (3) ___bmul                                               3     2      1     174
                                              0 COMMON     3     2      1
 ---------------------------------------------------------------------------------
 (1) _DHT22_read                                          20    18      2    5678
                                             52 BANK0     20    18      2
                            ___fldiv
                            ___flmul
                           ___xxtofl
 ---------------------------------------------------------------------------------
 (2) ___xxtofl                                            14    10      4     517
                                              0 COMMON    14    10      4
 ---------------------------------------------------------------------------------
 (2) ___flmul                                             26    18      8    2434
                                             26 BANK0     26    18      8
                          __Umul8_16
                            ___fldiv (ARG)
                           ___xxtofl (ARG)
 ---------------------------------------------------------------------------------
 (3) __Umul8_16                                            9     7      2     232
                                              0 COMMON     9     7      2
 ---------------------------------------------------------------------------------
 (2) ___fldiv                                             26    18      8    1704
                                              0 BANK0     26    18      8
                           ___xxtofl (ARG)
 ---------------------------------------------------------------------------------
 (1) _DHT22_init                                           3     3      0       0
                                              0 COMMON     3     3      0
 ---------------------------------------------------------------------------------
 Estimated maximum stack depth 8
 ---------------------------------------------------------------------------------

 Call Graph Graphs:

 _main (ROOT)
   _DHT22_init
   _DHT22_read
     ___fldiv
       ___xxtofl (ARG)
     ___flmul
       __Umul8_16
       ___fldiv (ARG)
       ___xxtofl (ARG)
     ___xxtofl
   _DS1307_getDate
     _BCD_to_dec
       _I2C_read (ARG)
         _I2C_wait
       ___bmul (ARG)
     _I2C_read
     _I2C_start
       _I2C_wait
     _I2C_stop
       _I2C_wait
     _I2C_write
       _I2C_wait
   _DS1307_getTime
     _BCD_to_dec
     _I2C_read
     _I2C_start
     _I2C_stop
     _I2C_write
   _DS1307_startOscillator
     _I2C_read
     _I2C_start
     _I2C_stop
     _I2C_write
   _I2C_init
   _LCD_cmd
     _LCD_nibble
   _LCD_goto
     _LCD_cmd
   _LCD_init
     _LCD_cmd
     _LCD_nibble
   _LCD_print
     _LCD_data
       _LCD_nibble
   _SD_AppendText
     _SD_Cmd
       _SD_SPI_Transfer
     _SD_SPI_Transfer
     _strlen
   _SD_Init
     _SD_Cmd
     _SD_SPI_Init
     _SD_SPI_Transfer
   ___fladd
   ___fltol
     ___fladd (ARG)
   ___wmul
   _sprintf
     _vfprintf
       _vfpfcnvrt
         _dtoa
           ___awdiv
           ___awmod
           _abs
             ___awmod (ARG)
           _pad
             _fputc
               _putch
             _fputs
               _fputc
         _fputc
         _read_prec_or_width
           ___wmul
         _utoa
           ___lwdiv
           ___lwmod
           _pad

Address spaces:
Name               Size   Autos  Total    Usage
BANK3               96     47      83     86.5%
BITBANK3            96      0       0      0.0%
BANK2               96      0       0      0.0%
BITBANK2            96      0       0      0.0%
BANK1               80     80      80    100.0%
BITBANK1            80      0       0      0.0%
BANK0               80     73      80    100.0%
BITBANK0            80      0       0      0.0%
COMMON              14     14      14    100.0%
BITCOMMON           14      0       0      0.0%
DATA                 0      0     254      0.0%
STACK                0      0       0      0.0%


Microchip Technology PIC Macro Assembler V3.10 build 20250813170317 
Symbol Table                                                                                   Wed Nov 19 07:13:27 2025

                  ___fldiv@aexp 0039                    ___fldiv@bexp 0038                               pc 0002  
                  ___fldiv@sign 0031                  ___bmul@product 0071                              l62 03A6  
                  ___awdiv@sign 0075                              fsr 0004             ___wmul@multiplicand 0072  
           __Umul8_16@word_mpld 0076                             l120 1BE7                             l210 1660  
                           l114 1E54                             l123 1094                             l212 17FF  
                           l132 1C7A                             l300 1622                             l117 1BC4  
                           l206 1BA1                             l214 168F                             l126 000C  
                           l223 1713                             l231 16F9                             l215 167B  
                           l232 16E5                             l209 1675                             l226 16C6  
                           l218 16A9                             l162 1B5A                             l227 16B2  
                           l219 1695                             l171 1B36                             l412 1B8D  
                           l252 1B4D                             l165 1B69                             l174 1B41  
                           l191 1E06                             l255 1D04                             l168 1B2D  
                           l177 1C0B                             l273 1422                             l194 1EF2  
                           l258 1D39                             l266 0897                             l291 163F  
                           l188 0022                             l700 0CBD                             l197 1EA3  
                           l286 14FA                             l278 1512                             l712 0C30  
                           l552 1F9C                             l297 1619                             l721 0C91  
                           l802 1C8F                             l730 0CBD                             l386 1C3C  
                           l539 1FFF                             l804 1CA1                             l708 0C0A  
                           l580 1177                             l388 1C54                             l900 11F6  
                           l718 0C53                             l590 1177                             l743 08ED  
                           l840 130E                             l745 0A61                             l841 131A  
                           l833 12F2                             l729 0CB1                             l682 0A8E  
                           l666 1D7B                             l827 12B3                             l691 0B3E  
                           l587 1162                             l923 0188                             l915 004D  
                           l828 12C4                             l908 1101                             l676 1D00  
                           l765 0A4D                             l829 1344                             l693 0B17  
                           l917 0057                             l767 0A59                             l759 09DB  
                           l783 0FFF                             l687 0ABF                             l943 1B7A  
                           l872 1F34                             l936 1CC8                             l881 136D  
                           l849 1DBF                             l874 1F45                             l890 1408  
                           l795 0FF5                             l955 1290                             l963 102A  
                           l972 1C2F                             l789 0F71                             l869 1F0C  
                           l877 136F                             l966 0003                             _RC5 003D  
                           _RD4 0044                             _RC6 003E                             _RD5 0045  
                           _RD6 0046                             _RD7 0047                             _PEN 048A  
                           _SEN 0488                     ?_LCD_nibble 0070                             _abs 1B6A  
                           _pad 1EF3                             fsr0 0004                             indf 0000  
                  ___awmod@sign 0075                  SD_AppendText@i 002E                  SD_AppendText@j 0029  
                  ___flmul@aexp 0048                    ___flmul@bexp 004D                    ___flmul@sign 0047  
                  ___flmul@temp 0052                    ___flmul@prod 004E                 __end_of_LCD_cmd 1BC5  
                  ___fltol@exp1 007D                            ?_abs 0076                            l5010 08A6  
                          l5002 0898                            l5100 09B5                            l5020 08BA  
                          l5012 08A7                            l5004 089C                            l5110 09D8  
                          l5102 09BB                            l5030 08CF                            l5014 08AC  
                          l5022 08BC                            l5006 089E                            l5120 09F7  
                          l5104 09BF                            l5040 08E3                            l5032 08D0  
                          l5024 08C4                            l5016 08B1                            l5008 08A2  
                          l5200 0D76                            l6000 01D8                            l5130 0A40  
                          l5122 0A10                            l5114 09E0                            l5106 09C0  
                          l5034 08D5                            l5042 08E5                            l5026 08C7  
                          l5018 08B9                            l5210 0DEF                            l5202 0DA0  
                          l6010 01DE                            l6002 01DA                            l5140 0A57  
                          l5132 0A44                            l5116 09E5                            l5124 0A16  
                          l5108 09C4                            l5060 092C                            l5044 08F5  
                          l5052 090C                            l5036 08DA                            l5028 08CB  
                          l5220 0E6B                            l5212 0E0C                            l5204 0DBC  
                          l5300 12C7                            l4500 1000                            l6100 03C5  
                          l6020 021A                            l6012 01E4                            l6004 01DB  
                          l5134 0A4C                            l5126 0A23                            l5118 09F3  
                          l5070 094B                            l5062 0934                            l5054 0911  
                          l5046 0901                            l5038 08E2                            l5230 0F1D  
                          l5222 0E96                            l5214 0E1A                            l5206 0DD8  
                          l5150 0CC4                            l5310 12F9                            l5302 12D2  
                          l4502 1005                            l4510 1C32                            l6110 0421  
                          l6102 03CB                            l6030 0252                            l6022 0220  
                          l6014 01F4                            l6006 01DC                            l5136 0A51  
                          l5128 0A31                            l5080 097D                            l5072 095D  
                          l5064 093C                            l5048 0903                            l5240 0F42  
                          l5232 0F26                            l5224 0EA4                            l5216 0E37  
                          l5208 0DE1                            l5160 0CD7                            l5152 0CC8  
                          l5320 1332                            l5312 1304                            l5304 12D9  
                          l5400 140E                            l4600 1F98                            l4504 1015  
                          l4512 1C36                            l6200 06D2                            l6120 048C  
                          l6112 0470                            l6104 03CD                            l6040 0275  
                          l6032 0256                            l6024 022A                            l6016 01FD  
                          l6008 01DD                            l5138 0A55                            l5090 099C  
                          l5082 097E                            l5074 0961                            l5066 0944  
                          l5058 091A                            l5250 0F5A                            l5242 0F4B  
                          l5234 0F34                            l5226 0ECF                            l5218 0E4E  
                          l5170 0CF0                            l5162 0CDF                            l5154 0CCC  
                          l5146 0CBE                            l5322 1337                            l5314 1308  
                          l5306 12DB                            l5410 1418                            l5402 1411  
                          l4530 1FA9                            l4522 1F9D                            l4506 101D  
                          l4514 1C43                            l4610 1D45                            l5330 1CA2  
                          l6210 06F7                            l6202 06D9                            l6130 04B8  
                          l6122 0492                            l6114 0479                            l6106 03D1  
                          l6050 02AF                            l6034 025C                            l6042 0290  
                          l6026 0239                            l6018 020C                            l5092 099E  
                          l5084 098C                            l5076 0962                            l5068 0946  
                          l5260 0F89                            l5252 0F6E                            l5236 0F3D  
                          l5244 0F51                            l5228 0EF5                            l5180 0D07  
                          l5172 0CF4                            l5164 0CE1                            l5156 0CCD  
                          l5148 0CC2                            l5324 133B                            l5316 1312  
                          l5308 12E9                            l5340 102B                            l5500 154A  
                          l5412 141C                            l4540 1FBC                            l4532 1FAD  
                          l4524 1F9E                            l4700 13A3                            l4516 1C4A  
                          l4508 1C30                            l4620 1D69                            l4612 1D4C  
                          l4604 1D3A                            l5332 1CA9                            l6220 075F  
                          l6212 0701                            l6204 06E3                            l6140 04DB  
                          l6132 04BE                            l6124 049B                            l6116 047C  
                          l6108 03D9                            l6060 02E3                            l6044 0296  
                          l6052 02BD                            l6036 0266                            l6028 0248  
                          l5094 09A7                            l5078 096B                            l5086 098E  
                          l5270 0FC4                            l5262 0F8D                            l5246 0F55  
                          l5238 0F41                            l5182 0D09                            l5174 0CF5  
                          l5166 0CE9                            l5158 0CD2                            l5326 133C  
                          l5318 131C                            l5350 105E                            l5342 1037  
                          l5510 157A                            l5502 1550                            l5430 146C  
                          l5422 1431                            l5414 1423                            l4550 1FDD  
                          l4542 1FBF                            l4534 1FB2                            l4526 1FA2  
                          l4710 13DF                            l4702 13B6                            l4518 1C50  
                          l4622 1D6A                            l4614 1D4E                            l4606 1D3C  
                          l4630 1CC9                            l5334 1CB6                            l6222 0766  
                          l6206 06E8                            l6214 072B                            l6150 0598  
                          l6142 04E8                            l6126 04A1                            l6118 0482  
                          l6134 04C9                            l6070 0306                            l6062 02EA  
                          l6054 02C3                            l6046 02A0                            l6038 026C  
                          ?_pad 0028                            l5096 09AB                            l5088 0994  
                          l5280 0FEF                            l5272 0FD3                            l5264 0FA6  
                          l5256 0F76                            l5248 0F56                            l5192 0D24  
                          l5184 0D11                            l5176 0CFA                            l5168 0CEC  
                          l5360 1085                            l5352 106D                            l5344 1040  
                          l4800 1D1B                            l5512 157F                            l5504 155A  
                          l5440 1485                            l5432 146D                            l5416 142D  
                          l5408 1412                            l4560 1FF6                            l4552 1FE3  
                          l4544 1FC6                            l4536 1FB4                            l4528 1FA7  
                          l4704 13C5                            l4712 13E5                            l4624 1D71  
                          l4616 1D52                            l4608 1D42                            l4640 1CDF  
                          l4632 1CCF                            l5336 1CC6                            l6224 0770  
                          l6216 0731                            l6208 06F2                            l6160 05B2  
                          l6144 058C                            l6136 04D1                            l6128 04AA  
                          l6152 059B                            l6080 0328                            l6072 030C  
                          l6064 02EE                            l6056 02CD                            l6048 02A6  
                          l5098 09AC                            l5282 0FF0                            l5274 0FDD  
                          l5258 0F7B                            l5266 0FAC                            l5194 0D32  
                          l5186 0D16                            l5178 0CFF                            l5290 1297  
                          l5602 1679                            l5370 1DC0                            l5362 108B  
                          l5354 1073                            l5346 1046                            l4810 1D38  
                          l4802 1D29                            l5530 15CA                            l5514 1581  
                          l5506 155D                            l5450 1490                            l5426 1445  
                          l4562 1FFB                            l4554 1FE4                            l4546 1FC8  
                          l4538 1FB6                            l4570 1F4B                            l4490 1203  
                          l4714 13EC                            l4706 13CD                            l4618 1D63  
                          l4626 1D77                            l4642 1CE9                            l4634 1CD2  
                          l4730 118E                            l4722 1178                            l6218 0750  
                          l6226 07C2                            l6170 05CE                            l6162 05B9  
                          l6154 05A2                            l6146 0594                            l6138 04D5  
                          l6082 0330                            l6090 03AD                            l6074 030D  
                          l6066 02FC                            l6058 02D8                            l5284 0FF7  
                          l5276 0FDF                            l5268 0FB9                            l5196 0D3F  
                          l5188 0D1B                            l5292 129B                            l5620 16A2  
                          l5604 167E                            l4820 1B83                            l5380 1DFB  
                          l5372 1DE8                            l5364 1B5B                            l5356 1079  
                          l5348 1055                            l4804 1D2C                            l5540 15FF  
                          l5532 15D0                            l5524 1595                            l5516 158B  
                          l5508 1567                            l5452 1496                            l5436 146F  
                          l5428 1461                            l4556 1FEB                            l4548 1FCC  
                          l4580 1F61                            l4572 1F50                            l4492 120A  
                          l4660 1F0F                            l4652 1EF3                            l4716 13F2  
                          l4708 13D2                            l4644 1CEF                            l4636 1CD9  
                          l4740 11C6                            l4732 11A2                            l4724 117C  
                          l4900 014E                            l6180 05E3                            l6172 05D1  
                          l6164 05BE                            l6156 05A6                            l6148 0596  
                          l6092 03AF                            l6084 0340                            l6076 0313  
                          l6068 0302                            l4830 1C7E                            l5278 0FEB  
                          l5198 0D5A                            l5294 12AB                            l5614 1693  
                          l5606 1682                            l4822 1B85                            l4814 1B7C  
                          l5382 1E01                            l5374 1DEA                            l5366 1B63  
                          l5358 107F                            l5390 1C55                            l4806 1D30  
                          l5550 1613                            l5542 1601                            l5534 15D8  
                          l5526 159F                            l5518 1591                            l5462 14BA  
                          l5446 1486                            l5438 1480                            l4558 1FF1  
                          l4590 1F7B                            l4582 1F64                            l4574 1F52  
                          l4566 1F46                            l4670 1B6E                            l4494 1222  
                          l4486 11F7                            l4662 1F1E                            l4654 1EF9  
                          l4718 13F8                            l4646 1CF6                            l4638 1CDB  
                          l4742 11CC                            l4734 11A5                            l4726 1184  
                          l5710 1D90                            l5702 1D7C                            l6190 0685  
                          l6182 0625                            l6174 05D7                            l6166 05C4  
                          l6158 05AC                            l6094 03B6                            l6086 03A4  
                          l6078 031D                            l5384 1B8E                            l4832 1C85  
                          l5296 12BB                            l5288 1292                            l5640 16B5  
                          l5632 16AE                            l5616 1698                            l5608 1688  
                          l4824 1B8C                            l4816 1B7D                            l5560 1EC0  
                          l5376 1DEF                            l5368 1B66                            l4920 1BC6  
                          l5392 1C56                            l4808 1D32                            l5552 1623  
                          l5544 1604                            l5536 15E1                            l5528 15B1  
                          l5480 14FD                            l5472 14E3                            l5464 14D6  
                          l5448 148C                            l5800 0AC9                            l4592 1F81  
                          l4584 1F6B                            l4576 1F56                            l4568 1F47  
                          l4672 1B6F                            l4496 1254                            l4488 11FD  
                          l4664 1F26                            l4656 1F04                            l4680 1354  
                          l4760 10C5                            l4752 1095                            l4648 1CFC  
                          l4744 11D1                            l4736 11AB                            l4728 1188  
                          l4904 015C                            l5712 1DA1                            l5704 1D80  
                          l6192 068B                            l6184 0634                            l6168 05C8  
                          l6176 05D8                            l6096 03BB                            l6088 03AA  
                          l5386 1B94                            l4834 1C89                            l5650 16CA  
                          l5642 16B9                            l5626 16AD                            l5618 169C  
                          l4818 1B81                            l4930 1B2E                            l5570 1E71  
                          l5562 1ECF                            l5378 1DF5                            l4770 1E08  
                          l4914 1BA3                            l4922 1BC9                            l5394 1C64  
                          l5554 1629                            l5546 160D                            l5538 15F6  
                          l5490 1513                            l5482 1503                            l5474 14F6  
                          l5466 14E1                            l5458 1498                            l5810 0AD3  
                          l5802 0ACB                            l5730 1134                            l5722 1116  
                          l4594 1F88                            l4586 1F6D                            l4578 1F5B  
                          l4666 1F3A                            l4658 1F0A                            l4690 1373  
                          l4682 1359                            l4762 10DA                            l4754 1097  
                          l4746 11DE                            l4738 11BE                            l4850 004B  
                          l4842 0023                            l5706 1D8C                            l6194 0692  
                          l6186 0676                            l6178 05DD                            l6098 03C0  
                          l4836 1C98                            l4828 1C7C                            l5660 16EC  
                          l5652 16D0                            l5644 16BF                            l5580 1640  
                          l4940 1BEE                            l4932 1B33                            l5572 1E80  
                          l5564 1EDE                            l4780 1E50                            l4772 1E12  
                          l4916 1BA6                            l5388 0005                            l4924 1BDE  
                          l5396 1C6A                            l5556 1637                            l5492 1524  
                          l5484 150D                            l5900 0C2F                            l5820 0ADD  
                          l5812 0AD5                            l5804 0ACD                            l5732 1138  
                          l5740 1150                            l5724 1129                            l5716 1102  
                          l4588 1F71                            l4596 1F8E                            l4668 1B6A  
                          l4692 1377                            l4684 135F                            l4676 1345  
                          l4756 10AF                            l4764 10E2                            l4748 11E4  
                          l4860 0074                            l4852 004E                            l4844 003B  
                          l4908 0167                            l5708 1D8E                            l6196 069C  
                          l6188 0680                            l4838 1C9D                            l5670 16FF  
                          l5662 16F2                            l5654 16D6                            l5638 16B0  
                          l5590 1659                            l5582 1643                            l4782 1B4E  
                          l4942 1BF6                            l4926 1B25                            l4934 1B38  
                          l5574 1E8F                            l5566 1EED                            l5558 1EA4  
                          l4774 1E48                            l4918 1BBB                            l5494 1535  
                          l5486 1511                            l5398 1409                            l5902 0C34  
                          l5910 0C41                            l5830 0AE7                            l5822 0ADF  
                          l5814 0AD7                            l5806 0ACF                            l5750 116C  
                          l5726 112A                            l5718 110D                            l4598 1F93  
                          l4694 137D                            l4686 1364                            l4678 1349  
                          l4766 10FD                            l4758 10B7                            l4870 0096  
                          l4862 0083                            l4846 0043                            l6198 06CC  
                          l5680 1722                            l5672 1705                            l5656 16E3  
                          l5592 1663                            l5584 1646                            l4952 000E  
                          l4784 1B4E                            l4944 1BFA                            l4928 1B2A  
                          l4936 1B3D                            l5576 1E9E                            l5568 1E55  
                          l4776 1E49                            l4960 080B                            l5496 1545  
                          l5904 0C38                            l5912 0C45                            l5840 0B24  
                          l5824 0AE1                            l5816 0AD9                            l5808 0AD1  
                          l5832 0AE9                            l5760 0A70                            l5752 0A62  
                          l5728 1132                            l4696 139A                            l4688 1369  
                          l4872 00A4                            l4864 0087                            l4856 005A  
                          l4848 0047                            l5690 176B                            l5674 170B  
                          l5658 16E8                            l5594 1667                            l5586 1650  
                          l5578 1640                            l4786 1B56                            l4946 1BFF  
                          l4938 1BE9                            l4778 1E4D                            l4794 1D0E  
                          l4970 087C                            l4962 0810                            l5498 1549  
                          l5930 0C8F                            l5922 0C58                            l5914 0C46  
                          l5906 0C3A                            l5842 0B26                            l5850 0B38  
                          l5834 0AEA                            l5826 0AE3                            l5818 0ADB  
                          l5770 0A84                            l5762 0A71                            l5754 0A64  
                          l5746 1157                            l5738 1140                            l4698 139D  
                          l4882 00E3                            l4874 00B2                            l4866 0088  
                          l4858 006F                            l5692 177A                            l5676 170D  
                          l5668 16FD                            l5596 166D                            l5588 1653  
                          l4948 1C09                            l4796 1D10                            l4788 1D02  
                          l4980 088C                            l4964 0812                            l4956 1B42  
                          l5940 0CA9                            l5932 0C96                            l5924 0C5D  
                          l5916 0C4A                            l5908 0C3F                            l5860 0B67  
                          l5852 0B42                            l5844 0B2A                            l5836 0B01  
                          l5828 0AE5                            l5780 0A99                            l5764 0A76  
                          l5772 0A86                            l5756 0A66                            l5748 1167  
                          l4884 00F1                            l4876 00C0                            l4868 008D  
                          l5694 177E                            l5686 1729                            l5678 1719  
                          l5598 1673                            l4798 1D15                            l4966 0818  
                          l4958 0809                            l5942 0CAD                            l5934 0C9B  
                          l5926 0C6B                            l5918 0C50                            l5870 0B7E  
                          l5862 0B6B                            l5854 0B47                            l5846 0B2B  
                          l5838 0B1B                            l5790 0AAC                            l5782 0A9D  
                          l5774 0A90                            l5766 0A7B                            l5758 0A6C  
                          l4894 0123                            l4886 00FF                            l4878 00D5  
                          l5950 0189                            l5696 17CB                            l5688 1738  
                          l4984 088E                            l4976 087F                            l4968 081A  
                          l4992 1C0C                            l5944 0CAF                            l5936 0CA3  
                          l5928 0C6F                            l5880 0BE3                            l5872 0B7F  
                          l5864 0B6F                            l5848 0B36                            l5792 0AB4  
                          l5784 0AA1                            l5776 0A92                            l5768 0A83  
                          l4888 0115                            l4896 0130                            l5960 019D  
                          l5952 018D                            l5698 17FE                            l4986 0890  
                          l4978 0888                            l4994 1C11                            l5946 0CB8  
                          l5938 0CA8                            l5890 0C12                            l5882 0BE5  
                          l5874 0B8A                            l5866 0B78                            l5858 0B50  
                          l5794 0AB5                            l5786 0AA2                            l5778 0A98  
                          l4898 0146                            l5970 01B4                            l5962 01A2  
                          l5954 0191                            l4988 0896                            l4996 1C17  
                          l5948 0CBC                            l5892 0C17                            l5884 0BE8  
                          l5868 0B7A                            l5876 0B8D                            l5788 0AA7  
                          l5796 0AB7                            l5980 01BC                            l5972 01B5  
                          l5964 01A7                            l5956 0193                            l4998 1C27  
                          l5886 0BED                            l5878 0BA3                            l5798 0AC5  
                          l5990 01C8                            l5982 01BE                            l5974 01B6  
                          l5966 01AC                            l5958 0195                            l5896 0C20  
                          l5888 0BFC                            l5992 01CB                            l5984 01C0  
                          l5976 01B8                            l5968 01B1                            l5898 0C2B  
                          l5994 01CD                            l5986 01C1                            l5978 01BA  
                          l5996 01CE                            l5988 01C5                            l5998 01D1  
                          STR_1 18B8                            STR_2 1928                            STR_3 1909  
                          STR_4 1958                            STR_5 182B                            STR_6 194E  
                          STR_7 1936                            STR_8 1943                            STR_9 1800  
                   main@lastBtn 0068                            u7000 1C89                            u6200 1275  
                          u7001 1C88                            u6210 102A                            u6211 1029  
                          u7020 1C9D                            u6300 1FCC                            u6220 1C36  
                          u7021 1C9C                            u6301 1FCB                            u6221 1C35  
                          u7030 003B                            u7015 1C90                            u7031 003A  
                          u8000 1327                            u7120 1C06                            u7200 088C  
                          u6320 1FDD                            u6400 1F71                            u6160 11FD  
                          u7040 0074                            u7121 1C02                            u7105 1BA9  
                          u7201 088B                            u6321 1FDC                            u6401 1F70  
                          u6161 11FC                            u7041 0073                            u8010 1337  
                          u7210 0896                            u6410 1F7B                            u6170 1203  
                          u6250 1C50                            u7050 0087                            u8011 1336  
                          u7115 1BCC                            u7211 0895                            u6315 1FCD  
                          u6411 1F7A                            u6171 1202                            u6251 1C4F  
                          u6235 1C3D                            u7051 0086                            u7300 0911  
                          u8020 133B                            u7220 1C27                            u8100 1496  
                          u6340 1FF1                            u6260 1FA2                            u6180 1222  
                          u7060 00A4                            _RCEN 048B                            u7301 0910  
                          u8021 133A                            u8005 1322                            u7221 1C26  
                          u8101 1495                            u6341 1FF0                            u6325 1FD9  
                          u6261 1FA1                            u6181 1221                            u6245 1C44  
                          u7061 00A3                            u7310 094B                            u7230 08A6  
                          u7134 1C09                            u7150 0810                            u8110 14B9  
                          u6350 1FF6                            u6270 1FAD                            u6430 1F8E  
                          u6190 1254                            u6510 1D77                            u7070 00B2  
                          u8030 1CC6                            u7311 094A                            u7231 08A5  
                          u7151 080F                            u8111 14B8                            u6351 1FF5  
                          u6335 1FE5                            u6271 1FAC                            u6431 1F8D  
                          u6415 1F77                            u6191 1253                            u6511 1D76  
                          u7071 00B1                            u8031 1CC5                            u7400 09AB  
                          u7240 08AC                            u8040 1C7A                            u7160 0818  
                          u8200 15FF                            u8120 14D6                            u6280 1FBC  
                          u6440 1F93                            u6360 1F4B                            u6600 1F34  
                          u6520 1CCF                            u7080 00F1                            u9000 030C  
                          u7401 09AA                            u7241 08AB                            u7145 0016  
                          u8041 1C79                            u7161 0817                            u8201 15FE  
                          u8121 14D5                            u6281 1FBB                            u6441 1F92  
                          u6425 1F82                            u6361 1F4A                            u6601 1F33  
                          u6505 1D6B                            u6521 1CCE                            u7081 00F0  
                          u9001 030B                            u7250 08B1                            u7170 0837  
                          u8210 1612                            u8130 14E1                            u8050 1422  
                          u6370 1F56                            u6610 1F3A                            u6450 1D42  
                          u7090 0146                            u9010 0330                            u7251 08B0  
                          u8211 1611                            u8131 14E0                            u8051 1421  
                          u6371 1F55                            u6195 1250                            u6611 1F39  
                          u6451 1D41                            u7091 0145                            u9011 032F  
                          u7500 0A40                            u7420 09BF                            u7340 0961  
                          u7260 08CF                            u8300 16CA                            u7180 084E  
                          u8220 1622                            u8140 14F6                            u8060 1444  
                          u6380 1F61                            u6620 1B6E                            u6700 13DF  
                          u6540 1CDF                            u9100 04E8                            u9020 0340  
                          u7501 0A3F                            u7421 09BE                            u7341 0960  
                          u7325 094D                            u7261 08CE                            u8301 16C9  
                          u8221 1621                            u8141 14F5                            u8061 1443  
                          u6381 1F60                            u6621 1B6D                            u6605 1F30  
                          u6701 13DE                            u6541 1CDE                            u9101 04E7  
                          u9021 033F                            u7510 0A55                            u7430 09C4  
                          u7270 08D5                            u8310 16D6                            u8230 166D  
                          u7190 0865                            u8150 1535                            u8070 1461  
                          u6710 13E5                            u6630 134E                            u6470 1D52  
                          u6550 1CE9                            u9110 05A2                            u9030 03B6  
                          u7511 0A54                            u7431 09C3                            u7415 09AE  
                          u7335 0956                            u7271 08D4                            u8311 16D5  
                          u8231 166C                            u7175 0832                            u8151 1534  
                          u8071 1460                            u6295 1FC0                            u6711 13E4  
                          u6631 134C                            u6471 1D51                            u6551 1CE8  
                          u6535 1CD3                            u9111 05A1                            u9031 03B5  
                          u7440 09D8                            u7360 097D                            u7280 08DA  
                          u7520 0CCC                            u8240 1679                            u6800 1E0F  
                          u8160 157F                            u8080 146C                            u8400 110D  
                          u6720 13EC                            u6640 134F                            u9200 06D9  
                          u9120 05AC                            u9040 03BB                            u7505 0A3C  
                          u7441 09D7                            u7361 097C                            u7281 08D9  
                          u7601 0D68                            u7521 0CCB                            u8241 1678  
                          u6801 1E0B                            u7185 0849                            u8161 157E  
                          u8081 146B                            u8401 110C                            u6721 13EB  
                          u6705 13DB                            u6465 1D46                            u9201 06D8  
                          u9121 05AB                            u9105 04E4                            u9041 03BA  
                          u7450 09DF                            u7370 0994                            u7290 08F5  
                          u7602 0D6F                            u7530 0CD2                            u8330 16F2  
                          u8250 1688                            u8170 159F                            u8090 1485  
                          u8410 1124                            u6650 1359                            u6490 1D63  
                          u6570 1CFC                            u6730 11C6                            u9210 06E8  
                          u9130 05B9                            u9050 03C0                            u7451 09DE  
                          u7371 0993                            u7355 0964                            u7291 08F4  
                          u7611 0D84                            u7603 0D76                            u7531 0CD1  
                          u8331 16F1                            u8251 1687                            u7195 0860  
                          u8171 159E                            u8091 1484                            u6395 1F65  
                          u6651 1358                            u6491 1D62                            u6571 1CFB  
                          u6555 1CE5                            u6731 11C5                            u9211 06E7  
                          u9131 05B8                            u9051 03BF                            u7460 09E5  
                          u7380 099C                            u7612 0D8B                            u7540 0CD7  
                          u8340 16FD                            u8324 16DE                            u8260 1693  
                          u8180 15B1                            u8500 0A70                            u8420 1138  
                          u6580 1EF9                            u6660 1364                            u6740 11CC  
                          u9220 06F7                            u9140 05BE                            u9060 03C5  
                          u7461 09E4                            u7381 099B                            u7365 0979  
                          u7701 0EB3                            u7621 0DAE                            u7613 0D92  
                          u7541 0CD6                            u8341 16FC                            u8325 16DC  
                          u8261 1692                            u8181 15B0                            u8501 0A6F  
                          u8421 1137                            u6581 1EF8                            u6661 1363  
                          u6485 1D53                            u6565 1CF0                            u6741 11CB  
                          u9221 06F6                            u9141 05BD                            u9061 03C4  
                          u7470 09F7                            u7710 0EDB                            u7702 0EBA  
                          u7622 0DB5                            u7550 0CF4                            u8350 1705  
                          u8270 16A2                            u6910 1B56                            u6830 1E21  
                          u6814 1E12                            u8190 15E1                            u8510 0A76  
                          u8430 113F                            u6590 1F0A                            u6670 13C5  
                          u6750 11D1                            u9230 0766                            u9150 05C8  
                          u9070 03D9                            u7471 09F6                            u7703 0EC1  
                          u7631 0DCA                            u7623 0DBC                            u7551 0CF3  
                          u8351 1704                            u8271 16A1                            u6911 1B55  
                          u6831 1E1D                            u8191 15E0                            u8175 159B  
                          u8511 0A75                            u8431 113E                            u8415 111F  
                          u6591 1F09                            u6671 13C4                            u6495 1D5F  
                          u6751 11D0                            u9231 0765                            u9151 05C7  
                          u9071 03D8                            u7480 0A06                            u7800 0F5A  
                          u7632 0DD1                            u7560 0CFA                            u8360 1713  
                          u8280 16AD                            u6920 1B5A                            u6904 1E48  
                          u8600 0B0A                            u8520 0A7B                            u6680 13CD  
                          u6760 11DE                            u9160 05D7                            u9080 0479  
                          u7801 0F59                            u7721 0EE7                            u7633 0DD8  
                          u7561 0CF9                            u8361 1712                            u8281 16AC  
                          u6921 1B59                            u6825 1E15                            u8185 15AD  
                          u8601 0B08                            u8521 0A7A                            u6681 13CC  
                          u6761 11DD                            u9161 05D6                            u9081 0478  
                          u7490 0A23                            u7810 0F6E                            u7730 0F03  
                          u7722 0EEE                            u7570 0CFF                            u8370 1728  
                          u8290 16BF                            u6930 1D0B                            u8610 0B0B  
                          u8530 0A98                            u8450 114F                            u6690 13D2  
                          u6770 11E4                            u9170 05DD                            u9090 04D5  
                          u7491 0A22                            u7395 09A0                            u7811 0F6D  
                          u7723 0EF5                            u7715 0ED6                            u7651 0DFE  
                          u7571 0CFE                            u8371 1727                            u8291 16BE  
                          u6931 1D07                            u8531 0A97                            u8451 114E  
                          u6691 13D1                            u6675 13C1                            u6771 11E3  
                          u9171 05DC                            u9091 04D4                            u9307 029C  
                          u7820 0F75                            u7652 0E05                            u7580 0D16  
                          u7900 129B                            u8380 177E                            u6860 1E33  
                          u6844 1E24                            u8700 0B6F                            u8620 0B1B  
                          u8540 0AA1                            u8460 1156                            u6780 10AF  
                          u9180 0685                            u7485 0A01                            u7821 0F74  
                          u7741 0F0F                            u7661 0E29                            u7653 0E0C  
                          u7645 0DDA                            u7581 0D15                            u7901 129A  
                          u8381 177D                            u6861 1E2F                            u8701 0B6E  
                          u8621 0B1A                            u8541 0AA0                            u8461 1155  
                          u8445 1141                            u6781 10AE                            u6765 11DA  
                          u9181 0684                            u9317 02B7                            u7830 0F7B  
                          u7742 0F16                            u7662 0E30                            u7590 0D1B  
                          u7910 12BB                            u6950 1D1B                            u8710 0B7E  
                          u8630 0B2A                            u8550 0AA7                            u6790 10FD  
                          u8390 1DB5                            u9190 0692                            u7495 0A1F  
                          u7831 0F7A                            u7743 0F1D                            u7735 0EFE  
                          u7663 0E37                            u7591 0D1A                            u7911 12BA  
                          u6855 1E27                            u6951 1D1A                            u9407 144B  
                          u8711 0B7D                            u8631 0B29                            u8551 0AA6  
                          u6791 10FC                            u9191 0691                            u9327 02C9  
                          u9247 01EA                            u7840 0F8D                            u6944 1D0E  
                          u8800 0C2F                            u8560 0AAC                            u8480 1167  
                          u7841 0F8C                            u7681 0E5D                            u9417 14C0  
                          u8801 0C2E                            u8561 0AAB                            u8481 1166  
                          u9337 02F6                            u9257 0214                            u7850 0F9C  
                          u7770 0F41                            u7682 0E64                            u7930 12D8  
                          u6890 1E45                            u6874 1E36                            u6970 1D38  
                          u8810 0C34                            u8730 0BA3                            u8650 0B3E  
                          u8570 0AC5                            u8490 116C                            u7771 0F40  
                          u7755 0F1F                            u7691 0E88                            u7683 0E6B  
                          u7675 0E39                            u7931 12D7                            u6891 1E41  
                          u9507 104A                            u6971 1D37                            u9427 1556  
                          u8811 0C33                            u8731 0BA2                            u8651 0B3D  
                          u8571 0AC4                            u8491 116B                            u8475 1159  
                          u9347 0319                            u9267 0226                            u7860 0FB9  
                          u7692 0E8F                            u6980 1B81                            u6964 1D25  
                          u8900 0C8F                            u8820 0C3F                            u8660 0B42  
                          u8580 0AC9                            u7861 0FB8                            u7765 0F36  
                          u7693 0E96                            u7925 12CA                            u6981 1B80  
                          u6885 1E39                            u9517 1059                            u6965 1D22  
                          u9437 1563                            u8901 0C8E                            u8821 0C3E  
                          u8741 0BBC                            u8733 0B9F                            u8725 0B83  
                          u8661 0B41                            u8645 0B2F                            u8581 0AC8  
                          u9357 0488                            u9277 0241                            u7870 0FD3  
                          u7790 0F55                            u7950 12F8                            u6990 1B8C  
                          u8910 0C96                            u8830 0C45                            u8750 0BD0  
                          u8742 0BBD                            u8670 0B47                            u8590 0B01  
                          u9607 1B9A                            u7871 0FD2                            u7855 0F97  
                          u7791 0F54                            u7951 12F7                            u6991 1B8B  
                          u9527 1068                            u9447 1587                            u8911 0C95  
                          u8831 0C44                            u8751 0BD1                            u8743 0BC2  
                          u8671 0B46                            u8591 0B00                            u9367 04B2  
                          u9287 0262                            u7880 0FEF                            u8920 0C9B  
                          u8840 0C4A                            u8760 0BED                            u8752 0BD6  
                          u8744 0BC3                            u7881 0FEE                            u7865 0FB5  
                          u7785 0F44                            u7945 12EA                            u9537 108F  
                          u9457 1631                            u8921 0C9A                            u8841 0C49  
                          u8761 0BEC                            u8753 0BD7                            u8745 0BC8  
                          u8681 0B59                            u9377 04C4                            u9297 027D  
                          u7970 1308                            u7890 1297                            u8930 0CA8  
                          u8850 0C50                            u8770 0C12                            u8746 0BC9  
                          u8690 0B6B                            u8682 0B60                            u7875 0FCF  
                          u7971 1307                            u7891 1296                            u9547 1BBF  
                          u9467 1D13                            u8931 0CA7                            u8851 0C4F  
                          u8771 0C11                            u8691 0B6A                            u8683 0B67  
                          u8595 0AFD                            u9387 07C8                            u7980 130E  
                          u8940 0CAD                            u8860 0C57                            u8780 0C17  
                          u7981 130D                            u7965 12FD                            u9557 1E4B  
                          u9477 1D2E                            u9397 1429                            u8941 0CAC  
                          u8861 0C56                            u8781 0C16                            u7990 1312  
                          u8950 0CBC                            u8870 0C5D                            u7991 1311  
                          u9567 1E52                            u9487 1BE2                            u8951 0CBB  
                          u8871 0C5C                            u8880 0C6F                            u8960 0252  
                          u9577 164C                            u9497 103B                            u8881 0C6E  
                          u8961 0251                            u8890 0C80                            u8970 02EA  
                          u9587 1657                            u8795 0C24                            u8971 02E9  
                          u8980 02EE                            u9597 16CE                            u8981 02ED  
                          u8990 0302                            u8895 0C7B                            u8991 0301  
                  SD_Init@retry 0028                            abs@a 0076                            _dbuf 01BF  
                          _main 0189                            _dtoa 1345                 __end_of_SD_Init 1513  
                          _prec 006B                            pad@i 002D                            pad@p 002B  
                          btemp 007E                            _utoa 1178                __end_of_I2C_init 1B6A  
              __end_of_I2C_read 1C0C                __end_of_I2C_wait 1B5B                            start 0000  
              __end_of_I2C_stop 1B37           DHT22_read@dht_humedad 0055                 ___fldiv@new_exp 0032  
               ??_SD_AppendText 0026               ___bmul@multiplier 0072                           ??_abs 0078  
                  main@h_inicio 01B6                           ??_pad 007D                __end_of_LCD_data 1BE8  
              __end_of_LCD_init 1095                __end_of_LCD_goto 000D                   ___fltol@sign1 007C  
               __end_of___fladd 0CBE                           ?_main 0070                           ?_dtoa 002F  
                         _ACKEN 048C                           _ACKDT 048D                 __end_of___fldiv 0A62  
               __end_of___awdiv 2000                           STR_10 185B                           STR_11 1870  
                         STR_12 18F9                           STR_20 1845                           STR_13 18A7  
                         STR_14 1896                           STR_15 1885                           STR_16 18E9  
                         STR_17 18D9                           STR_18 1919                           STR_19 18C9  
               __end_of___awmod 1F9D                 __end_of___flmul 1000                 __end_of___fltol 1178  
                         _ANSEL 0188                           ?_utoa 002F                 ___awdiv@divisor 0070  
               __end_of___lwdiv 1D7C                 __end_of___lwmod 1D01                    main@iniciado 01A9  
               ___awdiv@counter 0074                    vfpfcnvrt@fmt 003D                           _PORTA 0005  
                         _PORTB 0006                           _PORTC 0007                           _PORTD 0008  
                         _TRISA 0085                           _TRISB 0086                           _TRISC 0087  
                         _TRISD 0088                  DHT22_read@bits 005E                    main@min_rest 01B1  
                         _flags 006F             read_prec_or_width@c 007A             read_prec_or_width@n 007B  
                         _fputc 11F7                           _fputs 1000                           btemp0 007E  
                         pad@fp 0028                           btemp1 007F                           main@H 01B4  
                         _width 0069                           main@T 01B2                           _putch 0003  
                         main@d 01B8                           main@h 01BD                           main@m 01BE  
                         dtoa@d 0031                           main@s 01B7                           dtoa@i 0039  
                         main@y 01BA                           dtoa@p 0035                           dtoa@s 0038  
                         dtoa@w 0036                           pclath 000A                           utoa@d 0031  
                         utoa@i 0036                           utoa@p 0033                           utoa@w 0034  
                         status 0003               __end_of_I2C_start 1B2E                           wtemp0 007E  
               __end_of_sprintf 1DC0               __end_of_I2C_write 1B42                SD_AppendText@len 002B  
               __initialization 07D0                     LCD_goto@pos 0075                  _DS1307_getDate 1E55  
                  __end_of_main 07D0                    __end_of_dtoa 1409                  _DS1307_getTime 1EA4  
                  __end_of_utoa 11F7                          ??_main 00AF                          ??_dtoa 007E  
                        ??_utoa 007E                       ??_LCD_cmd 0072      __end_of_read_prec_or_width 1102  
             __end_of_LCD_print 1C7B                 _SD_SPI_Transfer 1D01                          ?_fputc 0070  
                     ??_SD_Init 0024                          ?_fputs 0020                ___awdiv@dividend 0072  
                        ?_putch 0070                          _ANSELH 0189           SD_SPI_Transfer@result 0073  
                 vfpfcnvrt@done 0043                          _SSPADD 0093                          _SD_Cmd 0806  
                        _TRISC3 043B                          _TRISC4 043C                          _SSPCON 0014  
                        _SSPBUF 0013                __end_of___xxtofl 1345          __end_of_DS1307_getDate 1EA4  
                 main@min_total 00E8          __end_of_DS1307_getTime 1EF3                    ??_DHT22_init 0070  
                  ??_DHT22_read 0056                    vfprintf@cfmt 004F                          ___bmul 1B7B  
                     ??___fladd 0020                          ___wmul 1C30                       ??___fldiv 0028  
                     ??___awdiv 0074                       ??___awmod 0074                       ??___flmul 0042  
                     ??___fltol 002C                       ??___lwdiv 0074                    ??_BCD_to_dec 0073  
                     ??___lwmod 0074                    ?_SD_SPI_Init 0070            read_prec_or_width@ap 0077  
              ___awdiv@quotient 0076                    LCD_data@data 0074                 ___awmod@divisor 0070  
               ___awmod@counter 0074                          pad@buf 002A                          main@d2 01A6  
                        main@hf 00EC                          main@mo 01B9                          main@tf 01AA  
                        dtoa@fp 002F                          _strlen 1C0C                          fputc@c 0070  
                        fputs@c 0025                          fputs@i 0026                          fputs@s 0020  
                        ltemp0a 0080                       ?_I2C_init 0070                       ?_I2C_read 0070  
                     ?_I2C_wait 0070                       ?_I2C_stop 0070                          putch@c 0070  
                        ttemp0a 007F                __end_of_vfprintf 1CC9                          utoa@fp 002F  
            __end_of_DHT22_init 1BA2              __end_of_DHT22_read 1800                       ??_sprintf 00A0  
                        wtemp0a 007F                   BCD_to_dec@bcd 0075                    ___xxtofl@arg 007A  
                  ___xxtofl@exp 0079                    ___xxtofl@val 0070                DS1307_getDate@mo 0077  
       __end_of__initialization 07FC              __end_of_BCD_to_dec 0023               SD_AppendText@resp 002D  
             SD_AppendText@text 0024                       ?_LCD_data 0070                       ?_LCD_init 0070  
                     ?_LCD_goto 0070                      ___fltol@f1 0028                 ?_DS1307_getDate 0076  
           ___bmul@multiplicand 0070                 ?_DS1307_getTime 0076                  __pcstackCOMMON 0070  
                  __pidataBANK3 0802                   __end_of_fputc 1291                   __end_of_fputs 102B  
                 __end_of_putch 0004           DHT22_read@rawhumidity 005A         __end_of_SD_SPI_Transfer 1D3A  
                  ??_LCD_nibble 0070                      ??_I2C_init 0070                      ??_I2C_read 0070  
                    ??_I2C_wait 0070                      ??_I2C_stop 0070        ??_DS1307_startOscillator 0072  
                       ??_fputc 0074                         ??_fputs 0023                         ??_putch 0070  
                    __pbssBANK0 0069                      __pbssBANK3 01BF                         ?_SD_Cmd 0075  
                    ??_LCD_data 0072                      ??_LCD_init 0075                      ??_LCD_goto 0075  
             __end_of__Umul8_16 1CA2        DHT22_read@rawtemperature 0063              __end_of_LCD_nibble 1E55  
                    __pmaintext 0189                         ?___bmul 0070                         ?___wmul 0070  
                       SD_Cmd@i 0022                         SD_Cmd@r 0021                         ?_strlen 0070  
                       _LCD_cmd 1BA2                       ?___xxtofl 0070                       SD_Cmd@cmd 0023  
                     SD_Cmd@arg 0075                       SD_Cmd@crc 0020                         _SSPCON2 0091  
                       _SD_Init 1409                         _SSPSTAT 0094                      __stringtab 195F  
                    I2C_write@d 0070                DHT22_read@result 005D                  main@min_inicio 01A8  
                     _I2C_start 1B25                       _I2C_write 1B37           __end_of_SD_AppendText 1640  
                main@sd_removed 01A1                         ___fladd 0A62                         ___fldiv 0898  
                       ___awdiv 1F9D                         ___awmod 1F46                         ___flmul 0CBE  
                       ___fltol 1102                         ___lwdiv 1D3A                         ___lwmod 1CC9  
                     ?_vfprintf 004A                         __ptext1 1D7C                         __ptext2 1CA2  
                       __ptext3 0023                         __ptext4 1178                         __ptext5 1CC9  
                       __ptext6 1D3A                         __ptext7 1095                         __ptext8 1C30  
                       __ptext9 1345                ?_SD_SPI_Transfer 0070           read_prec_or_width@fmt 0076  
                    ??___xxtofl 0074                ___awmod@dividend 0072                         main@buf 0190  
                       _sprintf 1D7C                         main@reg 01A2                         clrloop0 1B1E  
          end_of_initialization 07FC                       _LCD_print 1C55                         fputc@fp 0072  
                       fputs@fp 0021              _read_prec_or_width 1095                      ?_I2C_start 0070  
                    ?_I2C_write 0070               __end_of_vfpfcnvrt 0189                    I2C_read@data 0071  
           ?_read_prec_or_width 0076       DS1307_startOscillator@sec 0072                vfpfcnvrt@convarg 0044  
                  __pstringtext 1800                      ??_vfprintf 007E                         strlen@a 0072  
                       strlen@s 0070                       _PORTAbits 0005                       _PORTBbits 0006  
                     _PORTDbits 0008                  main@ultimo_min 01B0                     ___fladd@grs 007B  
                 ___xxtofl@sign 0078                       _TRISBbits 0086                       _TRISCbits 0087  
            DHT22_read@checksum 005C                       _TRISDbits 0088            ??_read_prec_or_width 0078  
                   ___fldiv@grs 0034                     ___fldiv@rem 002D                ??_DS1307_getDate 0079  
                    ?_LCD_print 0075                ??_DS1307_getTime 0079                     ___flmul@grs 0049  
                    main@dhtCnt 00EA                  __end_of_SD_Cmd 0898                      main@screen 01BB  
                 LCD_nibble@nib 0071          _DS1307_startOscillator 1DC0                  __end_of___bmul 1B8E  
                   vfpfcnvrt@ap 003E                     vfpfcnvrt@cp 0048                     vfpfcnvrt@fp 003B  
                __end_of___wmul 1C55                      LCD_cmd@cmd 0074                  __end_of_strlen 1C30  
           start_initialization 07D0                     __end_of_abs 1B7B                     __end_of_pad 1F46  
                    LCD_print@s 0075                        ??_SD_Cmd 0079                     ??_I2C_start 0070  
                   ??_I2C_write 0070                     vfprintf@fmt 004C                        ??___bmul 0071  
                      ??___wmul 0074                       __Umul8_16 1C7B                     __pdataBANK3 01DF  
                      ??_strlen 0072                       ___fladd@a 0074                       ___fladd@b 0070  
               DS1307_getDate@d 0076                 DS1307_getDate@y 0078                       ___fldiv@a 0020  
                     ___fldiv@b 0024                        ?_LCD_cmd 0070                  _current_offset 006D  
                     ___flmul@a 003E                       ___flmul@b 003A                  _current_sector 01DF  
                     ___latbits 0002                   __pcstackBANK0 0020                   __pcstackBANK1 00A0  
                 __pcstackBANK3 0190                 DS1307_getTime@h 0076                 DS1307_getTime@m 0077  
               DS1307_getTime@s 0078                        ?_SD_Init 0070                     ??_LCD_print 0077  
              ___lwdiv@dividend 0072                        ?___fladd 0070                        ?___fldiv 0020  
                      ?___awdiv 0070                        ?___awmod 0070                        ?___flmul 003A  
                      ?___fltol 0028                      ?__Umul8_16 0070                        ?___lwdiv 0070  
                      ?___lwmod 0070       DHT22_read@dht_temperatura 0054                       __pstrings 195F  
                      SD_Init@i 0027                        SD_Init@r 0026                        _I2C_init 1B5B  
                      _I2C_read 1BE8                        _I2C_wait 1B4E                        _I2C_stop 1B2E  
              ___lwdiv@quotient 0075                        ?_sprintf 0051                  ___wmul@product 0074  
                      _LCD_data 1BC5                        _LCD_init 102B                        _LCD_goto 0004  
                     clear_ram0 1B1D                     I2C_read@ack 0070                   ??_SD_SPI_Init 0070  
                     _vfpfcnvrt 0023                     __stringbase 1971               ___wmul@multiplier 0070  
                     main@first 01AE                     DHT22_read@i 0065                     DHT22_read@j 0066  
                     main@sd_ok 01BC                       main@saved 01AF                       main@timer 00EB  
             DHT22_read@timeout 0067             SD_SPI_Transfer@data 0072         ?_DS1307_startOscillator 0070  
                    _DHT22_init 1B8E                      _DHT22_read 1640                      vfprintf@ap 004E  
                    vfprintf@fp 004A                     ??__Umul8_16 0072                      _BCD_to_dec 000D  
                    ?_vfpfcnvrt 003B              __end_of__stringtab 1971                      sprintf@fmt 0053  
                      ___xxtofl 1291             __end_of_SD_SPI_Init 1B4E                        _dtoa$977 0033  
               ___lwdiv@divisor 0070                 ___lwdiv@counter 0074                        __ptext10 1EF3  
                      __ptext11 1000                        __ptext20 1B42                        __ptext12 11F7  
                      __ptext21 1513                        __ptext13 0003                        __ptext30 1E07  
                      __ptext22 1C0C                        __ptext14 1B6A                        __ptext31 1B5B  
                      __ptext23 0806                        __ptext15 1F46                        __ptext40 000D  
                      __ptext32 1DC0                        __ptext24 1D01                        __ptext16 1F9D  
                      __ptext41 1B7B                        __ptext33 1EA4                        __ptext25 1C55  
                      __ptext17 1102                        __ptext42 1640                        __ptext34 1E55  
                      __ptext26 1BC5                        __ptext18 0A62                        __ptext43 1291  
                      __ptext35 1B37                        __ptext27 102B                        __ptext19 1409  
                      __ptext44 0CBE                        __ptext36 1B2E                        __ptext28 0004  
                      __ptext45 1C7B                        __ptext37 1B25                        __ptext29 1BA2  
                      __ptext46 0898                        __ptext38 1BE8                        __ptext47 1B8E  
                      __ptext39 1B4E                SD_SPI_Transfer@i 0074  __end_of_DS1307_startOscillator 1E07  
                 _SD_AppendText 1513                        _vfprintf 1CA2                        main@diff 01A4  
                      main@line 00BB                      _LCD_nibble 1E07                       sprintf@ap 00A3  
              ___lwmod@dividend 0072               ??_SD_SPI_Transfer 0070                       stringcode 1969  
                   ?_DHT22_init 0070                     ?_DHT22_read 0054                  ?_SD_AppendText 0024  
                   ?_BCD_to_dec 0070                     _SD_SPI_Init 1B42                     ??_vfpfcnvrt 003F  
        __Umul8_16@multiplicand 0070                        sprintf@f 00A4                        sprintf@s 0051  
               ___lwmod@divisor 0070                 ___lwmod@counter 0074                        stringtab 195F  
                 ___fladd@signs 0078                    ___fladd@aexp 0079                    ___fladd@bexp 007A  
          __Umul8_16@multiplier 0078               __Umul8_16@product 0074  
